

Microchip MPLAB XC8 Assembler V2.35 build 20211206165544 
                                                                                               Thu Jun 02 00:34:27 2022

Microchip MPLAB XC8 C Compiler v2.35 (Free license) build 20211206165544 Og1 
     1                           	processor	16F887
     2                           	pagewidth 120
     3                           	opt	flic
     4                           	psect	idataBANK1,global,class=CODE,delta=2,noexec
     5                           	psect	cinit,global,class=CODE,merge=1,delta=2
     6                           	psect	bssBANK0,global,class=BANK0,space=1,delta=1,noexec
     7                           	psect	bssBANK1,global,class=BANK1,space=1,delta=1,noexec
     8                           	psect	dataBANK1,global,class=BANK1,space=1,delta=1,noexec
     9                           	psect	inittext,global,class=CODE,delta=2
    10                           	psect	clrtext,global,class=CODE,delta=2
    11                           	psect	cstackBANK1,global,class=BANK1,space=1,delta=1,noexec
    12                           	psect	cstackCOMMON,global,class=COMMON,space=1,delta=1,noexec
    13                           	psect	cstackBANK0,global,class=BANK0,space=1,delta=1,noexec
    14                           	psect	maintext,global,class=CODE,split=1,delta=2
    15                           	psect	text1,local,class=CODE,merge=1,delta=2
    16                           	psect	text2,local,class=CODE,merge=1,delta=2
    17                           	psect	text3,local,class=CODE,merge=1,delta=2
    18                           	psect	text4,local,class=CODE,merge=1,delta=2
    19                           	psect	text5,local,class=CODE,merge=1,delta=2
    20                           	psect	text6,local,class=CODE,merge=1,delta=2
    21                           	psect	text7,local,class=CODE,merge=1,delta=2
    22                           	psect	text8,local,class=CODE,merge=1,delta=2
    23                           	psect	intentry,global,class=CODE,delta=2
    24                           	psect	text9,local,class=CODE,merge=1,delta=2
    25                           	psect	text10,local,class=CODE,merge=1,delta=2,group=1
    26                           	psect	text11,local,class=CODE,merge=1,delta=2,group=1
    27                           	psect	text12,local,class=CODE,merge=1,delta=2,group=1
    28                           	psect	text13,local,class=CODE,merge=1,delta=2,group=1
    29                           	psect	text14,local,class=CODE,merge=1,delta=2,group=1
    30                           	psect	text15,local,class=CODE,merge=1,delta=2,group=1
    31                           	psect	idloc,global,abs,ovrld,class=IDLOC,space=5,delta=2,noexec
    32                           	psect	config,global,abs,ovrld,class=CONFIG,space=4,delta=2,noexec
    33                           	dabs	1,0x7E,2
    34  0000                     
    35                           ; Version 2.40
    36                           ; Generated 17/11/2021 GMT
    37                           ; 
    38                           ; Copyright © 2021, Microchip Technology Inc. and its subsidiaries ("Microchip")
    39                           ; All rights reserved.
    40                           ; 
    41                           ; This software is developed by Microchip Technology Inc. and its subsidiaries ("Microch
      +                          ip").
    42                           ; 
    43                           ; Redistribution and use in source and binary forms, with or without modification, are
    44                           ; permitted provided that the following conditions are met:
    45                           ; 
    46                           ;     1. Redistributions of source code must retain the above copyright notice, this lis
      +                          t of
    47                           ;        conditions and the following disclaimer.
    48                           ; 
    49                           ;     2. Redistributions in binary form must reproduce the above copyright notice, this 
      +                          list
    50                           ;        of conditions and the following disclaimer in the documentation and/or other
    51                           ;        materials provided with the distribution. Publication is not required when
    52                           ;        this file is used in an embedded application.
    53                           ; 
    54                           ;     3. Microchip's name may not be used to endorse or promote products derived from th
      +                          is
    55                           ;        software without specific prior written permission.
    56                           ; 
    57                           ; THIS SOFTWARE IS PROVIDED BY MICROCHIP "AS IS" AND ANY EXPRESS OR IMPLIED WARRANTIES,
    58                           ; INCLUDING, BUT NOT LIMITED TO, THE IMPLIED WARRANTIES OF MERCHANTABILITY AND FITNESS F
      +                          OR
    59                           ; PURPOSE ARE DISCLAIMED.  IN NO EVENT SHALL MICROCHIP BE LIABLE FOR ANY DIRECT, INDIREC
      +                          T,
    60                           ; INCIDENTAL, SPECIAL, EXEMPLARY, OR CONSEQUENTIAL DAMAGES (INCLUDING BUT NOT LIMITED TO
    61                           ; PROCUREMENT OF SUBSTITUTE GOODS OR SERVICES; LOSS OF USE, DATA OR PROFITS; OR BUSINESS
    62                           ; INTERRUPTION) HOWSOEVER CAUSED AND ON ANY THEORY OF LIABILITY, WHETHER IN CONTRACT, ST
      +                          RICT
    63                           ; LIABILITY, OR TORT (INCLUDING NEGLIGENCE OR OTHERWISE) ARISING IN ANY WAY OUT OF THE U
      +                          SE OF
    64                           ; THIS SOFTWARE, EVEN IF ADVISED OF THE POSSIBILITY OF SUCH DAMAGE.
    65                           ; 
    66                           ; 
    67                           ; Code-generator required, PIC16F887 Definitions
    68                           ; 
    69                           ; SFR Addresses
    70  0000                     	;# 
    71  0001                     	;# 
    72  0002                     	;# 
    73  0003                     	;# 
    74  0004                     	;# 
    75  0005                     	;# 
    76  0006                     	;# 
    77  0007                     	;# 
    78  0008                     	;# 
    79  0009                     	;# 
    80  000A                     	;# 
    81  000B                     	;# 
    82  000C                     	;# 
    83  000D                     	;# 
    84  000E                     	;# 
    85  000E                     	;# 
    86  000F                     	;# 
    87  0010                     	;# 
    88  0011                     	;# 
    89  0012                     	;# 
    90  0013                     	;# 
    91  0014                     	;# 
    92  0015                     	;# 
    93  0015                     	;# 
    94  0016                     	;# 
    95  0017                     	;# 
    96  0018                     	;# 
    97  0019                     	;# 
    98  001A                     	;# 
    99  001B                     	;# 
   100  001B                     	;# 
   101  001C                     	;# 
   102  001D                     	;# 
   103  001E                     	;# 
   104  001F                     	;# 
   105  0081                     	;# 
   106  0085                     	;# 
   107  0086                     	;# 
   108  0087                     	;# 
   109  0088                     	;# 
   110  0089                     	;# 
   111  008C                     	;# 
   112  008D                     	;# 
   113  008E                     	;# 
   114  008F                     	;# 
   115  0090                     	;# 
   116  0091                     	;# 
   117  0092                     	;# 
   118  0093                     	;# 
   119  0093                     	;# 
   120  0093                     	;# 
   121  0094                     	;# 
   122  0095                     	;# 
   123  0096                     	;# 
   124  0097                     	;# 
   125  0098                     	;# 
   126  0099                     	;# 
   127  009A                     	;# 
   128  009B                     	;# 
   129  009C                     	;# 
   130  009D                     	;# 
   131  009E                     	;# 
   132  009F                     	;# 
   133  0105                     	;# 
   134  0107                     	;# 
   135  0108                     	;# 
   136  0109                     	;# 
   137  010C                     	;# 
   138  010C                     	;# 
   139  010D                     	;# 
   140  010E                     	;# 
   141  010F                     	;# 
   142  0185                     	;# 
   143  0187                     	;# 
   144  0188                     	;# 
   145  0189                     	;# 
   146  018C                     	;# 
   147  018D                     	;# 
   148  0000                     	;# 
   149  0001                     	;# 
   150  0002                     	;# 
   151  0003                     	;# 
   152  0004                     	;# 
   153  0005                     	;# 
   154  0006                     	;# 
   155  0007                     	;# 
   156  0008                     	;# 
   157  0009                     	;# 
   158  000A                     	;# 
   159  000B                     	;# 
   160  000C                     	;# 
   161  000D                     	;# 
   162  000E                     	;# 
   163  000E                     	;# 
   164  000F                     	;# 
   165  0010                     	;# 
   166  0011                     	;# 
   167  0012                     	;# 
   168  0013                     	;# 
   169  0014                     	;# 
   170  0015                     	;# 
   171  0015                     	;# 
   172  0016                     	;# 
   173  0017                     	;# 
   174  0018                     	;# 
   175  0019                     	;# 
   176  001A                     	;# 
   177  001B                     	;# 
   178  001B                     	;# 
   179  001C                     	;# 
   180  001D                     	;# 
   181  001E                     	;# 
   182  001F                     	;# 
   183  0081                     	;# 
   184  0085                     	;# 
   185  0086                     	;# 
   186  0087                     	;# 
   187  0088                     	;# 
   188  0089                     	;# 
   189  008C                     	;# 
   190  008D                     	;# 
   191  008E                     	;# 
   192  008F                     	;# 
   193  0090                     	;# 
   194  0091                     	;# 
   195  0092                     	;# 
   196  0093                     	;# 
   197  0093                     	;# 
   198  0093                     	;# 
   199  0094                     	;# 
   200  0095                     	;# 
   201  0096                     	;# 
   202  0097                     	;# 
   203  0098                     	;# 
   204  0099                     	;# 
   205  009A                     	;# 
   206  009B                     	;# 
   207  009C                     	;# 
   208  009D                     	;# 
   209  009E                     	;# 
   210  009F                     	;# 
   211  0105                     	;# 
   212  0107                     	;# 
   213  0108                     	;# 
   214  0109                     	;# 
   215  010C                     	;# 
   216  010C                     	;# 
   217  010D                     	;# 
   218  010E                     	;# 
   219  010F                     	;# 
   220  0185                     	;# 
   221  0187                     	;# 
   222  0188                     	;# 
   223  0189                     	;# 
   224  018C                     	;# 
   225  018D                     	;# 
   226                           
   227                           	psect	idataBANK1
   228  17D1                     __pidataBANK1:
   229                           
   230                           ;initializer for _mensaje
   231  17D1  344D               	retlw	77
   232  17D2  346F               	retlw	111
   233  17D3  3476               	retlw	118
   234  17D4  3465               	retlw	101
   235  17D5  3472               	retlw	114
   236  17D6  3420               	retlw	32
   237  17D7  3420               	retlw	32
   238  17D8  340D               	retlw	13
   239  17D9  340A               	retlw	10
   240                           
   241                           ;initializer for _CCPR_S4
   242  17DA  348C               	retlw	140
   243  17DB  3400               	retlw	0
   244                           
   245                           ;initializer for _CCPR_S3
   246  17DC  340C               	retlw	12
   247  17DD  3400               	retlw	0
   248  0014                     _SSPCONbits	set	20
   249  0007                     _PORTC	set	7
   250  0018                     _RCSTAbits	set	24
   251  0012                     _T2CONbits	set	18
   252  001D                     _CCP2CON	set	29
   253  0017                     _CCP1CON	set	23
   254  0006                     _PORTB	set	6
   255  0005                     _PORTA	set	5
   256  000D                     _PIR2bits	set	13
   257  0019                     _TXREG	set	25
   258  0008                     _PORTD	set	8
   259  0013                     _SSPBUF	set	19
   260  0006                     _PORTBbits	set	6
   261  000B                     _INTCONbits	set	11
   262  0017                     _CCP1CONbits	set	23
   263  0015                     _CCPR1L	set	21
   264  001D                     _CCP2CONbits	set	29
   265  001B                     _CCPR2L	set	27
   266  001E                     _ADRESH	set	30
   267  001F                     _ADCON0bits	set	31
   268  001A                     _RCREG	set	26
   269  000C                     _PIR1bits	set	12
   270  0087                     _TRISC	set	135
   271  0099                     _SPBRG	set	153
   272  009A                     _SPBRGH	set	154
   273  0098                     _TXSTAbits	set	152
   274  0092                     _PR2	set	146
   275  0087                     _TRISCbits	set	135
   276  009F                     _ADCON1bits	set	159
   277  0096                     _IOCBbits	set	150
   278  008C                     _PIE1bits	set	140
   279  0095                     _WPUBbits	set	149
   280  0081                     _OPTION_REGbits	set	129
   281  0086                     _TRISBbits	set	134
   282  008F                     _OSCCONbits	set	143
   283  0088                     _TRISD	set	136
   284  0085                     _TRISA	set	133
   285  0094                     _SSPSTATbits	set	148
   286  010C                     _EEDAT	set	268
   287  010D                     _EEADR	set	269
   288  0187                     _BAUDCTLbits	set	391
   289  0189                     _ANSELH	set	393
   290  0188                     _ANSEL	set	392
   291  018D                     _EECON2	set	397
   292  018C                     _EECON1bits	set	396
   293                           
   294                           	psect	cinit
   295  0013                     start_initialization:	
   296                           ; #config settings
   297                           
   298  0013                     __initialization:
   299                           
   300                           ; Initialize objects allocated to BANK1
   301  0013  1383               	bcf	3,7	;select IRP bank0
   302  0014  30DB               	movlw	low (__pdataBANK1+13)
   303  0015  00FD               	movwf	btemp+-1
   304  0016  3017               	movlw	high __pidataBANK1
   305  0017  00FE               	movwf	btemp
   306  0018  30D1               	movlw	low __pidataBANK1
   307  0019  00FF               	movwf	btemp+1
   308  001A  30CE               	movlw	low __pdataBANK1
   309  001B  0084               	movwf	4
   310  001C  120A  118A  27EE  120A  118A  	fcall	init_ram0
   311                           
   312                           ; Clear objects allocated to BANK1
   313  0021  30A0               	movlw	low __pbssBANK1
   314  0022  0084               	movwf	4
   315  0023  30B9               	movlw	low (__pbssBANK1+25)
   316  0024  160A  118A  27C9  120A  118A  	fcall	clear_ram0
   317                           
   318                           ; Clear objects allocated to BANK0
   319  0029  01EF               	clrf	__pbssBANK0& (0+127)
   320  002A                     end_of_initialization:	
   321                           ;End of C runtime variable initialization code
   322                           
   323  002A                     __end_of__initialization:
   324  002A  0183               	clrf	3
   325  002B  120A  158A  2B4F   	ljmp	_main	;jump to C main() function
   326                           
   327                           	psect	bssBANK0
   328  006F                     __pbssBANK0:
   329  006F                     _indice:
   330  006F                     	ds	1
   331                           
   332                           	psect	bssBANK1
   333  00A0                     __pbssBANK1:
   334  00A0                     _CCPR_S2:
   335  00A0                     	ds	2
   336  00A2                     _CCPR_S1:
   337  00A2                     	ds	2
   338  00A4                     _flag_r2:
   339  00A4                     	ds	2
   340  00A6                     _flag_r1:
   341  00A6                     	ds	2
   342  00A8                     _flag_w2:
   343  00A8                     	ds	2
   344  00AA                     _flag_w1:
   345  00AA                     	ds	2
   346  00AC                     _modo:
   347  00AC                     	ds	2
   348  00AE                     _valor_old:
   349  00AE                     	ds	1
   350  00AF                     _flag_terminal:
   351  00AF                     	ds	1
   352  00B0                     _val_terminal:
   353  00B0                     	ds	1
   354  00B1                     _servo44:
   355  00B1                     	ds	1
   356  00B2                     _servo33:
   357  00B2                     	ds	1
   358  00B3                     _servo22:
   359  00B3                     	ds	1
   360  00B4                     _servo11:
   361  00B4                     	ds	1
   362  00B5                     _servo4:
   363  00B5                     	ds	1
   364  00B6                     _servo3:
   365  00B6                     	ds	1
   366  00B7                     _servo2:
   367  00B7                     	ds	1
   368  00B8                     _servo1:
   369  00B8                     	ds	1
   370                           
   371                           	psect	dataBANK1
   372  00CE                     __pdataBANK1:
   373  00CE                     _mensaje:
   374  00CE                     	ds	9
   375  00D7                     _CCPR_S4:
   376  00D7                     	ds	2
   377  00D9                     _CCPR_S3:
   378  00D9                     	ds	2
   379                           
   380                           	psect	inittext
   381  07EA                     init_fetch0:	
   382                           ;	Called with low address in FSR and high address in W
   383                           
   384  07EA  087E               	movf	btemp,w
   385  07EB  008A               	movwf	10
   386  07EC  087F               	movf	btemp+1,w
   387  07ED  0082               	movwf	2
   388  07EE                     init_ram0:	
   389                           ;Called with:
   390                           ;	high address of idata address in btemp 
   391                           ;	low address of idata address in btemp+1 
   392                           ;	low address of data in FSR
   393                           ;	high address + 1 of data in btemp-1
   394                           
   395  07EE  120A  118A  27EA  120A  118A  	fcall	init_fetch0
   396  07F3  0080               	movwf	0
   397  07F4  0A84               	incf	4,f
   398  07F5  0804               	movf	4,w
   399  07F6  067D               	xorwf	btemp+-1,w
   400  07F7  1903               	btfsc	3,2
   401  07F8  3400               	retlw	0
   402  07F9  0AFF               	incf	btemp+1,f
   403  07FA  1903               	btfsc	3,2
   404  07FB  0AFE               	incf	btemp,f
   405  07FC  2FEE               	goto	init_ram0
   406                           
   407                           	psect	clrtext
   408  17C9                     clear_ram0:	
   409                           ;	Called with FSR containing the base address, and
   410                           ;	W with the last address+1
   411                           
   412  17C9  0064               	clrwdt	;clear the watchdog before getting into this loop
   413  17CA                     clrloop0:
   414  17CA  0180               	clrf	0	;clear RAM location pointed to by FSR
   415  17CB  0A84               	incf	4,f	;increment pointer
   416  17CC  0604               	xorwf	4,w	;XOR with final address
   417  17CD  1903               	btfsc	3,2	;have we reached the end yet?
   418  17CE  3400               	retlw	0	;all done for this memory range, return
   419  17CF  0604               	xorwf	4,w	;XOR again to restore value
   420  17D0  2FCA               	goto	clrloop0	;do the next byte
   421                           
   422                           	psect	cstackBANK1
   423  00B9                     __pcstackBANK1:
   424  00B9                     ??___fltol:
   425                           
   426                           ; 1 bytes @ 0x0
   427  00B9                     	ds	5
   428  00BE                     ?_map:
   429  00BE                     map@x0:	
   430                           ; 2 bytes @ 0x5
   431                           
   432                           
   433                           ; 1 bytes @ 0x5
   434  00BE                     	ds	1
   435  00BF                     map@x1:
   436                           
   437                           ; 1 bytes @ 0x6
   438  00BF                     	ds	1
   439  00C0                     map@y0:
   440                           
   441                           ; 2 bytes @ 0x7
   442  00C0                     	ds	2
   443  00C2                     map@y1:
   444                           
   445                           ; 2 bytes @ 0x9
   446  00C2                     	ds	2
   447  00C4                     ??_isr:
   448                           
   449                           ; 1 bytes @ 0xB
   450  00C4                     	ds	6
   451  00CA                     ?_write_EEPROM:
   452  00CA                     ??_read_EEPROM:	
   453                           ; 1 bytes @ 0x11
   454                           
   455  00CA                     ??_set_ADC:	
   456                           ; 1 bytes @ 0x11
   457                           
   458  00CA                     ??_set_PWM:	
   459                           ; 1 bytes @ 0x11
   460                           
   461  00CA                     ??_set_SPI:	
   462                           ; 1 bytes @ 0x11
   463                           
   464  00CA                     ??_set_UART:	
   465                           ; 1 bytes @ 0x11
   466                           
   467  00CA                     read_EEPROM@address:	
   468                           ; 1 bytes @ 0x11
   469                           
   470  00CA                     write_EEPROM@data:	
   471                           ; 1 bytes @ 0x11
   472                           
   473                           
   474                           ; 1 bytes @ 0x11
   475  00CA                     	ds	1
   476  00CB                     ??_setup:
   477  00CB                     ??_write_EEPROM:	
   478                           ; 1 bytes @ 0x12
   479                           
   480  00CB                     write_EEPROM@address:	
   481                           ; 1 bytes @ 0x12
   482                           
   483                           
   484                           ; 1 bytes @ 0x12
   485  00CB                     	ds	1
   486  00CC                     ??_main:
   487                           
   488                           ; 1 bytes @ 0x13
   489  00CC                     	ds	2
   490                           
   491                           	psect	cstackCOMMON
   492  0070                     __pcstackCOMMON:
   493  0070                     ?_setup:
   494  0070                     ?_read_EEPROM:	
   495                           ; 1 bytes @ 0x0
   496                           
   497  0070                     ?_set_ADC:	
   498                           ; 1 bytes @ 0x0
   499                           
   500  0070                     ?_set_PWM:	
   501                           ; 1 bytes @ 0x0
   502                           
   503  0070                     ?_set_SPI:	
   504                           ; 1 bytes @ 0x0
   505                           
   506  0070                     ?_set_UART:	
   507                           ; 1 bytes @ 0x0
   508                           
   509  0070                     ?_isr:	
   510                           ; 1 bytes @ 0x0
   511                           
   512  0070                     ?_main:	
   513                           ; 1 bytes @ 0x0
   514                           
   515  0070                     ?__Umul8_16:	
   516                           ; 1 bytes @ 0x0
   517                           
   518  0070                     ?___xxtofl:	
   519                           ; 2 bytes @ 0x0
   520                           
   521  0070                     __Umul8_16@multiplicand:	
   522                           ; 4 bytes @ 0x0
   523                           
   524  0070                     ___xxtofl@val:	
   525                           ; 1 bytes @ 0x0
   526                           
   527                           
   528                           ; 4 bytes @ 0x0
   529  0070                     	ds	2
   530  0072                     ??__Umul8_16:
   531                           
   532                           ; 1 bytes @ 0x2
   533  0072                     	ds	2
   534  0074                     ??___xxtofl:
   535  0074                     __Umul8_16@product:	
   536                           ; 1 bytes @ 0x4
   537                           
   538                           
   539                           ; 2 bytes @ 0x4
   540  0074                     	ds	2
   541  0076                     __Umul8_16@word_mpld:
   542                           
   543                           ; 2 bytes @ 0x6
   544  0076                     	ds	2
   545  0078                     __Umul8_16@multiplier:
   546  0078                     ___xxtofl@sign:	
   547                           ; 1 bytes @ 0x8
   548                           
   549                           
   550                           ; 1 bytes @ 0x8
   551  0078                     	ds	1
   552  0079                     ___xxtofl@exp:
   553                           
   554                           ; 1 bytes @ 0x9
   555  0079                     	ds	1
   556  007A                     ___xxtofl@arg:
   557                           
   558                           ; 4 bytes @ 0xA
   559  007A                     	ds	4
   560  007E                     ??_map:
   561                           
   562                           	psect	cstackBANK0
   563  0020                     __pcstackBANK0:	
   564                           ; 1 bytes @ 0xE
   565                           
   566  0020                     ?___fldiv:
   567  0020                     ___fldiv@a:	
   568                           ; 4 bytes @ 0x0
   569                           
   570                           
   571                           ; 4 bytes @ 0x0
   572  0020                     	ds	4
   573  0024                     ___fldiv@b:
   574                           
   575                           ; 4 bytes @ 0x4
   576  0024                     	ds	4
   577  0028                     ??___fldiv:
   578                           
   579                           ; 1 bytes @ 0x8
   580  0028                     	ds	5
   581  002D                     ___fldiv@rem:
   582                           
   583                           ; 4 bytes @ 0xD
   584  002D                     	ds	4
   585  0031                     ___fldiv@sign:
   586                           
   587                           ; 1 bytes @ 0x11
   588  0031                     	ds	1
   589  0032                     ___fldiv@new_exp:
   590                           
   591                           ; 2 bytes @ 0x12
   592  0032                     	ds	2
   593  0034                     ___fldiv@grs:
   594                           
   595                           ; 4 bytes @ 0x14
   596  0034                     	ds	4
   597  0038                     ___fldiv@bexp:
   598                           
   599                           ; 1 bytes @ 0x18
   600  0038                     	ds	1
   601  0039                     ___fldiv@aexp:
   602                           
   603                           ; 1 bytes @ 0x19
   604  0039                     	ds	1
   605  003A                     ?___flmul:
   606  003A                     ___flmul@b:	
   607                           ; 4 bytes @ 0x1A
   608                           
   609                           
   610                           ; 4 bytes @ 0x1A
   611  003A                     	ds	4
   612  003E                     ___flmul@a:
   613                           
   614                           ; 4 bytes @ 0x1E
   615  003E                     	ds	4
   616  0042                     ??___flmul:
   617                           
   618                           ; 1 bytes @ 0x22
   619  0042                     	ds	5
   620  0047                     ___flmul@sign:
   621                           
   622                           ; 1 bytes @ 0x27
   623  0047                     	ds	1
   624  0048                     ___flmul@grs:
   625                           
   626                           ; 4 bytes @ 0x28
   627  0048                     	ds	4
   628  004C                     ___flmul@aexp:
   629                           
   630                           ; 1 bytes @ 0x2C
   631  004C                     	ds	1
   632  004D                     ___flmul@bexp:
   633                           
   634                           ; 1 bytes @ 0x2D
   635  004D                     	ds	1
   636  004E                     ___flmul@prod:
   637                           
   638                           ; 4 bytes @ 0x2E
   639  004E                     	ds	4
   640  0052                     ___flmul@temp:
   641                           
   642                           ; 2 bytes @ 0x32
   643  0052                     	ds	2
   644  0054                     ?___fladd:
   645  0054                     ___fladd@b:	
   646                           ; 4 bytes @ 0x34
   647                           
   648                           
   649                           ; 4 bytes @ 0x34
   650  0054                     	ds	4
   651  0058                     ___fladd@a:
   652                           
   653                           ; 4 bytes @ 0x38
   654  0058                     	ds	4
   655  005C                     ??___fladd:
   656                           
   657                           ; 1 bytes @ 0x3C
   658  005C                     	ds	8
   659  0064                     ___fladd@signs:
   660                           
   661                           ; 1 bytes @ 0x44
   662  0064                     	ds	1
   663  0065                     ___fladd@aexp:
   664                           
   665                           ; 1 bytes @ 0x45
   666  0065                     	ds	1
   667  0066                     ___fladd@bexp:
   668                           
   669                           ; 1 bytes @ 0x46
   670  0066                     	ds	1
   671  0067                     ___fladd@grs:
   672                           
   673                           ; 1 bytes @ 0x47
   674  0067                     	ds	1
   675  0068                     ?___fltol:
   676  0068                     ___fltol@f1:	
   677                           ; 4 bytes @ 0x48
   678                           
   679                           
   680                           ; 4 bytes @ 0x48
   681  0068                     	ds	4
   682  006C                     ___fltol@sign1:
   683                           
   684                           ; 1 bytes @ 0x4C
   685  006C                     	ds	1
   686  006D                     ___fltol@exp1:
   687                           
   688                           ; 1 bytes @ 0x4D
   689  006D                     	ds	1
   690  006E                     map@x:
   691                           
   692                           ; 1 bytes @ 0x4E
   693  006E                     	ds	1
   694                           
   695                           	psect	maintext
   696  0B4F                     __pmaintext:	
   697 ;;
   698 ;;Main: autosize = 0, tempsize = 2, incstack = 0, save=0
   699 ;;
   700 ;; *************** function _main *****************
   701 ;; Defined at:
   702 ;;		line 219 in file "main.c"
   703 ;; Parameters:    Size  Location     Type
   704 ;;		None
   705 ;; Auto vars:     Size  Location     Type
   706 ;;		None
   707 ;; Return value:  Size  Location     Type
   708 ;;                  1    wreg      void 
   709 ;; Registers used:
   710 ;;		wreg, status,2, status,0, pclath, cstack
   711 ;; Tracked objects:
   712 ;;		On entry : B00/0
   713 ;;		On exit  : 0/0
   714 ;;		Unchanged: 0/0
   715 ;; Data sizes:     COMMON   BANK0   BANK1   BANK3   BANK2
   716 ;;      Params:         0       0       0       0       0
   717 ;;      Locals:         0       0       0       0       0
   718 ;;      Temps:          0       0       2       0       0
   719 ;;      Totals:         0       0       2       0       0
   720 ;;Total ram usage:        2 bytes
   721 ;; Hardware stack levels required when called: 6
   722 ;; This function calls:
   723 ;;		_read_EEPROM
   724 ;;		_setup
   725 ;;		_write_EEPROM
   726 ;; This function is called by:
   727 ;;		Startup code after reset
   728 ;; This function uses a non-reentrant model
   729 ;;
   730                           
   731  0B4F                     _main:	
   732                           ;psect for function _main
   733                           
   734  0B4F                     l2661:	
   735                           ;incstack = 0
   736                           ; Regs used in _main: [wreg+status,2+status,0+pclath+cstack]
   737                           
   738                           
   739                           ;main.c: 220:     setup();
   740  0B4F  120A  158A  2087  120A  158A  	fcall	_setup
   741  0B54                     l2663:
   742                           
   743                           ;main.c: 224:         SSPBUF = (uint8_t) CCPR_S3;
   744  0B54  1683               	bsf	3,5	;RP0=1, select bank1
   745  0B55  1303               	bcf	3,6	;RP1=0, select bank1
   746  0B56  0859               	movf	_CCPR_S3^(0+128),w
   747  0B57  1283               	bcf	3,5	;RP0=0, select bank0
   748  0B58  1303               	bcf	3,6	;RP1=0, select bank0
   749  0B59  0093               	movwf	19	;volatile
   750  0B5A                     l205:	
   751                           ;main.c: 225:         while(!SSPSTATbits.BF);
   752                           
   753  0B5A  1683               	bsf	3,5	;RP0=1, select bank1
   754  0B5B  1303               	bcf	3,6	;RP1=0, select bank1
   755  0B5C  1C14               	btfss	20,0	;volatile
   756  0B5D  2B5F               	goto	u3571
   757  0B5E  2B60               	goto	u3570
   758  0B5F                     u3571:
   759  0B5F  2B5A               	goto	l205
   760  0B60                     u3570:
   761  0B60                     l2665:
   762                           
   763                           ;main.c: 226:         _delay((unsigned long)((2)*(500000/4000.0)));
   764  0B60  3052               	movlw	82
   765  0B61  1683               	bsf	3,5	;RP0=1, select bank1
   766  0B62  1303               	bcf	3,6	;RP1=0, select bank1
   767  0B63  00CC               	movwf	??_main^(0+128)
   768  0B64                     u3777:
   769  0B64  0BCC               	decfsz	??_main^(0+128),f
   770  0B65  2B64               	goto	u3777
   771  0B66  0000               	nop
   772                           
   773                           ;main.c: 227:         SSPBUF = (uint8_t) CCPR_S4;
   774  0B67  1683               	bsf	3,5	;RP0=1, select bank1
   775  0B68  1303               	bcf	3,6	;RP1=0, select bank1
   776  0B69  0857               	movf	_CCPR_S4^(0+128),w
   777  0B6A  1283               	bcf	3,5	;RP0=0, select bank0
   778  0B6B  1303               	bcf	3,6	;RP1=0, select bank0
   779  0B6C  0093               	movwf	19	;volatile
   780  0B6D                     l208:	
   781                           ;main.c: 228:         while(!SSPSTATbits.BF);
   782                           
   783  0B6D  1683               	bsf	3,5	;RP0=1, select bank1
   784  0B6E  1303               	bcf	3,6	;RP1=0, select bank1
   785  0B6F  1C14               	btfss	20,0	;volatile
   786  0B70  2B72               	goto	u3581
   787  0B71  2B73               	goto	u3580
   788  0B72                     u3581:
   789  0B72  2B6D               	goto	l208
   790  0B73                     u3580:
   791  0B73                     l2667:
   792                           
   793                           ;main.c: 230:         if(modo == 0){
   794  0B73  082C               	movf	_modo^(0+128),w
   795  0B74  042D               	iorwf	(_modo+1)^(0+128),w
   796  0B75  1D03               	btfss	3,2
   797  0B76  2B78               	goto	u3591
   798  0B77  2B79               	goto	u3590
   799  0B78                     u3591:
   800  0B78  2BF1               	goto	l2683
   801  0B79                     u3590:
   802  0B79                     l2669:
   803                           
   804                           ;main.c: 231:             PORTD = 1;
   805  0B79  3001               	movlw	1
   806  0B7A  1283               	bcf	3,5	;RP0=0, select bank0
   807  0B7B  1303               	bcf	3,6	;RP1=0, select bank0
   808  0B7C  0088               	movwf	8	;volatile
   809  0B7D                     l2671:
   810                           
   811                           ;main.c: 233:             if(flag_w1 == 1){
   812  0B7D  1683               	bsf	3,5	;RP0=1, select bank1
   813  0B7E  1303               	bcf	3,6	;RP1=0, select bank1
   814  0B7F  032A               	decf	_flag_w1^(0+128),w
   815  0B80  042B               	iorwf	(_flag_w1+1)^(0+128),w
   816  0B81  1D03               	btfss	3,2
   817  0B82  2B84               	goto	u3601
   818  0B83  2B85               	goto	u3600
   819  0B84                     u3601:
   820  0B84  2BB8               	goto	l2677
   821  0B85                     u3600:
   822  0B85                     l2673:
   823                           
   824                           ;main.c: 234:                 write_EEPROM(1, servo1);
   825  0B85  0838               	movf	_servo1^(0+128),w
   826  0B86  00CC               	movwf	??_main^(0+128)
   827  0B87  084C               	movf	??_main^(0+128),w
   828  0B88  00CA               	movwf	write_EEPROM@data^(0+128)
   829  0B89  3001               	movlw	1
   830  0B8A  120A  158A  2060  120A  158A  	fcall	_write_EEPROM
   831                           
   832                           ;main.c: 235:                 write_EEPROM(2, servo2);
   833  0B8F  1683               	bsf	3,5	;RP0=1, select bank1
   834  0B90  1303               	bcf	3,6	;RP1=0, select bank1
   835  0B91  0837               	movf	_servo2^(0+128),w
   836  0B92  00CC               	movwf	??_main^(0+128)
   837  0B93  084C               	movf	??_main^(0+128),w
   838  0B94  00CA               	movwf	write_EEPROM@data^(0+128)
   839  0B95  3002               	movlw	2
   840  0B96  120A  158A  2060  120A  158A  	fcall	_write_EEPROM
   841                           
   842                           ;main.c: 236:                 write_EEPROM(3, servo3);
   843  0B9B  1683               	bsf	3,5	;RP0=1, select bank1
   844  0B9C  1303               	bcf	3,6	;RP1=0, select bank1
   845  0B9D  0836               	movf	_servo3^(0+128),w
   846  0B9E  00CC               	movwf	??_main^(0+128)
   847  0B9F  084C               	movf	??_main^(0+128),w
   848  0BA0  00CA               	movwf	write_EEPROM@data^(0+128)
   849  0BA1  3003               	movlw	3
   850  0BA2  120A  158A  2060  120A  158A  	fcall	_write_EEPROM
   851                           
   852                           ;main.c: 237:                 write_EEPROM(4, servo4);
   853  0BA7  1683               	bsf	3,5	;RP0=1, select bank1
   854  0BA8  1303               	bcf	3,6	;RP1=0, select bank1
   855  0BA9  0835               	movf	_servo4^(0+128),w
   856  0BAA  00CC               	movwf	??_main^(0+128)
   857  0BAB  084C               	movf	??_main^(0+128),w
   858  0BAC  00CA               	movwf	write_EEPROM@data^(0+128)
   859  0BAD  3004               	movlw	4
   860  0BAE  120A  158A  2060  120A  158A  	fcall	_write_EEPROM
   861  0BB3                     l2675:
   862                           
   863                           ;main.c: 239:                 flag_w1 = 0;
   864  0BB3  1683               	bsf	3,5	;RP0=1, select bank1
   865  0BB4  1303               	bcf	3,6	;RP1=0, select bank1
   866  0BB5  01AA               	clrf	_flag_w1^(0+128)
   867  0BB6  01AB               	clrf	(_flag_w1+1)^(0+128)
   868                           
   869                           ;main.c: 240:             }
   870  0BB7  2D1C               	goto	l2745
   871  0BB8                     l2677:
   872  0BB8  0328               	decf	_flag_w2^(0+128),w
   873  0BB9  0429               	iorwf	(_flag_w2+1)^(0+128),w
   874  0BBA  1D03               	btfss	3,2
   875  0BBB  2BBD               	goto	u3611
   876  0BBC  2BBE               	goto	u3610
   877  0BBD                     u3611:
   878  0BBD  2D1C               	goto	l2745
   879  0BBE                     u3610:
   880  0BBE                     l2679:
   881                           
   882                           ;main.c: 242:                 write_EEPROM(5, servo1);
   883  0BBE  0838               	movf	_servo1^(0+128),w
   884  0BBF  00CC               	movwf	??_main^(0+128)
   885  0BC0  084C               	movf	??_main^(0+128),w
   886  0BC1  00CA               	movwf	write_EEPROM@data^(0+128)
   887  0BC2  3005               	movlw	5
   888  0BC3  120A  158A  2060  120A  158A  	fcall	_write_EEPROM
   889                           
   890                           ;main.c: 243:                 write_EEPROM(6, servo2);
   891  0BC8  1683               	bsf	3,5	;RP0=1, select bank1
   892  0BC9  1303               	bcf	3,6	;RP1=0, select bank1
   893  0BCA  0837               	movf	_servo2^(0+128),w
   894  0BCB  00CC               	movwf	??_main^(0+128)
   895  0BCC  084C               	movf	??_main^(0+128),w
   896  0BCD  00CA               	movwf	write_EEPROM@data^(0+128)
   897  0BCE  3006               	movlw	6
   898  0BCF  120A  158A  2060  120A  158A  	fcall	_write_EEPROM
   899                           
   900                           ;main.c: 244:                 write_EEPROM(7, servo3);
   901  0BD4  1683               	bsf	3,5	;RP0=1, select bank1
   902  0BD5  1303               	bcf	3,6	;RP1=0, select bank1
   903  0BD6  0836               	movf	_servo3^(0+128),w
   904  0BD7  00CC               	movwf	??_main^(0+128)
   905  0BD8  084C               	movf	??_main^(0+128),w
   906  0BD9  00CA               	movwf	write_EEPROM@data^(0+128)
   907  0BDA  3007               	movlw	7
   908  0BDB  120A  158A  2060  120A  158A  	fcall	_write_EEPROM
   909                           
   910                           ;main.c: 245:                 write_EEPROM(8, servo4);
   911  0BE0  1683               	bsf	3,5	;RP0=1, select bank1
   912  0BE1  1303               	bcf	3,6	;RP1=0, select bank1
   913  0BE2  0835               	movf	_servo4^(0+128),w
   914  0BE3  00CC               	movwf	??_main^(0+128)
   915  0BE4  084C               	movf	??_main^(0+128),w
   916  0BE5  00CA               	movwf	write_EEPROM@data^(0+128)
   917  0BE6  3008               	movlw	8
   918  0BE7  120A  158A  2060  120A  158A  	fcall	_write_EEPROM
   919  0BEC                     l2681:
   920                           
   921                           ;main.c: 247:                 flag_w2 = 0;
   922  0BEC  1683               	bsf	3,5	;RP0=1, select bank1
   923  0BED  1303               	bcf	3,6	;RP1=0, select bank1
   924  0BEE  01A8               	clrf	_flag_w2^(0+128)
   925  0BEF  01A9               	clrf	(_flag_w2+1)^(0+128)
   926  0BF0  2D1C               	goto	l2745
   927  0BF1                     l2683:
   928  0BF1  032C               	decf	_modo^(0+128),w
   929  0BF2  042D               	iorwf	(_modo+1)^(0+128),w
   930  0BF3  1D03               	btfss	3,2
   931  0BF4  2BF6               	goto	u3621
   932  0BF5  2BF7               	goto	u3620
   933  0BF6                     u3621:
   934  0BF6  2CC4               	goto	l2719
   935  0BF7                     u3620:
   936  0BF7                     l2685:
   937                           
   938                           ;main.c: 252:             PORTD = 2;
   939  0BF7  3002               	movlw	2
   940  0BF8  1283               	bcf	3,5	;RP0=0, select bank0
   941  0BF9  1303               	bcf	3,6	;RP1=0, select bank0
   942  0BFA  0088               	movwf	8	;volatile
   943  0BFB                     l2687:
   944                           
   945                           ;main.c: 254:             if(flag_r1 == 1){
   946  0BFB  1683               	bsf	3,5	;RP0=1, select bank1
   947  0BFC  1303               	bcf	3,6	;RP1=0, select bank1
   948  0BFD  0326               	decf	_flag_r1^(0+128),w
   949  0BFE  0427               	iorwf	(_flag_r1+1)^(0+128),w
   950  0BFF  1D03               	btfss	3,2
   951  0C00  2C02               	goto	u3631
   952  0C01  2C03               	goto	u3630
   953  0C02                     u3631:
   954  0C02  2C60               	goto	l2703
   955  0C03                     u3630:
   956  0C03                     l2689:
   957                           
   958                           ;main.c: 255:                 servo1 = read_EEPROM(1);
   959  0C03  3001               	movlw	1
   960  0C04  160A  118A  27DE  120A  158A  	fcall	_read_EEPROM
   961  0C09  1683               	bsf	3,5	;RP0=1, select bank1
   962  0C0A  1303               	bcf	3,6	;RP1=0, select bank1
   963  0C0B  00CC               	movwf	??_main^(0+128)
   964  0C0C  084C               	movf	??_main^(0+128),w
   965  0C0D  00B8               	movwf	_servo1^(0+128)
   966  0C0E                     l2691:
   967                           
   968                           ;main.c: 256:                 _delay((unsigned long)((250)*(500000/4000.0)));
   969  0C0E  3029               	movlw	41
   970  0C0F  1683               	bsf	3,5	;RP0=1, select bank1
   971  0C10  1303               	bcf	3,6	;RP1=0, select bank1
   972  0C11  00CD               	movwf	(??_main^(0+128)+1)
   973  0C12  3093               	movlw	147
   974  0C13  00CC               	movwf	??_main^(0+128)
   975  0C14                     u3787:
   976  0C14  0BCC               	decfsz	??_main^(0+128),f
   977  0C15  2C14               	goto	u3787
   978  0C16  0BCD               	decfsz	(??_main^(0+128)+1),f
   979  0C17  2C14               	goto	u3787
   980  0C18  2C19               	nop2
   981  0C19                     l2693:
   982                           
   983                           ;main.c: 257:                 servo2 = read_EEPROM(2);
   984  0C19  3002               	movlw	2
   985  0C1A  160A  118A  27DE  120A  158A  	fcall	_read_EEPROM
   986  0C1F  1683               	bsf	3,5	;RP0=1, select bank1
   987  0C20  1303               	bcf	3,6	;RP1=0, select bank1
   988  0C21  00CC               	movwf	??_main^(0+128)
   989  0C22  084C               	movf	??_main^(0+128),w
   990  0C23  00B7               	movwf	_servo2^(0+128)
   991                           
   992                           ;main.c: 258:                 _delay((unsigned long)((250)*(500000/4000.0)));
   993  0C24  3029               	movlw	41
   994  0C25  1683               	bsf	3,5	;RP0=1, select bank1
   995  0C26  1303               	bcf	3,6	;RP1=0, select bank1
   996  0C27  00CD               	movwf	(??_main^(0+128)+1)
   997  0C28  3093               	movlw	147
   998  0C29  00CC               	movwf	??_main^(0+128)
   999  0C2A                     u3797:
  1000  0C2A  0BCC               	decfsz	??_main^(0+128),f
  1001  0C2B  2C2A               	goto	u3797
  1002  0C2C  0BCD               	decfsz	(??_main^(0+128)+1),f
  1003  0C2D  2C2A               	goto	u3797
  1004  0C2E  2C2F               	nop2
  1005  0C2F                     l2695:
  1006                           
  1007                           ;main.c: 259:                 servo3 = read_EEPROM(3);
  1008  0C2F  3003               	movlw	3
  1009  0C30  160A  118A  27DE  120A  158A  	fcall	_read_EEPROM
  1010  0C35  1683               	bsf	3,5	;RP0=1, select bank1
  1011  0C36  1303               	bcf	3,6	;RP1=0, select bank1
  1012  0C37  00CC               	movwf	??_main^(0+128)
  1013  0C38  084C               	movf	??_main^(0+128),w
  1014  0C39  00B6               	movwf	_servo3^(0+128)
  1015  0C3A                     l2697:
  1016                           
  1017                           ;main.c: 260:                 _delay((unsigned long)((250)*(500000/4000.0)));
  1018  0C3A  3029               	movlw	41
  1019  0C3B  1683               	bsf	3,5	;RP0=1, select bank1
  1020  0C3C  1303               	bcf	3,6	;RP1=0, select bank1
  1021  0C3D  00CD               	movwf	(??_main^(0+128)+1)
  1022  0C3E  3093               	movlw	147
  1023  0C3F  00CC               	movwf	??_main^(0+128)
  1024  0C40                     u3807:
  1025  0C40  0BCC               	decfsz	??_main^(0+128),f
  1026  0C41  2C40               	goto	u3807
  1027  0C42  0BCD               	decfsz	(??_main^(0+128)+1),f
  1028  0C43  2C40               	goto	u3807
  1029  0C44  2C45               	nop2
  1030                           
  1031                           ;main.c: 261:                 servo4 = read_EEPROM(4);
  1032  0C45  3004               	movlw	4
  1033  0C46  160A  118A  27DE  120A  158A  	fcall	_read_EEPROM
  1034  0C4B  1683               	bsf	3,5	;RP0=1, select bank1
  1035  0C4C  1303               	bcf	3,6	;RP1=0, select bank1
  1036  0C4D  00CC               	movwf	??_main^(0+128)
  1037  0C4E  084C               	movf	??_main^(0+128),w
  1038  0C4F  00B5               	movwf	_servo4^(0+128)
  1039  0C50                     l2699:
  1040                           
  1041                           ;main.c: 262:                 _delay((unsigned long)((250)*(500000/4000.0)));
  1042  0C50  3029               	movlw	41
  1043  0C51  1683               	bsf	3,5	;RP0=1, select bank1
  1044  0C52  1303               	bcf	3,6	;RP1=0, select bank1
  1045  0C53  00CD               	movwf	(??_main^(0+128)+1)
  1046  0C54  3093               	movlw	147
  1047  0C55  00CC               	movwf	??_main^(0+128)
  1048  0C56                     u3817:
  1049  0C56  0BCC               	decfsz	??_main^(0+128),f
  1050  0C57  2C56               	goto	u3817
  1051  0C58  0BCD               	decfsz	(??_main^(0+128)+1),f
  1052  0C59  2C56               	goto	u3817
  1053  0C5A  2C5B               	nop2
  1054  0C5B                     l2701:
  1055                           
  1056                           ;main.c: 264:                 flag_r1 = 0;
  1057  0C5B  1683               	bsf	3,5	;RP0=1, select bank1
  1058  0C5C  1303               	bcf	3,6	;RP1=0, select bank1
  1059  0C5D  01A6               	clrf	_flag_r1^(0+128)
  1060  0C5E  01A7               	clrf	(_flag_r1+1)^(0+128)
  1061                           
  1062                           ;main.c: 265:             }
  1063  0C5F  2D1C               	goto	l2745
  1064  0C60                     l2703:
  1065  0C60  0324               	decf	_flag_r2^(0+128),w
  1066  0C61  0425               	iorwf	(_flag_r2+1)^(0+128),w
  1067  0C62  1D03               	btfss	3,2
  1068  0C63  2C65               	goto	u3641
  1069  0C64  2C66               	goto	u3640
  1070  0C65                     u3641:
  1071  0C65  2D1C               	goto	l2745
  1072  0C66                     u3640:
  1073  0C66                     l2705:
  1074                           
  1075                           ;main.c: 267:                 servo1 = read_EEPROM(5);
  1076  0C66  3005               	movlw	5
  1077  0C67  160A  118A  27DE  120A  158A  	fcall	_read_EEPROM
  1078  0C6C  1683               	bsf	3,5	;RP0=1, select bank1
  1079  0C6D  1303               	bcf	3,6	;RP1=0, select bank1
  1080  0C6E  00CC               	movwf	??_main^(0+128)
  1081  0C6F  084C               	movf	??_main^(0+128),w
  1082  0C70  00B8               	movwf	_servo1^(0+128)
  1083  0C71                     l2707:
  1084                           
  1085                           ;main.c: 268:                 _delay((unsigned long)((250)*(500000/4000.0)));
  1086  0C71  3029               	movlw	41
  1087  0C72  1683               	bsf	3,5	;RP0=1, select bank1
  1088  0C73  1303               	bcf	3,6	;RP1=0, select bank1
  1089  0C74  00CD               	movwf	(??_main^(0+128)+1)
  1090  0C75  3093               	movlw	147
  1091  0C76  00CC               	movwf	??_main^(0+128)
  1092  0C77                     u3827:
  1093  0C77  0BCC               	decfsz	??_main^(0+128),f
  1094  0C78  2C77               	goto	u3827
  1095  0C79  0BCD               	decfsz	(??_main^(0+128)+1),f
  1096  0C7A  2C77               	goto	u3827
  1097  0C7B  2C7C               	nop2
  1098  0C7C                     l2709:
  1099                           
  1100                           ;main.c: 269:                 servo2 = read_EEPROM(6);
  1101  0C7C  3006               	movlw	6
  1102  0C7D  160A  118A  27DE  120A  158A  	fcall	_read_EEPROM
  1103  0C82  1683               	bsf	3,5	;RP0=1, select bank1
  1104  0C83  1303               	bcf	3,6	;RP1=0, select bank1
  1105  0C84  00CC               	movwf	??_main^(0+128)
  1106  0C85  084C               	movf	??_main^(0+128),w
  1107  0C86  00B7               	movwf	_servo2^(0+128)
  1108                           
  1109                           ;main.c: 270:                 _delay((unsigned long)((250)*(500000/4000.0)));
  1110  0C87  3029               	movlw	41
  1111  0C88  1683               	bsf	3,5	;RP0=1, select bank1
  1112  0C89  1303               	bcf	3,6	;RP1=0, select bank1
  1113  0C8A  00CD               	movwf	(??_main^(0+128)+1)
  1114  0C8B  3093               	movlw	147
  1115  0C8C  00CC               	movwf	??_main^(0+128)
  1116  0C8D                     u3837:
  1117  0C8D  0BCC               	decfsz	??_main^(0+128),f
  1118  0C8E  2C8D               	goto	u3837
  1119  0C8F  0BCD               	decfsz	(??_main^(0+128)+1),f
  1120  0C90  2C8D               	goto	u3837
  1121  0C91  2C92               	nop2
  1122  0C92                     l2711:
  1123                           
  1124                           ;main.c: 271:                 servo3 = read_EEPROM(7);
  1125  0C92  3007               	movlw	7
  1126  0C93  160A  118A  27DE  120A  158A  	fcall	_read_EEPROM
  1127  0C98  1683               	bsf	3,5	;RP0=1, select bank1
  1128  0C99  1303               	bcf	3,6	;RP1=0, select bank1
  1129  0C9A  00CC               	movwf	??_main^(0+128)
  1130  0C9B  084C               	movf	??_main^(0+128),w
  1131  0C9C  00B6               	movwf	_servo3^(0+128)
  1132  0C9D                     l2713:
  1133                           
  1134                           ;main.c: 272:                 _delay((unsigned long)((250)*(500000/4000.0)));
  1135  0C9D  3029               	movlw	41
  1136  0C9E  1683               	bsf	3,5	;RP0=1, select bank1
  1137  0C9F  1303               	bcf	3,6	;RP1=0, select bank1
  1138  0CA0  00CD               	movwf	(??_main^(0+128)+1)
  1139  0CA1  3093               	movlw	147
  1140  0CA2  00CC               	movwf	??_main^(0+128)
  1141  0CA3                     u3847:
  1142  0CA3  0BCC               	decfsz	??_main^(0+128),f
  1143  0CA4  2CA3               	goto	u3847
  1144  0CA5  0BCD               	decfsz	(??_main^(0+128)+1),f
  1145  0CA6  2CA3               	goto	u3847
  1146  0CA7  2CA8               	nop2
  1147                           
  1148                           ;main.c: 273:                 servo4 = read_EEPROM(8);
  1149  0CA8  3008               	movlw	8
  1150  0CA9  160A  118A  27DE  120A  158A  	fcall	_read_EEPROM
  1151  0CAE  1683               	bsf	3,5	;RP0=1, select bank1
  1152  0CAF  1303               	bcf	3,6	;RP1=0, select bank1
  1153  0CB0  00CC               	movwf	??_main^(0+128)
  1154  0CB1  084C               	movf	??_main^(0+128),w
  1155  0CB2  00B5               	movwf	_servo4^(0+128)
  1156  0CB3                     l2715:
  1157                           
  1158                           ;main.c: 274:                 _delay((unsigned long)((250)*(500000/4000.0)));
  1159  0CB3  3029               	movlw	41
  1160  0CB4  1683               	bsf	3,5	;RP0=1, select bank1
  1161  0CB5  1303               	bcf	3,6	;RP1=0, select bank1
  1162  0CB6  00CD               	movwf	(??_main^(0+128)+1)
  1163  0CB7  3093               	movlw	147
  1164  0CB8  00CC               	movwf	??_main^(0+128)
  1165  0CB9                     u3857:
  1166  0CB9  0BCC               	decfsz	??_main^(0+128),f
  1167  0CBA  2CB9               	goto	u3857
  1168  0CBB  0BCD               	decfsz	(??_main^(0+128)+1),f
  1169  0CBC  2CB9               	goto	u3857
  1170  0CBD  2CBE               	nop2
  1171  0CBE                     l2717:
  1172                           
  1173                           ;main.c: 276:                 flag_r2 = 0;
  1174  0CBE  1683               	bsf	3,5	;RP0=1, select bank1
  1175  0CBF  1303               	bcf	3,6	;RP1=0, select bank1
  1176  0CC0  01A4               	clrf	_flag_r2^(0+128)
  1177  0CC1  01A5               	clrf	(_flag_r2+1)^(0+128)
  1178  0CC2  2D1C               	goto	l2745
  1179  0CC3                     l218:
  1180                           
  1181                           ;main.c: 278:         }
  1182  0CC3  2D1C               	goto	l2745
  1183  0CC4                     l2719:
  1184  0CC4  3002               	movlw	2
  1185  0CC5  062C               	xorwf	_modo^(0+128),w
  1186  0CC6  042D               	iorwf	(_modo+1)^(0+128),w
  1187  0CC7  1D03               	btfss	3,2
  1188  0CC8  2CCA               	goto	u3651
  1189  0CC9  2CCB               	goto	u3650
  1190  0CCA                     u3651:
  1191  0CCA  2D1C               	goto	l2745
  1192  0CCB                     u3650:
  1193  0CCB                     l2721:
  1194                           
  1195                           ;main.c: 280:             PORTD = 4;
  1196  0CCB  3004               	movlw	4
  1197  0CCC  1283               	bcf	3,5	;RP0=0, select bank0
  1198  0CCD  1303               	bcf	3,6	;RP1=0, select bank0
  1199  0CCE  0088               	movwf	8	;volatile
  1200                           
  1201                           ;main.c: 281:             if (valor_old != mensaje[6]){
  1202  0CCF  1683               	bsf	3,5	;RP0=1, select bank1
  1203  0CD0  1303               	bcf	3,6	;RP1=0, select bank1
  1204  0CD1  0854               	movf	(_mensaje^(0+128)+6),w
  1205  0CD2  062E               	xorwf	_valor_old^(0+128),w
  1206  0CD3  1903               	skipnz
  1207  0CD4  2CD6               	goto	u3661
  1208  0CD5  2CD7               	goto	u3660
  1209  0CD6                     u3661:
  1210  0CD6  2CE9               	goto	l2727
  1211  0CD7                     u3660:
  1212  0CD7                     l2723:
  1213                           
  1214                           ;main.c: 282:                if (PIR1bits.TXIF){
  1215  0CD7  1283               	bcf	3,5	;RP0=0, select bank0
  1216  0CD8  1303               	bcf	3,6	;RP1=0, select bank0
  1217  0CD9  1E0C               	btfss	12,4	;volatile
  1218  0CDA  2CDC               	goto	u3671
  1219  0CDB  2CDD               	goto	u3670
  1220  0CDC                     u3671:
  1221  0CDC  2CE3               	goto	l223
  1222  0CDD                     u3670:
  1223  0CDD                     l2725:
  1224                           
  1225                           ;main.c: 283:                         TXREG = mensaje[6];
  1226  0CDD  1683               	bsf	3,5	;RP0=1, select bank1
  1227  0CDE  1303               	bcf	3,6	;RP1=0, select bank1
  1228  0CDF  0854               	movf	(_mensaje^(0+128)+6),w
  1229  0CE0  1283               	bcf	3,5	;RP0=0, select bank0
  1230  0CE1  1303               	bcf	3,6	;RP1=0, select bank0
  1231  0CE2  0099               	movwf	25	;volatile
  1232  0CE3                     l223:	
  1233                           ;main.c: 284:                }
  1234                           
  1235                           
  1236                           ;main.c: 286:                 valor_old = mensaje[6];
  1237  0CE3  1683               	bsf	3,5	;RP0=1, select bank1
  1238  0CE4  1303               	bcf	3,6	;RP1=0, select bank1
  1239  0CE5  0854               	movf	(_mensaje^(0+128)+6),w
  1240  0CE6  00CC               	movwf	??_main^(0+128)
  1241  0CE7  084C               	movf	??_main^(0+128),w
  1242  0CE8  00AE               	movwf	_valor_old^(0+128)
  1243  0CE9                     l2727:
  1244                           
  1245                           ;main.c: 289:         flag_terminal = val_terminal & 0b01100000;
  1246  0CE9  0830               	movf	_val_terminal^(0+128),w
  1247  0CEA  3960               	andlw	96
  1248  0CEB  00CC               	movwf	??_main^(0+128)
  1249  0CEC  084C               	movf	??_main^(0+128),w
  1250  0CED  00AF               	movwf	_flag_terminal^(0+128)
  1251  0CEE                     l2729:
  1252                           
  1253                           ;main.c: 290:         if(flag_terminal == 0){
  1254  0CEE  082F               	movf	_flag_terminal^(0+128),w
  1255  0CEF  1D03               	btfss	3,2
  1256  0CF0  2CF2               	goto	u3681
  1257  0CF1  2CF3               	goto	u3680
  1258  0CF2                     u3681:
  1259  0CF2  2CF9               	goto	l2733
  1260  0CF3                     u3680:
  1261  0CF3                     l2731:
  1262                           
  1263                           ;main.c: 292:             servo1 = val_terminal & 0b00011111;
  1264  0CF3  0830               	movf	_val_terminal^(0+128),w
  1265  0CF4  391F               	andlw	31
  1266  0CF5  00CC               	movwf	??_main^(0+128)
  1267  0CF6  084C               	movf	??_main^(0+128),w
  1268  0CF7  00B8               	movwf	_servo1^(0+128)
  1269                           
  1270                           ;main.c: 293:         }
  1271  0CF8  2D1C               	goto	l2745
  1272  0CF9                     l2733:
  1273  0CF9  3020               	movlw	32
  1274  0CFA  062F               	xorwf	_flag_terminal^(0+128),w
  1275  0CFB  1D03               	btfss	3,2
  1276  0CFC  2CFE               	goto	u3691
  1277  0CFD  2CFF               	goto	u3690
  1278  0CFE                     u3691:
  1279  0CFE  2D05               	goto	l2737
  1280  0CFF                     u3690:
  1281  0CFF                     l2735:
  1282                           
  1283                           ;main.c: 296:             servo2 = val_terminal & 0b00011111;
  1284  0CFF  0830               	movf	_val_terminal^(0+128),w
  1285  0D00  391F               	andlw	31
  1286  0D01  00CC               	movwf	??_main^(0+128)
  1287  0D02  084C               	movf	??_main^(0+128),w
  1288  0D03  00B7               	movwf	_servo2^(0+128)
  1289                           
  1290                           ;main.c: 297:         }
  1291  0D04  2D1C               	goto	l2745
  1292  0D05                     l2737:
  1293  0D05  3040               	movlw	64
  1294  0D06  062F               	xorwf	_flag_terminal^(0+128),w
  1295  0D07  1D03               	btfss	3,2
  1296  0D08  2D0A               	goto	u3701
  1297  0D09  2D0B               	goto	u3700
  1298  0D0A                     u3701:
  1299  0D0A  2D11               	goto	l2741
  1300  0D0B                     u3700:
  1301  0D0B                     l2739:
  1302                           
  1303                           ;main.c: 300:             servo3 = val_terminal & 0b00011111;
  1304  0D0B  0830               	movf	_val_terminal^(0+128),w
  1305  0D0C  391F               	andlw	31
  1306  0D0D  00CC               	movwf	??_main^(0+128)
  1307  0D0E  084C               	movf	??_main^(0+128),w
  1308  0D0F  00B6               	movwf	_servo3^(0+128)
  1309                           
  1310                           ;main.c: 301:         }
  1311  0D10  2D1C               	goto	l2745
  1312  0D11                     l2741:
  1313  0D11  3060               	movlw	96
  1314  0D12  062F               	xorwf	_flag_terminal^(0+128),w
  1315  0D13  1D03               	btfss	3,2
  1316  0D14  2D16               	goto	u3711
  1317  0D15  2D17               	goto	u3710
  1318  0D16                     u3711:
  1319  0D16  2CC3               	goto	l218
  1320  0D17                     u3710:
  1321  0D17                     l2743:
  1322                           
  1323                           ;main.c: 304:             servo4 = val_terminal & 0b00011111;
  1324  0D17  0830               	movf	_val_terminal^(0+128),w
  1325  0D18  391F               	andlw	31
  1326  0D19  00CC               	movwf	??_main^(0+128)
  1327  0D1A  084C               	movf	??_main^(0+128),w
  1328  0D1B  00B5               	movwf	_servo4^(0+128)
  1329  0D1C                     l2745:
  1330                           
  1331                           ;main.c: 307:         if(ADCON0bits.GO == 0){
  1332  0D1C  1283               	bcf	3,5	;RP0=0, select bank0
  1333  0D1D  1303               	bcf	3,6	;RP1=0, select bank0
  1334  0D1E  189F               	btfsc	31,1	;volatile
  1335  0D1F  2D21               	goto	u3721
  1336  0D20  2D22               	goto	u3720
  1337  0D21                     u3721:
  1338  0D21  2B54               	goto	l2663
  1339  0D22                     u3720:
  1340  0D22                     l2747:
  1341                           
  1342                           ;main.c: 308:                 if(ADCON0bits.CHS == 0)
  1343  0D22  0C1F               	rrf	31,w	;volatile
  1344  0D23  1683               	bsf	3,5	;RP0=1, select bank1
  1345  0D24  1303               	bcf	3,6	;RP1=0, select bank1
  1346  0D25  00CC               	movwf	??_main^(0+128)
  1347  0D26  0C4C               	rrf	??_main^(0+128),w
  1348  0D27  390F               	andlw	15
  1349  0D28  3A00               	xorlw	0
  1350  0D29  1D03               	skipz
  1351  0D2A  2D2C               	goto	u3731
  1352  0D2B  2D2D               	goto	u3730
  1353  0D2C                     u3731:
  1354  0D2C  2D34               	goto	l2751
  1355  0D2D                     u3730:
  1356  0D2D                     l2749:
  1357                           
  1358                           ;main.c: 309:                      ADCON0bits.CHS = 1;
  1359  0D2D  1283               	bcf	3,5	;RP0=0, select bank0
  1360  0D2E  1303               	bcf	3,6	;RP1=0, select bank0
  1361  0D2F  081F               	movf	31,w	;volatile
  1362  0D30  39C3               	andlw	-61
  1363  0D31  3804               	iorlw	4
  1364  0D32  009F               	movwf	31	;volatile
  1365  0D33  2D6E               	goto	l2763
  1366  0D34                     l2751:
  1367  0D34  1283               	bcf	3,5	;RP0=0, select bank0
  1368  0D35  1303               	bcf	3,6	;RP1=0, select bank0
  1369  0D36  0C1F               	rrf	31,w	;volatile
  1370  0D37  1683               	bsf	3,5	;RP0=1, select bank1
  1371  0D38  1303               	bcf	3,6	;RP1=0, select bank1
  1372  0D39  00CC               	movwf	??_main^(0+128)
  1373  0D3A  0C4C               	rrf	??_main^(0+128),w
  1374  0D3B  390F               	andlw	15
  1375  0D3C  3A01               	xorlw	1
  1376  0D3D  1D03               	skipz
  1377  0D3E  2D40               	goto	u3741
  1378  0D3F  2D41               	goto	u3740
  1379  0D40                     u3741:
  1380  0D40  2D48               	goto	l2755
  1381  0D41                     u3740:
  1382  0D41                     l2753:
  1383                           
  1384                           ;main.c: 311:                      ADCON0bits.CHS = 2;
  1385  0D41  1283               	bcf	3,5	;RP0=0, select bank0
  1386  0D42  1303               	bcf	3,6	;RP1=0, select bank0
  1387  0D43  081F               	movf	31,w	;volatile
  1388  0D44  39C3               	andlw	-61
  1389  0D45  3808               	iorlw	8
  1390  0D46  009F               	movwf	31	;volatile
  1391  0D47  2D6E               	goto	l2763
  1392  0D48                     l2755:
  1393  0D48  1283               	bcf	3,5	;RP0=0, select bank0
  1394  0D49  1303               	bcf	3,6	;RP1=0, select bank0
  1395  0D4A  0C1F               	rrf	31,w	;volatile
  1396  0D4B  1683               	bsf	3,5	;RP0=1, select bank1
  1397  0D4C  1303               	bcf	3,6	;RP1=0, select bank1
  1398  0D4D  00CC               	movwf	??_main^(0+128)
  1399  0D4E  0C4C               	rrf	??_main^(0+128),w
  1400  0D4F  390F               	andlw	15
  1401  0D50  3A02               	xorlw	2
  1402  0D51  1D03               	skipz
  1403  0D52  2D54               	goto	u3751
  1404  0D53  2D55               	goto	u3750
  1405  0D54                     u3751:
  1406  0D54  2D5C               	goto	l2759
  1407  0D55                     u3750:
  1408  0D55                     l2757:
  1409                           
  1410                           ;main.c: 313:                      ADCON0bits.CHS = 3;
  1411  0D55  1283               	bcf	3,5	;RP0=0, select bank0
  1412  0D56  1303               	bcf	3,6	;RP1=0, select bank0
  1413  0D57  081F               	movf	31,w	;volatile
  1414  0D58  39C3               	andlw	-61
  1415  0D59  380C               	iorlw	12
  1416  0D5A  009F               	movwf	31	;volatile
  1417  0D5B  2D6E               	goto	l2763
  1418  0D5C                     l2759:
  1419  0D5C  1283               	bcf	3,5	;RP0=0, select bank0
  1420  0D5D  1303               	bcf	3,6	;RP1=0, select bank0
  1421  0D5E  0C1F               	rrf	31,w	;volatile
  1422  0D5F  1683               	bsf	3,5	;RP0=1, select bank1
  1423  0D60  1303               	bcf	3,6	;RP1=0, select bank1
  1424  0D61  00CC               	movwf	??_main^(0+128)
  1425  0D62  0C4C               	rrf	??_main^(0+128),w
  1426  0D63  390F               	andlw	15
  1427  0D64  3A03               	xorlw	3
  1428  0D65  1D03               	skipz
  1429  0D66  2D68               	goto	u3761
  1430  0D67  2D69               	goto	u3760
  1431  0D68                     u3761:
  1432  0D68  2D6E               	goto	l235
  1433  0D69                     u3760:
  1434  0D69                     l2761:
  1435                           
  1436                           ;main.c: 315:                      ADCON0bits.CHS = 0;
  1437  0D69  30C3               	movlw	-61
  1438  0D6A  1283               	bcf	3,5	;RP0=0, select bank0
  1439  0D6B  1303               	bcf	3,6	;RP1=0, select bank0
  1440  0D6C  059F               	andwf	31,f	;volatile
  1441  0D6D  2D6E               	goto	l2763
  1442  0D6E                     l235:
  1443  0D6E                     l2763:
  1444                           
  1445                           ;main.c: 316:                 _delay((unsigned long)((40)*(500000/4000000.0)));
  1446  0D6E  2D6F               	nop2	;2 cycle nop
  1447  0D6F  2D70               	nop2	;2 cycle nop
  1448  0D70  0000               	nop
  1449  0D71                     l2765:
  1450                           
  1451                           ;main.c: 317:                 ADCON0bits.GO = 1;
  1452  0D71  1283               	bcf	3,5	;RP0=0, select bank0
  1453  0D72  1303               	bcf	3,6	;RP1=0, select bank0
  1454  0D73  149F               	bsf	31,1	;volatile
  1455  0D74  2B54               	goto	l2663
  1456  0D75  120A  118A  2810   	ljmp	start
  1457  0D78                     __end_of_main:
  1458                           
  1459                           	psect	text1
  1460  0860                     __ptext1:	
  1461 ;; *************** function _write_EEPROM *****************
  1462 ;; Defined at:
  1463 ;;		line 350 in file "main.c"
  1464 ;; Parameters:    Size  Location     Type
  1465 ;;  address         1    wreg     unsigned char 
  1466 ;;  data            1   17[BANK1 ] unsigned char 
  1467 ;; Auto vars:     Size  Location     Type
  1468 ;;  address         1   18[BANK1 ] unsigned char 
  1469 ;; Return value:  Size  Location     Type
  1470 ;;                  1    wreg      void 
  1471 ;; Registers used:
  1472 ;;		wreg
  1473 ;; Tracked objects:
  1474 ;;		On entry : 0/0
  1475 ;;		On exit  : 0/0
  1476 ;;		Unchanged: 0/0
  1477 ;; Data sizes:     COMMON   BANK0   BANK1   BANK3   BANK2
  1478 ;;      Params:         0       0       1       0       0
  1479 ;;      Locals:         0       0       1       0       0
  1480 ;;      Temps:          0       0       0       0       0
  1481 ;;      Totals:         0       0       2       0       0
  1482 ;;Total ram usage:        2 bytes
  1483 ;; Hardware stack levels used: 1
  1484 ;; Hardware stack levels required when called: 4
  1485 ;; This function calls:
  1486 ;;		Nothing
  1487 ;; This function is called by:
  1488 ;;		_main
  1489 ;; This function uses a non-reentrant model
  1490 ;;
  1491                           
  1492  0860                     _write_EEPROM:	
  1493                           ;psect for function _write_EEPROM
  1494                           
  1495                           
  1496                           ;incstack = 0
  1497                           ; Regs used in _write_EEPROM: [wreg]
  1498                           ;write_EEPROM@address stored from wreg
  1499  0860  1683               	bsf	3,5	;RP0=1, select bank1
  1500  0861  1303               	bcf	3,6	;RP1=0, select bank1
  1501  0862  00CB               	movwf	write_EEPROM@address^(0+128)
  1502  0863                     l2525:
  1503                           
  1504                           ;main.c: 351:     EEADR = address;
  1505  0863  084B               	movf	write_EEPROM@address^(0+128),w
  1506  0864  1283               	bcf	3,5	;RP0=0, select bank2
  1507  0865  1703               	bsf	3,6	;RP1=1, select bank2
  1508  0866  008D               	movwf	13	;volatile
  1509                           
  1510                           ;main.c: 352:     EEDAT = data;
  1511  0867  1683               	bsf	3,5	;RP0=1, select bank1
  1512  0868  1303               	bcf	3,6	;RP1=0, select bank1
  1513  0869  084A               	movf	write_EEPROM@data^(0+128),w
  1514  086A  1283               	bcf	3,5	;RP0=0, select bank2
  1515  086B  1703               	bsf	3,6	;RP1=1, select bank2
  1516  086C  008C               	movwf	12	;volatile
  1517  086D                     l2527:
  1518                           
  1519                           ;main.c: 354:     EECON1bits.EEPGD = 0;
  1520  086D  1683               	bsf	3,5	;RP0=1, select bank3
  1521  086E  1703               	bsf	3,6	;RP1=1, select bank3
  1522  086F  138C               	bcf	12,7	;volsfr
  1523  0870                     l2529:
  1524                           
  1525                           ;main.c: 355:     EECON1bits.WREN = 1;
  1526  0870  150C               	bsf	12,2	;volsfr
  1527  0871                     l2531:
  1528                           
  1529                           ;main.c: 357:     INTCONbits.GIE = 0;
  1530  0871  138B               	bcf	11,7	;volatile
  1531                           
  1532                           ;main.c: 360:     EECON2 = 0x55;
  1533  0872  3055               	movlw	85
  1534  0873  008D               	movwf	13	;volsfr
  1535                           
  1536                           ;main.c: 361:     EECON2 = 0xAA;
  1537  0874  30AA               	movlw	170
  1538  0875  008D               	movwf	13	;volsfr
  1539  0876                     l2533:
  1540                           
  1541                           ;main.c: 363:     EECON1bits.WR = 1;
  1542  0876  148C               	bsf	12,1	;volsfr
  1543  0877                     l250:	
  1544                           ;main.c: 365:     while(!PIR2bits.EEIF);
  1545                           
  1546  0877  1283               	bcf	3,5	;RP0=0, select bank0
  1547  0878  1303               	bcf	3,6	;RP1=0, select bank0
  1548  0879  1E0D               	btfss	13,4	;volatile
  1549  087A  287C               	goto	u3291
  1550  087B  287D               	goto	u3290
  1551  087C                     u3291:
  1552  087C  2877               	goto	l250
  1553  087D                     u3290:
  1554  087D                     l252:
  1555                           
  1556                           ;main.c: 367:     PIR2bits.EEIF = 0;
  1557  087D  120D               	bcf	13,4	;volatile
  1558                           
  1559                           ;main.c: 368:     EECON1bits.WREN = 0;
  1560  087E  1683               	bsf	3,5	;RP0=1, select bank3
  1561  087F  1703               	bsf	3,6	;RP1=1, select bank3
  1562  0880  110C               	bcf	12,2	;volsfr
  1563                           
  1564                           ;main.c: 369:     INTCONbits.RBIF = 0;
  1565  0881  100B               	bcf	11,0	;volatile
  1566                           
  1567                           ;main.c: 370:     PIR1bits.ADIF = 0;
  1568  0882  1283               	bcf	3,5	;RP0=0, select bank0
  1569  0883  1303               	bcf	3,6	;RP1=0, select bank0
  1570  0884  130C               	bcf	12,6	;volatile
  1571                           
  1572                           ;main.c: 371:     INTCONbits.GIE = 1;
  1573  0885  178B               	bsf	11,7	;volatile
  1574  0886                     l253:	
  1575                           ;main.c: 373:     return;
  1576                           
  1577  0886  0008               	return
  1578  0887                     __end_of_write_EEPROM:
  1579                           
  1580                           	psect	text2
  1581  0887                     __ptext2:	
  1582 ;; *************** function _setup *****************
  1583 ;; Defined at:
  1584 ;;		line 379 in file "main.c"
  1585 ;; Parameters:    Size  Location     Type
  1586 ;;		None
  1587 ;; Auto vars:     Size  Location     Type
  1588 ;;		None
  1589 ;; Return value:  Size  Location     Type
  1590 ;;                  1    wreg      void 
  1591 ;; Registers used:
  1592 ;;		wreg, status,2, status,0, pclath, cstack
  1593 ;; Tracked objects:
  1594 ;;		On entry : 0/0
  1595 ;;		On exit  : 0/0
  1596 ;;		Unchanged: 0/0
  1597 ;; Data sizes:     COMMON   BANK0   BANK1   BANK3   BANK2
  1598 ;;      Params:         0       0       0       0       0
  1599 ;;      Locals:         0       0       0       0       0
  1600 ;;      Temps:          0       0       0       0       0
  1601 ;;      Totals:         0       0       0       0       0
  1602 ;;Total ram usage:        0 bytes
  1603 ;; Hardware stack levels used: 1
  1604 ;; Hardware stack levels required when called: 5
  1605 ;; This function calls:
  1606 ;;		_set_ADC
  1607 ;;		_set_PWM
  1608 ;;		_set_SPI
  1609 ;;		_set_UART
  1610 ;; This function is called by:
  1611 ;;		_main
  1612 ;; This function uses a non-reentrant model
  1613 ;;
  1614                           
  1615  0887                     _setup:	
  1616                           ;psect for function _setup
  1617                           
  1618  0887                     l2467:	
  1619                           ;incstack = 0
  1620                           ; Regs used in _setup: [wreg+status,2+status,0+pclath+cstack]
  1621                           
  1622                           
  1623                           ;main.c: 381:     ANSEL = 0b00001111;
  1624  0887  300F               	movlw	15
  1625  0888  1683               	bsf	3,5	;RP0=1, select bank3
  1626  0889  1703               	bsf	3,6	;RP1=1, select bank3
  1627  088A  0088               	movwf	8	;volatile
  1628  088B                     l2469:
  1629                           
  1630                           ;main.c: 382:     ANSELH = 0;
  1631  088B  0189               	clrf	9	;volatile
  1632  088C                     l2471:
  1633                           
  1634                           ;main.c: 384:     TRISA = 0b00001111;
  1635  088C  300F               	movlw	15
  1636  088D  1683               	bsf	3,5	;RP0=1, select bank1
  1637  088E  1303               	bcf	3,6	;RP1=0, select bank1
  1638  088F  0085               	movwf	5	;volatile
  1639                           
  1640                           ;main.c: 385:     PORTA = 0;
  1641  0890  1283               	bcf	3,5	;RP0=0, select bank0
  1642  0891  1303               	bcf	3,6	;RP1=0, select bank0
  1643  0892  0185               	clrf	5	;volatile
  1644                           
  1645                           ;main.c: 387:     TRISD = 0;
  1646  0893  1683               	bsf	3,5	;RP0=1, select bank1
  1647  0894  1303               	bcf	3,6	;RP1=0, select bank1
  1648  0895  0188               	clrf	8	;volatile
  1649                           
  1650                           ;main.c: 388:     PORTD = 0;
  1651  0896  1283               	bcf	3,5	;RP0=0, select bank0
  1652  0897  1303               	bcf	3,6	;RP1=0, select bank0
  1653  0898  0188               	clrf	8	;volatile
  1654  0899                     l2473:
  1655                           
  1656                           ;main.c: 391:     OSCCONbits.IRCF = 0b011;
  1657  0899  1683               	bsf	3,5	;RP0=1, select bank1
  1658  089A  1303               	bcf	3,6	;RP1=0, select bank1
  1659  089B  080F               	movf	15,w	;volatile
  1660  089C  398F               	andlw	-113
  1661  089D  3830               	iorlw	48
  1662  089E  008F               	movwf	15	;volatile
  1663  089F                     l2475:
  1664                           
  1665                           ;main.c: 392:     OSCCONbits.SCS = 1;
  1666  089F  140F               	bsf	15,0	;volatile
  1667  08A0                     l2477:
  1668                           
  1669                           ;main.c: 394:     set_ADC();
  1670  08A0  120A  158A  201F  120A  158A  	fcall	_set_ADC
  1671  08A5                     l2479:
  1672                           
  1673                           ;main.c: 395:     set_PWM();
  1674  08A5  120A  118A  27BC  120A  158A  	fcall	_set_PWM
  1675  08AA                     l2481:
  1676                           
  1677                           ;main.c: 396:     set_SPI();
  1678  08AA  160A  118A  27ED  120A  158A  	fcall	_set_SPI
  1679  08AF                     l2483:
  1680                           
  1681                           ;main.c: 397:     set_UART();
  1682  08AF  120A  158A  2007  120A  158A  	fcall	_set_UART
  1683  08B4                     l2485:
  1684                           
  1685                           ;main.c: 400:     TRISBbits.TRISB0 = 1;
  1686  08B4  1683               	bsf	3,5	;RP0=1, select bank1
  1687  08B5  1303               	bcf	3,6	;RP1=0, select bank1
  1688  08B6  1406               	bsf	6,0	;volatile
  1689  08B7                     l2487:
  1690                           
  1691                           ;main.c: 401:     TRISBbits.TRISB1 = 1;
  1692  08B7  1486               	bsf	6,1	;volatile
  1693  08B8                     l2489:
  1694                           
  1695                           ;main.c: 402:     TRISBbits.TRISB2 = 1;
  1696  08B8  1506               	bsf	6,2	;volatile
  1697  08B9                     l2491:
  1698                           
  1699                           ;main.c: 403:     PORTB = 0;
  1700  08B9  1283               	bcf	3,5	;RP0=0, select bank0
  1701  08BA  1303               	bcf	3,6	;RP1=0, select bank0
  1702  08BB  0186               	clrf	6	;volatile
  1703  08BC                     l2493:
  1704                           
  1705                           ;main.c: 404:     OPTION_REGbits.nRBPU = 0;
  1706  08BC  1683               	bsf	3,5	;RP0=1, select bank1
  1707  08BD  1303               	bcf	3,6	;RP1=0, select bank1
  1708  08BE  1381               	bcf	1,7	;volatile
  1709  08BF                     l2495:
  1710                           
  1711                           ;main.c: 405:     WPUBbits.WPUB0 = 1;
  1712  08BF  1415               	bsf	21,0	;volatile
  1713  08C0                     l2497:
  1714                           
  1715                           ;main.c: 406:     WPUBbits.WPUB1 = 1;
  1716  08C0  1495               	bsf	21,1	;volatile
  1717  08C1                     l2499:
  1718                           
  1719                           ;main.c: 407:     WPUBbits.WPUB2 = 1;
  1720  08C1  1515               	bsf	21,2	;volatile
  1721  08C2                     l2501:
  1722                           
  1723                           ;main.c: 410:     INTCONbits.GIE = 1;
  1724  08C2  178B               	bsf	11,7	;volatile
  1725  08C3                     l2503:
  1726                           
  1727                           ;main.c: 411:     PIR2bits.EEIF = 0;
  1728  08C3  1283               	bcf	3,5	;RP0=0, select bank0
  1729  08C4  1303               	bcf	3,6	;RP1=0, select bank0
  1730  08C5  120D               	bcf	13,4	;volatile
  1731  08C6                     l2505:
  1732                           
  1733                           ;main.c: 412:     PIE1bits.ADIE = 1;
  1734  08C6  1683               	bsf	3,5	;RP0=1, select bank1
  1735  08C7  1303               	bcf	3,6	;RP1=0, select bank1
  1736  08C8  170C               	bsf	12,6	;volatile
  1737  08C9                     l2507:
  1738                           
  1739                           ;main.c: 413:     PIR1bits.ADIF = 0;
  1740  08C9  1283               	bcf	3,5	;RP0=0, select bank0
  1741  08CA  1303               	bcf	3,6	;RP1=0, select bank0
  1742  08CB  130C               	bcf	12,6	;volatile
  1743  08CC                     l2509:
  1744                           
  1745                           ;main.c: 414:     INTCONbits.RBIE = 1;
  1746  08CC  158B               	bsf	11,3	;volatile
  1747  08CD                     l2511:
  1748                           
  1749                           ;main.c: 415:     IOCBbits.IOCB0 = 1;
  1750  08CD  1683               	bsf	3,5	;RP0=1, select bank1
  1751  08CE  1303               	bcf	3,6	;RP1=0, select bank1
  1752  08CF  1416               	bsf	22,0	;volatile
  1753  08D0                     l2513:
  1754                           
  1755                           ;main.c: 416:     IOCBbits.IOCB1 = 1;
  1756  08D0  1496               	bsf	22,1	;volatile
  1757  08D1                     l2515:
  1758                           
  1759                           ;main.c: 417:     IOCBbits.IOCB2 = 1;
  1760  08D1  1516               	bsf	22,2	;volatile
  1761  08D2                     l2517:
  1762                           
  1763                           ;main.c: 418:     INTCONbits.RBIF = 0;
  1764  08D2  100B               	bcf	11,0	;volatile
  1765  08D3                     l2519:
  1766                           
  1767                           ;main.c: 419:     PIE1bits.RCIE = 1;
  1768  08D3  168C               	bsf	12,5	;volatile
  1769  08D4                     l2521:
  1770                           
  1771                           ;main.c: 420:     INTCONbits.PEIE = 1;
  1772  08D4  170B               	bsf	11,6	;volatile
  1773  08D5                     l256:
  1774  08D5  0008               	return
  1775  08D6                     __end_of_setup:
  1776                           
  1777                           	psect	text3
  1778  0807                     __ptext3:	
  1779 ;; *************** function _set_UART *****************
  1780 ;; Defined at:
  1781 ;;		line 474 in file "main.c"
  1782 ;; Parameters:    Size  Location     Type
  1783 ;;		None
  1784 ;; Auto vars:     Size  Location     Type
  1785 ;;		None
  1786 ;; Return value:  Size  Location     Type
  1787 ;;                  1    wreg      void 
  1788 ;; Registers used:
  1789 ;;		wreg, status,2
  1790 ;; Tracked objects:
  1791 ;;		On entry : 0/0
  1792 ;;		On exit  : 0/0
  1793 ;;		Unchanged: 0/0
  1794 ;; Data sizes:     COMMON   BANK0   BANK1   BANK3   BANK2
  1795 ;;      Params:         0       0       0       0       0
  1796 ;;      Locals:         0       0       0       0       0
  1797 ;;      Temps:          0       0       0       0       0
  1798 ;;      Totals:         0       0       0       0       0
  1799 ;;Total ram usage:        0 bytes
  1800 ;; Hardware stack levels used: 1
  1801 ;; Hardware stack levels required when called: 4
  1802 ;; This function calls:
  1803 ;;		Nothing
  1804 ;; This function is called by:
  1805 ;;		_setup
  1806 ;; This function uses a non-reentrant model
  1807 ;;
  1808                           
  1809  0807                     _set_UART:	
  1810                           ;psect for function _set_UART
  1811                           
  1812  0807                     l1889:	
  1813                           ;incstack = 0
  1814                           ; Regs used in _set_UART: [wreg+status,2]
  1815                           
  1816                           
  1817                           ;main.c: 477:     TXSTAbits.SYNC = 0;
  1818  0807  1683               	bsf	3,5	;RP0=1, select bank1
  1819  0808  1303               	bcf	3,6	;RP1=0, select bank1
  1820  0809  1218               	bcf	24,4	;volatile
  1821                           
  1822                           ;main.c: 478:     TXSTAbits.BRGH = 1;
  1823  080A  1518               	bsf	24,2	;volatile
  1824                           
  1825                           ;main.c: 479:     BAUDCTLbits.BRG16 = 1;
  1826  080B  1683               	bsf	3,5	;RP0=1, select bank3
  1827  080C  1703               	bsf	3,6	;RP1=1, select bank3
  1828  080D  1587               	bsf	7,3	;volatile
  1829  080E                     l1891:
  1830                           
  1831                           ;main.c: 480:     SPBRGH = 0;
  1832  080E  1683               	bsf	3,5	;RP0=1, select bank1
  1833  080F  1303               	bcf	3,6	;RP1=0, select bank1
  1834  0810  019A               	clrf	26	;volatile
  1835  0811                     l1893:
  1836                           
  1837                           ;main.c: 481:     SPBRG = 12;
  1838  0811  300C               	movlw	12
  1839  0812  0099               	movwf	25	;volatile
  1840  0813                     l1895:
  1841                           
  1842                           ;main.c: 483:     RCSTAbits.SPEN = 1;
  1843  0813  1283               	bcf	3,5	;RP0=0, select bank0
  1844  0814  1303               	bcf	3,6	;RP1=0, select bank0
  1845  0815  1798               	bsf	24,7	;volatile
  1846  0816                     l1897:
  1847                           
  1848                           ;main.c: 486:     RCSTAbits.RX9 = 0;
  1849  0816  1318               	bcf	24,6	;volatile
  1850  0817                     l1899:
  1851                           
  1852                           ;main.c: 487:     TXSTAbits.TX9 = 0;
  1853  0817  1683               	bsf	3,5	;RP0=1, select bank1
  1854  0818  1303               	bcf	3,6	;RP1=0, select bank1
  1855  0819  1318               	bcf	24,6	;volatile
  1856  081A                     l1901:
  1857                           
  1858                           ;main.c: 489:     TXSTAbits.TXEN = 1;
  1859  081A  1698               	bsf	24,5	;volatile
  1860  081B                     l1903:
  1861                           
  1862                           ;main.c: 490:     RCSTAbits.CREN = 1;
  1863  081B  1283               	bcf	3,5	;RP0=0, select bank0
  1864  081C  1303               	bcf	3,6	;RP1=0, select bank0
  1865  081D  1618               	bsf	24,4	;volatile
  1866  081E                     l268:
  1867  081E  0008               	return
  1868  081F                     __end_of_set_UART:
  1869                           
  1870                           	psect	text4
  1871  17ED                     __ptext4:	
  1872 ;; *************** function _set_SPI *****************
  1873 ;; Defined at:
  1874 ;;		line 495 in file "main.c"
  1875 ;; Parameters:    Size  Location     Type
  1876 ;;		None
  1877 ;; Auto vars:     Size  Location     Type
  1878 ;;		None
  1879 ;; Return value:  Size  Location     Type
  1880 ;;                  1    wreg      void 
  1881 ;; Registers used:
  1882 ;;		wreg, status,2, status,0
  1883 ;; Tracked objects:
  1884 ;;		On entry : 0/0
  1885 ;;		On exit  : 0/0
  1886 ;;		Unchanged: 0/0
  1887 ;; Data sizes:     COMMON   BANK0   BANK1   BANK3   BANK2
  1888 ;;      Params:         0       0       0       0       0
  1889 ;;      Locals:         0       0       0       0       0
  1890 ;;      Temps:          0       0       0       0       0
  1891 ;;      Totals:         0       0       0       0       0
  1892 ;;Total ram usage:        0 bytes
  1893 ;; Hardware stack levels used: 1
  1894 ;; Hardware stack levels required when called: 4
  1895 ;; This function calls:
  1896 ;;		Nothing
  1897 ;; This function is called by:
  1898 ;;		_setup
  1899 ;; This function uses a non-reentrant model
  1900 ;;
  1901                           
  1902  17ED                     _set_SPI:	
  1903                           ;psect for function _set_SPI
  1904                           
  1905  17ED                     l1871:	
  1906                           ;incstack = 0
  1907                           ; Regs used in _set_SPI: [wreg+status,2+status,0]
  1908                           
  1909                           
  1910                           ;main.c: 499:     TRISC = 0b10010000;
  1911  17ED  3090               	movlw	144
  1912  17EE  1683               	bsf	3,5	;RP0=1, select bank1
  1913  17EF  1303               	bcf	3,6	;RP1=0, select bank1
  1914  17F0  0087               	movwf	7	;volatile
  1915  17F1                     l1873:
  1916                           
  1917                           ;main.c: 500:     PORTC = 0;
  1918  17F1  1283               	bcf	3,5	;RP0=0, select bank0
  1919  17F2  1303               	bcf	3,6	;RP1=0, select bank0
  1920  17F3  0187               	clrf	7	;volatile
  1921  17F4                     l1875:
  1922                           
  1923                           ;main.c: 503:     SSPCONbits.SSPM = 0b0000;
  1924  17F4  30F0               	movlw	-16
  1925  17F5  0594               	andwf	20,f	;volatile
  1926  17F6                     l1877:
  1927                           
  1928                           ;main.c: 504:     SSPCONbits.CKP = 0;
  1929  17F6  1214               	bcf	20,4	;volatile
  1930  17F7                     l1879:
  1931                           
  1932                           ;main.c: 505:     SSPCONbits.SSPEN = 1;
  1933  17F7  1694               	bsf	20,5	;volatile
  1934  17F8                     l1881:
  1935                           
  1936                           ;main.c: 507:     SSPSTATbits.CKE = 1;
  1937  17F8  1683               	bsf	3,5	;RP0=1, select bank1
  1938  17F9  1303               	bcf	3,6	;RP1=0, select bank1
  1939  17FA  1714               	bsf	20,6	;volatile
  1940  17FB                     l1883:
  1941                           
  1942                           ;main.c: 508:     SSPSTATbits.SMP = 1;
  1943  17FB  1794               	bsf	20,7	;volatile
  1944  17FC                     l1885:
  1945                           
  1946                           ;main.c: 509:     SSPBUF = 0;
  1947  17FC  1283               	bcf	3,5	;RP0=0, select bank0
  1948  17FD  1303               	bcf	3,6	;RP1=0, select bank0
  1949  17FE  0193               	clrf	19	;volatile
  1950  17FF                     l271:
  1951  17FF  0008               	return
  1952  1800                     __end_of_set_SPI:
  1953                           
  1954                           	psect	text5
  1955  07BC                     __ptext5:	
  1956 ;; *************** function _set_PWM *****************
  1957 ;; Defined at:
  1958 ;;		line 438 in file "main.c"
  1959 ;; Parameters:    Size  Location     Type
  1960 ;;		None
  1961 ;; Auto vars:     Size  Location     Type
  1962 ;;		None
  1963 ;; Return value:  Size  Location     Type
  1964 ;;                  1    wreg      void 
  1965 ;; Registers used:
  1966 ;;		wreg, status,2, status,0
  1967 ;; Tracked objects:
  1968 ;;		On entry : 0/0
  1969 ;;		On exit  : 0/0
  1970 ;;		Unchanged: 0/0
  1971 ;; Data sizes:     COMMON   BANK0   BANK1   BANK3   BANK2
  1972 ;;      Params:         0       0       0       0       0
  1973 ;;      Locals:         0       0       0       0       0
  1974 ;;      Temps:          0       0       0       0       0
  1975 ;;      Totals:         0       0       0       0       0
  1976 ;;Total ram usage:        0 bytes
  1977 ;; Hardware stack levels used: 1
  1978 ;; Hardware stack levels required when called: 4
  1979 ;; This function calls:
  1980 ;;		Nothing
  1981 ;; This function is called by:
  1982 ;;		_setup
  1983 ;; This function uses a non-reentrant model
  1984 ;;
  1985                           
  1986  07BC                     _set_PWM:	
  1987                           ;psect for function _set_PWM
  1988                           
  1989  07BC                     l1843:	
  1990                           ;incstack = 0
  1991                           ; Regs used in _set_PWM: [wreg+status,2+status,0]
  1992                           
  1993                           
  1994                           ;main.c: 440:     TRISCbits.TRISC2 = 1;
  1995  07BC  1683               	bsf	3,5	;RP0=1, select bank1
  1996  07BD  1303               	bcf	3,6	;RP1=0, select bank1
  1997  07BE  1507               	bsf	7,2	;volatile
  1998                           
  1999                           ;main.c: 441:     TRISCbits.TRISC1 = 1;
  2000  07BF  1487               	bsf	7,1	;volatile
  2001  07C0                     l1845:
  2002                           
  2003                           ;main.c: 442:     CCP1CON = 0;
  2004  07C0  1283               	bcf	3,5	;RP0=0, select bank0
  2005  07C1  1303               	bcf	3,6	;RP1=0, select bank0
  2006  07C2  0197               	clrf	23	;volatile
  2007                           
  2008                           ;main.c: 443:     CCP2CON = 0;
  2009  07C3  019D               	clrf	29	;volatile
  2010  07C4                     l1847:
  2011                           
  2012                           ;main.c: 444:     PR2 = 156;
  2013  07C4  309C               	movlw	156
  2014  07C5  1683               	bsf	3,5	;RP0=1, select bank1
  2015  07C6  1303               	bcf	3,6	;RP1=0, select bank1
  2016  07C7  0092               	movwf	18	;volatile
  2017  07C8                     l1849:
  2018                           
  2019                           ;main.c: 447:     CCP1CONbits.P1M = 0;
  2020  07C8  303F               	movlw	-193
  2021  07C9  1283               	bcf	3,5	;RP0=0, select bank0
  2022  07CA  1303               	bcf	3,6	;RP1=0, select bank0
  2023  07CB  0597               	andwf	23,f	;volatile
  2024  07CC                     l1851:
  2025                           
  2026                           ;main.c: 448:     CCP1CONbits.CCP1M = 0b1100;
  2027  07CC  0817               	movf	23,w	;volatile
  2028  07CD  39F0               	andlw	-16
  2029  07CE  380C               	iorlw	12
  2030  07CF  0097               	movwf	23	;volatile
  2031  07D0                     l1853:
  2032                           
  2033                           ;main.c: 449:     CCP2CONbits.CCP2M = 0b1100;
  2034  07D0  081D               	movf	29,w	;volatile
  2035  07D1  39F0               	andlw	-16
  2036  07D2  380C               	iorlw	12
  2037  07D3  009D               	movwf	29	;volatile
  2038  07D4                     l1855:
  2039                           
  2040                           ;main.c: 451:     CCPR1L = 47>>2;
  2041  07D4  300B               	movlw	11
  2042  07D5  0095               	movwf	21	;volatile
  2043  07D6                     l1857:
  2044                           
  2045                           ;main.c: 452:     CCP1CONbits.DC1B = 47 & 0b11;
  2046  07D6  3030               	movlw	48
  2047  07D7  0497               	iorwf	23,f	;volatile
  2048  07D8                     l1859:
  2049                           
  2050                           ;main.c: 455:     CCPR2L = 47>>2;
  2051  07D8  300B               	movlw	11
  2052  07D9  009B               	movwf	27	;volatile
  2053  07DA                     l1861:
  2054                           
  2055                           ;main.c: 458:     CCP2CONbits.DC2B0 = 47 & 1;
  2056  07DA  161D               	bsf	29,4	;volatile
  2057  07DB                     l1863:
  2058                           
  2059                           ;main.c: 459:     CCP2CONbits.DC2B1 = (47>> 1) & 1;
  2060  07DB  169D               	bsf	29,5	;volatile
  2061  07DC                     l1865:
  2062                           
  2063                           ;main.c: 462:     PIR1bits.TMR2IF = 0;
  2064  07DC  108C               	bcf	12,1	;volatile
  2065  07DD                     l1867:
  2066                           
  2067                           ;main.c: 463:     T2CONbits.T2CKPS = 0b11;
  2068  07DD  3003               	movlw	3
  2069  07DE  0492               	iorwf	18,f	;volatile
  2070  07DF                     l1869:
  2071                           
  2072                           ;main.c: 464:     T2CONbits.TMR2ON = 1;
  2073  07DF  1512               	bsf	18,2	;volatile
  2074  07E0                     l262:	
  2075                           ;main.c: 465:     while(!PIR1bits.TMR2IF);
  2076                           
  2077  07E0  1C8C               	btfss	12,1	;volatile
  2078  07E1  2FE3               	goto	u1921
  2079  07E2  2FE4               	goto	u1920
  2080  07E3                     u1921:
  2081  07E3  2FE0               	goto	l262
  2082  07E4                     u1920:
  2083  07E4                     l264:
  2084                           
  2085                           ;main.c: 466:     PIR1bits.TMR2IF = 0;
  2086  07E4  108C               	bcf	12,1	;volatile
  2087                           
  2088                           ;main.c: 468:     TRISCbits.TRISC2 = 0;
  2089  07E5  1683               	bsf	3,5	;RP0=1, select bank1
  2090  07E6  1303               	bcf	3,6	;RP1=0, select bank1
  2091  07E7  1107               	bcf	7,2	;volatile
  2092                           
  2093                           ;main.c: 469:     TRISCbits.TRISC1 = 0;
  2094  07E8  1087               	bcf	7,1	;volatile
  2095  07E9                     l265:	
  2096                           ;main.c: 471:     return;
  2097                           
  2098  07E9  0008               	return
  2099  07EA                     __end_of_set_PWM:
  2100                           
  2101                           	psect	text6
  2102  081F                     __ptext6:	
  2103 ;; *************** function _set_ADC *****************
  2104 ;; Defined at:
  2105 ;;		line 425 in file "main.c"
  2106 ;; Parameters:    Size  Location     Type
  2107 ;;		None
  2108 ;; Auto vars:     Size  Location     Type
  2109 ;;		None
  2110 ;; Return value:  Size  Location     Type
  2111 ;;                  1    wreg      void 
  2112 ;; Registers used:
  2113 ;;		wreg, status,2, status,0
  2114 ;; Tracked objects:
  2115 ;;		On entry : 0/0
  2116 ;;		On exit  : 0/0
  2117 ;;		Unchanged: 0/0
  2118 ;; Data sizes:     COMMON   BANK0   BANK1   BANK3   BANK2
  2119 ;;      Params:         0       0       0       0       0
  2120 ;;      Locals:         0       0       0       0       0
  2121 ;;      Temps:          0       0       1       0       0
  2122 ;;      Totals:         0       0       1       0       0
  2123 ;;Total ram usage:        1 bytes
  2124 ;; Hardware stack levels used: 1
  2125 ;; Hardware stack levels required when called: 4
  2126 ;; This function calls:
  2127 ;;		Nothing
  2128 ;; This function is called by:
  2129 ;;		_setup
  2130 ;; This function uses a non-reentrant model
  2131 ;;
  2132                           
  2133  081F                     _set_ADC:	
  2134                           ;psect for function _set_ADC
  2135                           
  2136  081F                     l1829:	
  2137                           ;incstack = 0
  2138                           ; Regs used in _set_ADC: [wreg+status,2+status,0]
  2139                           
  2140                           
  2141                           ;main.c: 427:     ADCON0bits.ADCS = 0b11;
  2142  081F  30C0               	movlw	192
  2143  0820  1283               	bcf	3,5	;RP0=0, select bank0
  2144  0821  1303               	bcf	3,6	;RP1=0, select bank0
  2145  0822  049F               	iorwf	31,f	;volatile
  2146  0823                     l1831:
  2147                           
  2148                           ;main.c: 428:     ADCON1bits.VCFG0 = 0;
  2149  0823  1683               	bsf	3,5	;RP0=1, select bank1
  2150  0824  1303               	bcf	3,6	;RP1=0, select bank1
  2151  0825  121F               	bcf	31,4	;volatile
  2152  0826                     l1833:
  2153                           
  2154                           ;main.c: 429:     ADCON1bits.VCFG1 = 0;
  2155  0826  129F               	bcf	31,5	;volatile
  2156                           
  2157                           ;main.c: 430:     ADCON0bits.CHS = 0;
  2158  0827  30C3               	movlw	-61
  2159  0828  1283               	bcf	3,5	;RP0=0, select bank0
  2160  0829  1303               	bcf	3,6	;RP1=0, select bank0
  2161  082A  059F               	andwf	31,f	;volatile
  2162  082B                     l1835:
  2163                           
  2164                           ;main.c: 431:     ADCON1bits.ADFM = 0;
  2165  082B  1683               	bsf	3,5	;RP0=1, select bank1
  2166  082C  1303               	bcf	3,6	;RP1=0, select bank1
  2167  082D  139F               	bcf	31,7	;volatile
  2168  082E                     l1837:
  2169                           
  2170                           ;main.c: 432:     ADCON0bits.ADON = 1;
  2171  082E  1283               	bcf	3,5	;RP0=0, select bank0
  2172  082F  1303               	bcf	3,6	;RP1=0, select bank0
  2173  0830  141F               	bsf	31,0	;volatile
  2174  0831                     l1839:
  2175                           
  2176                           ;main.c: 433:     _delay((unsigned long)((420)*(500000/4000000.0)));
  2177  0831  3010               	movlw	16
  2178  0832  1683               	bsf	3,5	;RP0=1, select bank1
  2179  0833  1303               	bcf	3,6	;RP1=0, select bank1
  2180  0834  00CA               	movwf	??_set_ADC^(0+128)
  2181  0835                     u3867:
  2182  0835  0BCA               	decfsz	??_set_ADC^(0+128),f
  2183  0836  2835               	goto	u3867
  2184  0837  0000               	nop
  2185  0838                     l259:
  2186  0838  0008               	return
  2187  0839                     __end_of_set_ADC:
  2188                           
  2189                           	psect	text7
  2190  17DE                     __ptext7:	
  2191 ;; *************** function _read_EEPROM *****************
  2192 ;; Defined at:
  2193 ;;		line 343 in file "main.c"
  2194 ;; Parameters:    Size  Location     Type
  2195 ;;  address         1    wreg     unsigned char 
  2196 ;; Auto vars:     Size  Location     Type
  2197 ;;  address         1   17[BANK1 ] unsigned char 
  2198 ;; Return value:  Size  Location     Type
  2199 ;;                  1    wreg      unsigned char 
  2200 ;; Registers used:
  2201 ;;		wreg
  2202 ;; Tracked objects:
  2203 ;;		On entry : 0/0
  2204 ;;		On exit  : 0/0
  2205 ;;		Unchanged: 0/0
  2206 ;; Data sizes:     COMMON   BANK0   BANK1   BANK3   BANK2
  2207 ;;      Params:         0       0       0       0       0
  2208 ;;      Locals:         0       0       1       0       0
  2209 ;;      Temps:          0       0       0       0       0
  2210 ;;      Totals:         0       0       1       0       0
  2211 ;;Total ram usage:        1 bytes
  2212 ;; Hardware stack levels used: 1
  2213 ;; Hardware stack levels required when called: 4
  2214 ;; This function calls:
  2215 ;;		Nothing
  2216 ;; This function is called by:
  2217 ;;		_main
  2218 ;; This function uses a non-reentrant model
  2219 ;;
  2220                           
  2221  17DE                     _read_EEPROM:	
  2222                           ;psect for function _read_EEPROM
  2223                           
  2224                           
  2225                           ;incstack = 0
  2226                           ; Regs used in _read_EEPROM: [wreg]
  2227                           ;read_EEPROM@address stored from wreg
  2228  17DE  1683               	bsf	3,5	;RP0=1, select bank1
  2229  17DF  1303               	bcf	3,6	;RP1=0, select bank1
  2230  17E0  00CA               	movwf	read_EEPROM@address^(0+128)
  2231  17E1                     l2535:
  2232                           
  2233                           ;main.c: 344:     EEADR = address;
  2234  17E1  084A               	movf	read_EEPROM@address^(0+128),w
  2235  17E2  1283               	bcf	3,5	;RP0=0, select bank2
  2236  17E3  1703               	bsf	3,6	;RP1=1, select bank2
  2237  17E4  008D               	movwf	13	;volatile
  2238  17E5                     l2537:
  2239                           
  2240                           ;main.c: 345:     EECON1bits.EEPGD = 0;
  2241  17E5  1683               	bsf	3,5	;RP0=1, select bank3
  2242  17E6  1703               	bsf	3,6	;RP1=1, select bank3
  2243  17E7  138C               	bcf	12,7	;volsfr
  2244  17E8                     l2539:
  2245                           
  2246                           ;main.c: 346:     EECON1bits.RD = 1;
  2247  17E8  140C               	bsf	12,0	;volsfr
  2248  17E9                     l2541:
  2249                           
  2250                           ;main.c: 347:     _delay((unsigned long)((1)*(500000/4000000.0)));
  2251                           ;main.c: 348:     return EEDAT;
  2252  17E9  1283               	bcf	3,5	;RP0=0, select bank2
  2253  17EA  1703               	bsf	3,6	;RP1=1, select bank2
  2254  17EB  080C               	movf	12,w	;volatile
  2255  17EC                     l247:
  2256  17EC  0008               	return
  2257  17ED                     __end_of_read_EEPROM:
  2258                           
  2259                           	psect	text8
  2260  038F                     __ptext8:	
  2261 ;; *************** function _isr *****************
  2262 ;; Defined at:
  2263 ;;		line 101 in file "main.c"
  2264 ;; Parameters:    Size  Location     Type
  2265 ;;		None
  2266 ;; Auto vars:     Size  Location     Type
  2267 ;;		None
  2268 ;; Return value:  Size  Location     Type
  2269 ;;                  1    wreg      void 
  2270 ;; Registers used:
  2271 ;;		wreg, status,2, status,0, btemp+1, pclath, cstack
  2272 ;; Tracked objects:
  2273 ;;		On entry : 0/0
  2274 ;;		On exit  : 0/0
  2275 ;;		Unchanged: 0/0
  2276 ;; Data sizes:     COMMON   BANK0   BANK1   BANK3   BANK2
  2277 ;;      Params:         0       0       0       0       0
  2278 ;;      Locals:         0       0       0       0       0
  2279 ;;      Temps:          0       0       6       0       0
  2280 ;;      Totals:         0       0       6       0       0
  2281 ;;Total ram usage:        6 bytes
  2282 ;; Hardware stack levels used: 1
  2283 ;; Hardware stack levels required when called: 3
  2284 ;; This function calls:
  2285 ;;		_map
  2286 ;; This function is called by:
  2287 ;;		Interrupt level 1
  2288 ;; This function uses a non-reentrant model
  2289 ;;
  2290                           
  2291  038F                     _isr:	
  2292                           ;psect for function _isr
  2293                           
  2294  038F                     i1l2545:
  2295                           
  2296                           ;main.c: 103:     if(PIR1bits.RCIF){
  2297  038F  1283               	bcf	3,5	;RP0=0, select bank0
  2298  0390  1303               	bcf	3,6	;RP1=0, select bank0
  2299  0391  1E8C               	btfss	12,5	;volatile
  2300  0392  2B94               	goto	u330_21
  2301  0393  2B95               	goto	u330_20
  2302  0394                     u330_21:
  2303  0394  2BA3               	goto	i1l2549
  2304  0395                     u330_20:
  2305  0395                     i1l2547:
  2306                           
  2307                           ;main.c: 104:         mensaje[6] = RCREG;
  2308  0395  081A               	movf	26,w	;volatile
  2309  0396  1683               	bsf	3,5	;RP0=1, select bank1
  2310  0397  1303               	bcf	3,6	;RP1=0, select bank1
  2311  0398  00C4               	movwf	??_isr^(0+128)
  2312  0399  0844               	movf	??_isr^(0+128),w
  2313  039A  00D4               	movwf	(_mensaje^(0+128)+6)
  2314                           
  2315                           ;main.c: 105:         val_terminal = RCREG;
  2316  039B  1283               	bcf	3,5	;RP0=0, select bank0
  2317  039C  1303               	bcf	3,6	;RP1=0, select bank0
  2318  039D  081A               	movf	26,w	;volatile
  2319  039E  1683               	bsf	3,5	;RP0=1, select bank1
  2320  039F  1303               	bcf	3,6	;RP1=0, select bank1
  2321  03A0  00C4               	movwf	??_isr^(0+128)
  2322  03A1  0844               	movf	??_isr^(0+128),w
  2323  03A2  00B0               	movwf	_val_terminal^(0+128)
  2324  03A3                     i1l2549:
  2325                           
  2326                           ;main.c: 108:     if (PIR1bits.ADIF){
  2327  03A3  1283               	bcf	3,5	;RP0=0, select bank0
  2328  03A4  1F0C               	btfss	12,6	;volatile
  2329  03A5  2BA7               	goto	u331_21
  2330  03A6  2BA8               	goto	u331_20
  2331  03A7                     u331_21:
  2332  03A7  2DEB               	goto	i1l2631
  2333  03A8                     u331_20:
  2334  03A8                     i1l2551:
  2335                           
  2336                           ;main.c: 109:         if (ADCON0bits.CHS == 0){
  2337  03A8  0C1F               	rrf	31,w	;volatile
  2338  03A9  1683               	bsf	3,5	;RP0=1, select bank1
  2339  03AA  1303               	bcf	3,6	;RP1=0, select bank1
  2340  03AB  00C4               	movwf	??_isr^(0+128)
  2341  03AC  0C44               	rrf	??_isr^(0+128),w
  2342  03AD  390F               	andlw	15
  2343  03AE  3A00               	xorlw	0
  2344  03AF  1D03               	skipz
  2345  03B0  2BB2               	goto	u332_21
  2346  03B1  2BB3               	goto	u332_20
  2347  03B2                     u332_21:
  2348  03B2  2C54               	goto	i1l2573
  2349  03B3                     u332_20:
  2350  03B3                     i1l2553:
  2351                           
  2352                           ;main.c: 110:             if(modo == 0){
  2353  03B3  082C               	movf	_modo^(0+128),w
  2354  03B4  042D               	iorwf	(_modo+1)^(0+128),w
  2355  03B5  1D03               	btfss	3,2
  2356  03B6  2BB8               	goto	u333_21
  2357  03B7  2BB9               	goto	u333_20
  2358  03B8                     u333_21:
  2359  03B8  2BDB               	goto	i1l2559
  2360  03B9                     u333_20:
  2361  03B9                     i1l2555:
  2362                           
  2363                           ;main.c: 111:                 servo1 = ADRESH;
  2364  03B9  1283               	bcf	3,5	;RP0=0, select bank0
  2365  03BA  1303               	bcf	3,6	;RP1=0, select bank0
  2366  03BB  081E               	movf	30,w	;volatile
  2367  03BC  1683               	bsf	3,5	;RP0=1, select bank1
  2368  03BD  1303               	bcf	3,6	;RP1=0, select bank1
  2369  03BE  00C4               	movwf	??_isr^(0+128)
  2370  03BF  0844               	movf	??_isr^(0+128),w
  2371  03C0  00B8               	movwf	_servo1^(0+128)
  2372  03C1                     i1l2557:
  2373                           
  2374                           ;main.c: 113:                 CCPR_S1 = map(servo1, 0, 255, 15, 75);
  2375  03C1  01BE               	clrf	map@x0^(0+128)
  2376  03C2  30FF               	movlw	255
  2377  03C3  00C4               	movwf	??_isr^(0+128)
  2378  03C4  0844               	movf	??_isr^(0+128),w
  2379  03C5  00BF               	movwf	map@x1^(0+128)
  2380  03C6  300F               	movlw	15
  2381  03C7  00C0               	movwf	map@y0^(0+128)
  2382  03C8  3000               	movlw	0
  2383  03C9  00C1               	movwf	(map@y0^(0+128)+1)
  2384  03CA  304B               	movlw	75
  2385  03CB  00C2               	movwf	map@y1^(0+128)
  2386  03CC  3000               	movlw	0
  2387  03CD  00C3               	movwf	(map@y1^(0+128)+1)
  2388  03CE  0838               	movf	_servo1^(0+128),w
  2389  03CF  120A  118A  270A  120A  118A  	fcall	_map
  2390  03D4  1683               	bsf	3,5	;RP0=1, select bank1
  2391  03D5  1303               	bcf	3,6	;RP1=0, select bank1
  2392  03D6  083F               	movf	(?_map+1)^(0+128),w
  2393  03D7  00A3               	movwf	(_CCPR_S1+1)^(0+128)
  2394  03D8  083E               	movf	?_map^(0+128),w
  2395  03D9  00A2               	movwf	_CCPR_S1^(0+128)
  2396                           
  2397                           ;main.c: 114:             }
  2398  03DA  2C1B               	goto	i1l2567
  2399  03DB                     i1l2559:
  2400  03DB  032C               	decf	_modo^(0+128),w
  2401  03DC  042D               	iorwf	(_modo+1)^(0+128),w
  2402  03DD  1D03               	btfss	3,2
  2403  03DE  2BE0               	goto	u334_21
  2404  03DF  2BE1               	goto	u334_20
  2405  03E0                     u334_21:
  2406  03E0  2BFB               	goto	i1l2563
  2407  03E1                     u334_20:
  2408  03E1                     i1l2561:
  2409                           
  2410                           ;main.c: 117:                 CCPR_S1 = map(servo1, 0, 255, 15, 75);
  2411  03E1  01BE               	clrf	map@x0^(0+128)
  2412  03E2  30FF               	movlw	255
  2413  03E3  00C4               	movwf	??_isr^(0+128)
  2414  03E4  0844               	movf	??_isr^(0+128),w
  2415  03E5  00BF               	movwf	map@x1^(0+128)
  2416  03E6  300F               	movlw	15
  2417  03E7  00C0               	movwf	map@y0^(0+128)
  2418  03E8  3000               	movlw	0
  2419  03E9  00C1               	movwf	(map@y0^(0+128)+1)
  2420  03EA  304B               	movlw	75
  2421  03EB  00C2               	movwf	map@y1^(0+128)
  2422  03EC  3000               	movlw	0
  2423  03ED  00C3               	movwf	(map@y1^(0+128)+1)
  2424  03EE  0838               	movf	_servo1^(0+128),w
  2425  03EF  120A  118A  270A  120A  118A  	fcall	_map
  2426  03F4  1683               	bsf	3,5	;RP0=1, select bank1
  2427  03F5  1303               	bcf	3,6	;RP1=0, select bank1
  2428  03F6  083F               	movf	(?_map+1)^(0+128),w
  2429  03F7  00A3               	movwf	(_CCPR_S1+1)^(0+128)
  2430  03F8  083E               	movf	?_map^(0+128),w
  2431  03F9  00A2               	movwf	_CCPR_S1^(0+128)
  2432                           
  2433                           ;main.c: 118:             }
  2434  03FA  2C1B               	goto	i1l2567
  2435  03FB                     i1l2563:
  2436  03FB  3002               	movlw	2
  2437  03FC  062C               	xorwf	_modo^(0+128),w
  2438  03FD  042D               	iorwf	(_modo+1)^(0+128),w
  2439  03FE  1D03               	btfss	3,2
  2440  03FF  2C01               	goto	u335_21
  2441  0400  2C02               	goto	u335_20
  2442  0401                     u335_21:
  2443  0401  2C1B               	goto	i1l2567
  2444  0402                     u335_20:
  2445  0402                     i1l2565:
  2446                           
  2447                           ;main.c: 121:                 CCPR_S1 = map(servo11, 0, 31, 15, 75);
  2448  0402  01BE               	clrf	map@x0^(0+128)
  2449  0403  301F               	movlw	31
  2450  0404  00C4               	movwf	??_isr^(0+128)
  2451  0405  0844               	movf	??_isr^(0+128),w
  2452  0406  00BF               	movwf	map@x1^(0+128)
  2453  0407  300F               	movlw	15
  2454  0408  00C0               	movwf	map@y0^(0+128)
  2455  0409  3000               	movlw	0
  2456  040A  00C1               	movwf	(map@y0^(0+128)+1)
  2457  040B  304B               	movlw	75
  2458  040C  00C2               	movwf	map@y1^(0+128)
  2459  040D  3000               	movlw	0
  2460  040E  00C3               	movwf	(map@y1^(0+128)+1)
  2461  040F  0834               	movf	_servo11^(0+128),w
  2462  0410  120A  118A  270A  120A  118A  	fcall	_map
  2463  0415  1683               	bsf	3,5	;RP0=1, select bank1
  2464  0416  1303               	bcf	3,6	;RP1=0, select bank1
  2465  0417  083F               	movf	(?_map+1)^(0+128),w
  2466  0418  00A3               	movwf	(_CCPR_S1+1)^(0+128)
  2467  0419  083E               	movf	?_map^(0+128),w
  2468  041A  00A2               	movwf	_CCPR_S1^(0+128)
  2469  041B                     i1l2567:
  2470                           
  2471                           ;main.c: 124:             CCPR2L = (uint8_t)(CCPR_S1>>2);
  2472  041B  0823               	movf	(_CCPR_S1+1)^(0+128),w
  2473  041C  00C5               	movwf	(??_isr^(0+128)+1)
  2474  041D  0822               	movf	_CCPR_S1^(0+128),w
  2475  041E  00C4               	movwf	??_isr^(0+128)
  2476  041F  1003               	clrc
  2477  0420  0CC5               	rrf	(??_isr^(0+128)+1),f
  2478  0421  0CC4               	rrf	??_isr^(0+128),f
  2479  0422  1003               	clrc
  2480  0423  0CC5               	rrf	(??_isr^(0+128)+1),f
  2481  0424  0CC4               	rrf	??_isr^(0+128),f
  2482  0425  0844               	movf	??_isr^(0+128),w
  2483  0426  1283               	bcf	3,5	;RP0=0, select bank0
  2484  0427  1303               	bcf	3,6	;RP1=0, select bank0
  2485  0428  009B               	movwf	27	;volatile
  2486  0429                     i1l2569:
  2487                           
  2488                           ;main.c: 127:             CCP2CONbits.DC2B0 = CCPR_S1 & 1;
  2489  0429  1683               	bsf	3,5	;RP0=1, select bank1
  2490  042A  1303               	bcf	3,6	;RP1=0, select bank1
  2491  042B  0822               	movf	_CCPR_S1^(0+128),w
  2492  042C  3901               	andlw	1
  2493  042D  00C4               	movwf	??_isr^(0+128)
  2494  042E  0EC4               	swapf	??_isr^(0+128),f
  2495  042F  1283               	bcf	3,5	;RP0=0, select bank0
  2496  0430  1303               	bcf	3,6	;RP1=0, select bank0
  2497  0431  081D               	movf	29,w	;volatile
  2498  0432  1683               	bsf	3,5	;RP0=1, select bank1
  2499  0433  1303               	bcf	3,6	;RP1=0, select bank1
  2500  0434  0644               	xorwf	??_isr^(0+128),w
  2501  0435  39EF               	andlw	-17
  2502  0436  0644               	xorwf	??_isr^(0+128),w
  2503  0437  1283               	bcf	3,5	;RP0=0, select bank0
  2504  0438  1303               	bcf	3,6	;RP1=0, select bank0
  2505  0439  009D               	movwf	29	;volatile
  2506  043A                     i1l2571:
  2507                           
  2508                           ;main.c: 128:             CCP2CONbits.DC2B1 = (CCPR_S1 >> 1) & 1;
  2509  043A  1683               	bsf	3,5	;RP0=1, select bank1
  2510  043B  1303               	bcf	3,6	;RP1=0, select bank1
  2511  043C  0823               	movf	(_CCPR_S1+1)^(0+128),w
  2512  043D  00C5               	movwf	(??_isr^(0+128)+1)
  2513  043E  0822               	movf	_CCPR_S1^(0+128),w
  2514  043F  00C4               	movwf	??_isr^(0+128)
  2515  0440  1003               	clrc
  2516  0441  0CC5               	rrf	(??_isr^(0+128)+1),f
  2517  0442  0CC4               	rrf	??_isr^(0+128),f
  2518  0443  0844               	movf	??_isr^(0+128),w
  2519  0444  3901               	andlw	1
  2520  0445  00C6               	movwf	(??_isr+2)^(0+128)
  2521  0446  0EC6               	swapf	(??_isr+2)^(0+128),f
  2522  0447  0DC6               	rlf	(??_isr+2)^(0+128),f
  2523  0448  1283               	bcf	3,5	;RP0=0, select bank0
  2524  0449  1303               	bcf	3,6	;RP1=0, select bank0
  2525  044A  081D               	movf	29,w	;volatile
  2526  044B  1683               	bsf	3,5	;RP0=1, select bank1
  2527  044C  1303               	bcf	3,6	;RP1=0, select bank1
  2528  044D  0646               	xorwf	(??_isr+2)^(0+128),w
  2529  044E  39DF               	andlw	-33
  2530  044F  0646               	xorwf	(??_isr+2)^(0+128),w
  2531  0450  1283               	bcf	3,5	;RP0=0, select bank0
  2532  0451  1303               	bcf	3,6	;RP1=0, select bank0
  2533  0452  009D               	movwf	29	;volatile
  2534                           
  2535                           ;main.c: 129:         }
  2536  0453  2DE9               	goto	i1l2629
  2537  0454                     i1l2573:
  2538  0454  1283               	bcf	3,5	;RP0=0, select bank0
  2539  0455  1303               	bcf	3,6	;RP1=0, select bank0
  2540  0456  0C1F               	rrf	31,w	;volatile
  2541  0457  1683               	bsf	3,5	;RP0=1, select bank1
  2542  0458  1303               	bcf	3,6	;RP1=0, select bank1
  2543  0459  00C4               	movwf	??_isr^(0+128)
  2544  045A  0C44               	rrf	??_isr^(0+128),w
  2545  045B  390F               	andlw	15
  2546  045C  3A01               	xorlw	1
  2547  045D  1D03               	skipz
  2548  045E  2C60               	goto	u336_21
  2549  045F  2C61               	goto	u336_20
  2550  0460                     u336_21:
  2551  0460  2CE9               	goto	i1l2593
  2552  0461                     u336_20:
  2553  0461                     i1l2575:
  2554                           
  2555                           ;main.c: 131:             if(modo == 0){
  2556  0461  082C               	movf	_modo^(0+128),w
  2557  0462  042D               	iorwf	(_modo+1)^(0+128),w
  2558  0463  1D03               	btfss	3,2
  2559  0464  2C66               	goto	u337_21
  2560  0465  2C67               	goto	u337_20
  2561  0466                     u337_21:
  2562  0466  2C89               	goto	i1l2581
  2563  0467                     u337_20:
  2564  0467                     i1l2577:
  2565                           
  2566                           ;main.c: 132:                 servo2 = ADRESH;
  2567  0467  1283               	bcf	3,5	;RP0=0, select bank0
  2568  0468  1303               	bcf	3,6	;RP1=0, select bank0
  2569  0469  081E               	movf	30,w	;volatile
  2570  046A  1683               	bsf	3,5	;RP0=1, select bank1
  2571  046B  1303               	bcf	3,6	;RP1=0, select bank1
  2572  046C  00C4               	movwf	??_isr^(0+128)
  2573  046D  0844               	movf	??_isr^(0+128),w
  2574  046E  00B7               	movwf	_servo2^(0+128)
  2575  046F                     i1l2579:
  2576                           
  2577                           ;main.c: 134:                 CCPR_S2 = map(servo2, 0, 255, 15, 75);
  2578  046F  01BE               	clrf	map@x0^(0+128)
  2579  0470  30FF               	movlw	255
  2580  0471  00C4               	movwf	??_isr^(0+128)
  2581  0472  0844               	movf	??_isr^(0+128),w
  2582  0473  00BF               	movwf	map@x1^(0+128)
  2583  0474  300F               	movlw	15
  2584  0475  00C0               	movwf	map@y0^(0+128)
  2585  0476  3000               	movlw	0
  2586  0477  00C1               	movwf	(map@y0^(0+128)+1)
  2587  0478  304B               	movlw	75
  2588  0479  00C2               	movwf	map@y1^(0+128)
  2589  047A  3000               	movlw	0
  2590  047B  00C3               	movwf	(map@y1^(0+128)+1)
  2591  047C  0837               	movf	_servo2^(0+128),w
  2592  047D  120A  118A  270A  120A  118A  	fcall	_map
  2593  0482  1683               	bsf	3,5	;RP0=1, select bank1
  2594  0483  1303               	bcf	3,6	;RP1=0, select bank1
  2595  0484  083F               	movf	(?_map+1)^(0+128),w
  2596  0485  00A1               	movwf	(_CCPR_S2+1)^(0+128)
  2597  0486  083E               	movf	?_map^(0+128),w
  2598  0487  00A0               	movwf	_CCPR_S2^(0+128)
  2599                           
  2600                           ;main.c: 135:             }
  2601  0488  2CC9               	goto	i1l2589
  2602  0489                     i1l2581:
  2603  0489  032C               	decf	_modo^(0+128),w
  2604  048A  042D               	iorwf	(_modo+1)^(0+128),w
  2605  048B  1D03               	btfss	3,2
  2606  048C  2C8E               	goto	u338_21
  2607  048D  2C8F               	goto	u338_20
  2608  048E                     u338_21:
  2609  048E  2CA9               	goto	i1l2585
  2610  048F                     u338_20:
  2611  048F                     i1l2583:
  2612                           
  2613                           ;main.c: 138:                 CCPR_S2 = map(servo2, 0, 255, 15, 75);
  2614  048F  01BE               	clrf	map@x0^(0+128)
  2615  0490  30FF               	movlw	255
  2616  0491  00C4               	movwf	??_isr^(0+128)
  2617  0492  0844               	movf	??_isr^(0+128),w
  2618  0493  00BF               	movwf	map@x1^(0+128)
  2619  0494  300F               	movlw	15
  2620  0495  00C0               	movwf	map@y0^(0+128)
  2621  0496  3000               	movlw	0
  2622  0497  00C1               	movwf	(map@y0^(0+128)+1)
  2623  0498  304B               	movlw	75
  2624  0499  00C2               	movwf	map@y1^(0+128)
  2625  049A  3000               	movlw	0
  2626  049B  00C3               	movwf	(map@y1^(0+128)+1)
  2627  049C  0837               	movf	_servo2^(0+128),w
  2628  049D  120A  118A  270A  120A  118A  	fcall	_map
  2629  04A2  1683               	bsf	3,5	;RP0=1, select bank1
  2630  04A3  1303               	bcf	3,6	;RP1=0, select bank1
  2631  04A4  083F               	movf	(?_map+1)^(0+128),w
  2632  04A5  00A1               	movwf	(_CCPR_S2+1)^(0+128)
  2633  04A6  083E               	movf	?_map^(0+128),w
  2634  04A7  00A0               	movwf	_CCPR_S2^(0+128)
  2635                           
  2636                           ;main.c: 139:             }
  2637  04A8  2CC9               	goto	i1l2589
  2638  04A9                     i1l2585:
  2639  04A9  3002               	movlw	2
  2640  04AA  062C               	xorwf	_modo^(0+128),w
  2641  04AB  042D               	iorwf	(_modo+1)^(0+128),w
  2642  04AC  1D03               	btfss	3,2
  2643  04AD  2CAF               	goto	u339_21
  2644  04AE  2CB0               	goto	u339_20
  2645  04AF                     u339_21:
  2646  04AF  2CC9               	goto	i1l2589
  2647  04B0                     u339_20:
  2648  04B0                     i1l2587:
  2649                           
  2650                           ;main.c: 142:                 CCPR_S2 = map(servo22, 0, 31, 15, 75);
  2651  04B0  01BE               	clrf	map@x0^(0+128)
  2652  04B1  301F               	movlw	31
  2653  04B2  00C4               	movwf	??_isr^(0+128)
  2654  04B3  0844               	movf	??_isr^(0+128),w
  2655  04B4  00BF               	movwf	map@x1^(0+128)
  2656  04B5  300F               	movlw	15
  2657  04B6  00C0               	movwf	map@y0^(0+128)
  2658  04B7  3000               	movlw	0
  2659  04B8  00C1               	movwf	(map@y0^(0+128)+1)
  2660  04B9  304B               	movlw	75
  2661  04BA  00C2               	movwf	map@y1^(0+128)
  2662  04BB  3000               	movlw	0
  2663  04BC  00C3               	movwf	(map@y1^(0+128)+1)
  2664  04BD  0833               	movf	_servo22^(0+128),w
  2665  04BE  120A  118A  270A  120A  118A  	fcall	_map
  2666  04C3  1683               	bsf	3,5	;RP0=1, select bank1
  2667  04C4  1303               	bcf	3,6	;RP1=0, select bank1
  2668  04C5  083F               	movf	(?_map+1)^(0+128),w
  2669  04C6  00A1               	movwf	(_CCPR_S2+1)^(0+128)
  2670  04C7  083E               	movf	?_map^(0+128),w
  2671  04C8  00A0               	movwf	_CCPR_S2^(0+128)
  2672  04C9                     i1l2589:
  2673                           
  2674                           ;main.c: 146:             CCPR1L = (uint8_t)(CCPR_S2>>2);
  2675  04C9  0821               	movf	(_CCPR_S2+1)^(0+128),w
  2676  04CA  00C5               	movwf	(??_isr^(0+128)+1)
  2677  04CB  0820               	movf	_CCPR_S2^(0+128),w
  2678  04CC  00C4               	movwf	??_isr^(0+128)
  2679  04CD  1003               	clrc
  2680  04CE  0CC5               	rrf	(??_isr^(0+128)+1),f
  2681  04CF  0CC4               	rrf	??_isr^(0+128),f
  2682  04D0  1003               	clrc
  2683  04D1  0CC5               	rrf	(??_isr^(0+128)+1),f
  2684  04D2  0CC4               	rrf	??_isr^(0+128),f
  2685  04D3  0844               	movf	??_isr^(0+128),w
  2686  04D4  1283               	bcf	3,5	;RP0=0, select bank0
  2687  04D5  1303               	bcf	3,6	;RP1=0, select bank0
  2688  04D6  0095               	movwf	21	;volatile
  2689  04D7                     i1l2591:
  2690                           
  2691                           ;main.c: 148:             CCP1CONbits.DC1B = CCPR_S2 & 0b11;
  2692  04D7  1683               	bsf	3,5	;RP0=1, select bank1
  2693  04D8  1303               	bcf	3,6	;RP1=0, select bank1
  2694  04D9  0820               	movf	_CCPR_S2^(0+128),w
  2695  04DA  3903               	andlw	3
  2696  04DB  00C4               	movwf	??_isr^(0+128)
  2697  04DC  0EC4               	swapf	??_isr^(0+128),f
  2698  04DD  1283               	bcf	3,5	;RP0=0, select bank0
  2699  04DE  1303               	bcf	3,6	;RP1=0, select bank0
  2700  04DF  0817               	movf	23,w	;volatile
  2701  04E0  1683               	bsf	3,5	;RP0=1, select bank1
  2702  04E1  1303               	bcf	3,6	;RP1=0, select bank1
  2703  04E2  0644               	xorwf	??_isr^(0+128),w
  2704  04E3  39CF               	andlw	-49
  2705  04E4  0644               	xorwf	??_isr^(0+128),w
  2706  04E5  1283               	bcf	3,5	;RP0=0, select bank0
  2707  04E6  1303               	bcf	3,6	;RP1=0, select bank0
  2708  04E7  0097               	movwf	23	;volatile
  2709                           
  2710                           ;main.c: 149:         }
  2711  04E8  2DE9               	goto	i1l2629
  2712  04E9                     i1l2593:
  2713  04E9  1283               	bcf	3,5	;RP0=0, select bank0
  2714  04EA  1303               	bcf	3,6	;RP1=0, select bank0
  2715  04EB  0C1F               	rrf	31,w	;volatile
  2716  04EC  1683               	bsf	3,5	;RP0=1, select bank1
  2717  04ED  1303               	bcf	3,6	;RP1=0, select bank1
  2718  04EE  00C4               	movwf	??_isr^(0+128)
  2719  04EF  0C44               	rrf	??_isr^(0+128),w
  2720  04F0  390F               	andlw	15
  2721  04F1  3A02               	xorlw	2
  2722  04F2  1D03               	skipz
  2723  04F3  2CF5               	goto	u340_21
  2724  04F4  2CF6               	goto	u340_20
  2725  04F5                     u340_21:
  2726  04F5  2D65               	goto	i1l2611
  2727  04F6                     u340_20:
  2728  04F6                     i1l2595:
  2729                           
  2730                           ;main.c: 151:             if(modo == 0){
  2731  04F6  082C               	movf	_modo^(0+128),w
  2732  04F7  042D               	iorwf	(_modo+1)^(0+128),w
  2733  04F8  1D03               	btfss	3,2
  2734  04F9  2CFB               	goto	u341_21
  2735  04FA  2CFC               	goto	u341_20
  2736  04FB                     u341_21:
  2737  04FB  2D1E               	goto	i1l2601
  2738  04FC                     u341_20:
  2739  04FC                     i1l2597:
  2740                           
  2741                           ;main.c: 152:                 servo3 = ADRESH;
  2742  04FC  1283               	bcf	3,5	;RP0=0, select bank0
  2743  04FD  1303               	bcf	3,6	;RP1=0, select bank0
  2744  04FE  081E               	movf	30,w	;volatile
  2745  04FF  1683               	bsf	3,5	;RP0=1, select bank1
  2746  0500  1303               	bcf	3,6	;RP1=0, select bank1
  2747  0501  00C4               	movwf	??_isr^(0+128)
  2748  0502  0844               	movf	??_isr^(0+128),w
  2749  0503  00B6               	movwf	_servo3^(0+128)
  2750  0504                     i1l2599:
  2751                           
  2752                           ;main.c: 154:                 CCPR_S3 = map(servo3, 0, 255, 15, 75);
  2753  0504  01BE               	clrf	map@x0^(0+128)
  2754  0505  30FF               	movlw	255
  2755  0506  00C4               	movwf	??_isr^(0+128)
  2756  0507  0844               	movf	??_isr^(0+128),w
  2757  0508  00BF               	movwf	map@x1^(0+128)
  2758  0509  300F               	movlw	15
  2759  050A  00C0               	movwf	map@y0^(0+128)
  2760  050B  3000               	movlw	0
  2761  050C  00C1               	movwf	(map@y0^(0+128)+1)
  2762  050D  304B               	movlw	75
  2763  050E  00C2               	movwf	map@y1^(0+128)
  2764  050F  3000               	movlw	0
  2765  0510  00C3               	movwf	(map@y1^(0+128)+1)
  2766  0511  0836               	movf	_servo3^(0+128),w
  2767  0512  120A  118A  270A  120A  118A  	fcall	_map
  2768  0517  1683               	bsf	3,5	;RP0=1, select bank1
  2769  0518  1303               	bcf	3,6	;RP1=0, select bank1
  2770  0519  083F               	movf	(?_map+1)^(0+128),w
  2771  051A  00DA               	movwf	(_CCPR_S3+1)^(0+128)
  2772  051B  083E               	movf	?_map^(0+128),w
  2773  051C  00D9               	movwf	_CCPR_S3^(0+128)
  2774                           
  2775                           ;main.c: 155:             }
  2776  051D  2D5E               	goto	i1l2609
  2777  051E                     i1l2601:
  2778  051E  032C               	decf	_modo^(0+128),w
  2779  051F  042D               	iorwf	(_modo+1)^(0+128),w
  2780  0520  1D03               	btfss	3,2
  2781  0521  2D23               	goto	u342_21
  2782  0522  2D24               	goto	u342_20
  2783  0523                     u342_21:
  2784  0523  2D3E               	goto	i1l2605
  2785  0524                     u342_20:
  2786  0524                     i1l2603:
  2787                           
  2788                           ;main.c: 158:                 CCPR_S3 = map(servo3, 0, 255, 15, 75);
  2789  0524  01BE               	clrf	map@x0^(0+128)
  2790  0525  30FF               	movlw	255
  2791  0526  00C4               	movwf	??_isr^(0+128)
  2792  0527  0844               	movf	??_isr^(0+128),w
  2793  0528  00BF               	movwf	map@x1^(0+128)
  2794  0529  300F               	movlw	15
  2795  052A  00C0               	movwf	map@y0^(0+128)
  2796  052B  3000               	movlw	0
  2797  052C  00C1               	movwf	(map@y0^(0+128)+1)
  2798  052D  304B               	movlw	75
  2799  052E  00C2               	movwf	map@y1^(0+128)
  2800  052F  3000               	movlw	0
  2801  0530  00C3               	movwf	(map@y1^(0+128)+1)
  2802  0531  0836               	movf	_servo3^(0+128),w
  2803  0532  120A  118A  270A  120A  118A  	fcall	_map
  2804  0537  1683               	bsf	3,5	;RP0=1, select bank1
  2805  0538  1303               	bcf	3,6	;RP1=0, select bank1
  2806  0539  083F               	movf	(?_map+1)^(0+128),w
  2807  053A  00DA               	movwf	(_CCPR_S3+1)^(0+128)
  2808  053B  083E               	movf	?_map^(0+128),w
  2809  053C  00D9               	movwf	_CCPR_S3^(0+128)
  2810                           
  2811                           ;main.c: 159:             }
  2812  053D  2D5E               	goto	i1l2609
  2813  053E                     i1l2605:
  2814  053E  3002               	movlw	2
  2815  053F  062C               	xorwf	_modo^(0+128),w
  2816  0540  042D               	iorwf	(_modo+1)^(0+128),w
  2817  0541  1D03               	btfss	3,2
  2818  0542  2D44               	goto	u343_21
  2819  0543  2D45               	goto	u343_20
  2820  0544                     u343_21:
  2821  0544  2D5E               	goto	i1l2609
  2822  0545                     u343_20:
  2823  0545                     i1l2607:
  2824                           
  2825                           ;main.c: 162:                 CCPR_S3 = map(servo33, 0, 31, 15, 75);
  2826  0545  01BE               	clrf	map@x0^(0+128)
  2827  0546  301F               	movlw	31
  2828  0547  00C4               	movwf	??_isr^(0+128)
  2829  0548  0844               	movf	??_isr^(0+128),w
  2830  0549  00BF               	movwf	map@x1^(0+128)
  2831  054A  300F               	movlw	15
  2832  054B  00C0               	movwf	map@y0^(0+128)
  2833  054C  3000               	movlw	0
  2834  054D  00C1               	movwf	(map@y0^(0+128)+1)
  2835  054E  304B               	movlw	75
  2836  054F  00C2               	movwf	map@y1^(0+128)
  2837  0550  3000               	movlw	0
  2838  0551  00C3               	movwf	(map@y1^(0+128)+1)
  2839  0552  0832               	movf	_servo33^(0+128),w
  2840  0553  120A  118A  270A  120A  118A  	fcall	_map
  2841  0558  1683               	bsf	3,5	;RP0=1, select bank1
  2842  0559  1303               	bcf	3,6	;RP1=0, select bank1
  2843  055A  083F               	movf	(?_map+1)^(0+128),w
  2844  055B  00DA               	movwf	(_CCPR_S3+1)^(0+128)
  2845  055C  083E               	movf	?_map^(0+128),w
  2846  055D  00D9               	movwf	_CCPR_S3^(0+128)
  2847  055E                     i1l2609:
  2848                           
  2849                           ;main.c: 166:             CCPR_S3 = CCPR_S3 & 0b01111111;
  2850  055E  307F               	movlw	127
  2851  055F  0559               	andwf	_CCPR_S3^(0+128),w
  2852  0560  00D9               	movwf	_CCPR_S3^(0+128)
  2853  0561  3000               	movlw	0
  2854  0562  055A               	andwf	(_CCPR_S3+1)^(0+128),w
  2855  0563  00DA               	movwf	(_CCPR_S3+1)^(0+128)
  2856                           
  2857                           ;main.c: 167:         }
  2858  0564  2DE9               	goto	i1l2629
  2859  0565                     i1l2611:
  2860  0565  1283               	bcf	3,5	;RP0=0, select bank0
  2861  0566  1303               	bcf	3,6	;RP1=0, select bank0
  2862  0567  0C1F               	rrf	31,w	;volatile
  2863  0568  1683               	bsf	3,5	;RP0=1, select bank1
  2864  0569  1303               	bcf	3,6	;RP1=0, select bank1
  2865  056A  00C4               	movwf	??_isr^(0+128)
  2866  056B  0C44               	rrf	??_isr^(0+128),w
  2867  056C  390F               	andlw	15
  2868  056D  3A03               	xorlw	3
  2869  056E  1D03               	skipz
  2870  056F  2D71               	goto	u344_21
  2871  0570  2D72               	goto	u344_20
  2872  0571                     u344_21:
  2873  0571  2DE9               	goto	i1l172
  2874  0572                     u344_20:
  2875  0572                     i1l2613:
  2876                           
  2877                           ;main.c: 169:             if(modo == 0){
  2878  0572  082C               	movf	_modo^(0+128),w
  2879  0573  042D               	iorwf	(_modo+1)^(0+128),w
  2880  0574  1D03               	btfss	3,2
  2881  0575  2D77               	goto	u345_21
  2882  0576  2D78               	goto	u345_20
  2883  0577                     u345_21:
  2884  0577  2D9A               	goto	i1l2619
  2885  0578                     u345_20:
  2886  0578                     i1l2615:
  2887                           
  2888                           ;main.c: 170:                 servo4 = ADRESH;
  2889  0578  1283               	bcf	3,5	;RP0=0, select bank0
  2890  0579  1303               	bcf	3,6	;RP1=0, select bank0
  2891  057A  081E               	movf	30,w	;volatile
  2892  057B  1683               	bsf	3,5	;RP0=1, select bank1
  2893  057C  1303               	bcf	3,6	;RP1=0, select bank1
  2894  057D  00C4               	movwf	??_isr^(0+128)
  2895  057E  0844               	movf	??_isr^(0+128),w
  2896  057F  00B5               	movwf	_servo4^(0+128)
  2897  0580                     i1l2617:
  2898                           
  2899                           ;main.c: 172:                 CCPR_S4 = map(servo4, 0, 255, 15, 75);
  2900  0580  01BE               	clrf	map@x0^(0+128)
  2901  0581  30FF               	movlw	255
  2902  0582  00C4               	movwf	??_isr^(0+128)
  2903  0583  0844               	movf	??_isr^(0+128),w
  2904  0584  00BF               	movwf	map@x1^(0+128)
  2905  0585  300F               	movlw	15
  2906  0586  00C0               	movwf	map@y0^(0+128)
  2907  0587  3000               	movlw	0
  2908  0588  00C1               	movwf	(map@y0^(0+128)+1)
  2909  0589  304B               	movlw	75
  2910  058A  00C2               	movwf	map@y1^(0+128)
  2911  058B  3000               	movlw	0
  2912  058C  00C3               	movwf	(map@y1^(0+128)+1)
  2913  058D  0835               	movf	_servo4^(0+128),w
  2914  058E  120A  118A  270A  120A  118A  	fcall	_map
  2915  0593  1683               	bsf	3,5	;RP0=1, select bank1
  2916  0594  1303               	bcf	3,6	;RP1=0, select bank1
  2917  0595  083F               	movf	(?_map+1)^(0+128),w
  2918  0596  00D8               	movwf	(_CCPR_S4+1)^(0+128)
  2919  0597  083E               	movf	?_map^(0+128),w
  2920  0598  00D7               	movwf	_CCPR_S4^(0+128)
  2921                           
  2922                           ;main.c: 173:             }
  2923  0599  2DDA               	goto	i1l2627
  2924  059A                     i1l2619:
  2925  059A  032C               	decf	_modo^(0+128),w
  2926  059B  042D               	iorwf	(_modo+1)^(0+128),w
  2927  059C  1D03               	btfss	3,2
  2928  059D  2D9F               	goto	u346_21
  2929  059E  2DA0               	goto	u346_20
  2930  059F                     u346_21:
  2931  059F  2DBA               	goto	i1l2623
  2932  05A0                     u346_20:
  2933  05A0                     i1l2621:
  2934                           
  2935                           ;main.c: 176:                 CCPR_S4 = map(servo4, 0, 255, 15, 75);
  2936  05A0  01BE               	clrf	map@x0^(0+128)
  2937  05A1  30FF               	movlw	255
  2938  05A2  00C4               	movwf	??_isr^(0+128)
  2939  05A3  0844               	movf	??_isr^(0+128),w
  2940  05A4  00BF               	movwf	map@x1^(0+128)
  2941  05A5  300F               	movlw	15
  2942  05A6  00C0               	movwf	map@y0^(0+128)
  2943  05A7  3000               	movlw	0
  2944  05A8  00C1               	movwf	(map@y0^(0+128)+1)
  2945  05A9  304B               	movlw	75
  2946  05AA  00C2               	movwf	map@y1^(0+128)
  2947  05AB  3000               	movlw	0
  2948  05AC  00C3               	movwf	(map@y1^(0+128)+1)
  2949  05AD  0835               	movf	_servo4^(0+128),w
  2950  05AE  120A  118A  270A  120A  118A  	fcall	_map
  2951  05B3  1683               	bsf	3,5	;RP0=1, select bank1
  2952  05B4  1303               	bcf	3,6	;RP1=0, select bank1
  2953  05B5  083F               	movf	(?_map+1)^(0+128),w
  2954  05B6  00D8               	movwf	(_CCPR_S4+1)^(0+128)
  2955  05B7  083E               	movf	?_map^(0+128),w
  2956  05B8  00D7               	movwf	_CCPR_S4^(0+128)
  2957                           
  2958                           ;main.c: 177:             }
  2959  05B9  2DDA               	goto	i1l2627
  2960  05BA                     i1l2623:
  2961  05BA  3002               	movlw	2
  2962  05BB  062C               	xorwf	_modo^(0+128),w
  2963  05BC  042D               	iorwf	(_modo+1)^(0+128),w
  2964  05BD  1D03               	btfss	3,2
  2965  05BE  2DC0               	goto	u347_21
  2966  05BF  2DC1               	goto	u347_20
  2967  05C0                     u347_21:
  2968  05C0  2DDA               	goto	i1l2627
  2969  05C1                     u347_20:
  2970  05C1                     i1l2625:
  2971                           
  2972                           ;main.c: 180:                 CCPR_S4 = map(servo44, 0, 31, 15, 75);
  2973  05C1  01BE               	clrf	map@x0^(0+128)
  2974  05C2  301F               	movlw	31
  2975  05C3  00C4               	movwf	??_isr^(0+128)
  2976  05C4  0844               	movf	??_isr^(0+128),w
  2977  05C5  00BF               	movwf	map@x1^(0+128)
  2978  05C6  300F               	movlw	15
  2979  05C7  00C0               	movwf	map@y0^(0+128)
  2980  05C8  3000               	movlw	0
  2981  05C9  00C1               	movwf	(map@y0^(0+128)+1)
  2982  05CA  304B               	movlw	75
  2983  05CB  00C2               	movwf	map@y1^(0+128)
  2984  05CC  3000               	movlw	0
  2985  05CD  00C3               	movwf	(map@y1^(0+128)+1)
  2986  05CE  0831               	movf	_servo44^(0+128),w
  2987  05CF  120A  118A  270A  120A  118A  	fcall	_map
  2988  05D4  1683               	bsf	3,5	;RP0=1, select bank1
  2989  05D5  1303               	bcf	3,6	;RP1=0, select bank1
  2990  05D6  083F               	movf	(?_map+1)^(0+128),w
  2991  05D7  00D8               	movwf	(_CCPR_S4+1)^(0+128)
  2992  05D8  083E               	movf	?_map^(0+128),w
  2993  05D9  00D7               	movwf	_CCPR_S4^(0+128)
  2994  05DA                     i1l2627:
  2995                           
  2996                           ;main.c: 184:             CCPR_S4 = (CCPR_S4 & 0b01111111) + 128;
  2997  05DA  307F               	movlw	127
  2998  05DB  0557               	andwf	_CCPR_S4^(0+128),w
  2999  05DC  00C4               	movwf	??_isr^(0+128)
  3000  05DD  3000               	movlw	0
  3001  05DE  0558               	andwf	(_CCPR_S4+1)^(0+128),w
  3002  05DF  00C5               	movwf	(??_isr+1)^(0+128)
  3003  05E0  0844               	movf	??_isr^(0+128),w
  3004  05E1  3E80               	addlw	128
  3005  05E2  00D7               	movwf	_CCPR_S4^(0+128)
  3006  05E3  0845               	movf	(??_isr+1)^(0+128),w
  3007  05E4  1803               	skipnc
  3008  05E5  3E01               	addlw	1
  3009  05E6  3E00               	addlw	0
  3010  05E7  00D8               	movwf	(_CCPR_S4+1)^(0+128)
  3011  05E8  2DE9               	goto	i1l2629
  3012  05E9                     i1l172:
  3013  05E9                     i1l2629:
  3014                           
  3015                           ;main.c: 186:         PIR1bits.ADIF = 0;
  3016  05E9  1283               	bcf	3,5	;RP0=0, select bank0
  3017  05EA  130C               	bcf	12,6	;volatile
  3018  05EB                     i1l2631:
  3019                           
  3020                           ;main.c: 189:     if (INTCONbits.RBIF){
  3021  05EB  1C0B               	btfss	11,0	;volatile
  3022  05EC  2DEE               	goto	u348_21
  3023  05ED  2DEF               	goto	u348_20
  3024  05EE                     u348_21:
  3025  05EE  2E45               	goto	i1l199
  3026  05EF                     u348_20:
  3027  05EF                     i1l2633:
  3028                           
  3029                           ;main.c: 190:         if (!PORTBbits.RB0){
  3030  05EF  1806               	btfsc	6,0	;volatile
  3031  05F0  2DF2               	goto	u349_21
  3032  05F1  2DF3               	goto	u349_20
  3033  05F2                     u349_21:
  3034  05F2  2E0D               	goto	i1l187
  3035  05F3                     u349_20:
  3036  05F3                     i1l2635:
  3037                           
  3038                           ;main.c: 191:             modo ++;
  3039  05F3  3001               	movlw	1
  3040  05F4  1683               	bsf	3,5	;RP0=1, select bank1
  3041  05F5  1303               	bcf	3,6	;RP1=0, select bank1
  3042  05F6  07AC               	addwf	_modo^(0+128),f
  3043  05F7  1803               	skipnc
  3044  05F8  0AAD               	incf	(_modo+1)^(0+128),f
  3045  05F9  3000               	movlw	0
  3046  05FA  07AD               	addwf	(_modo+1)^(0+128),f
  3047  05FB                     i1l2637:
  3048                           
  3049                           ;main.c: 192:             if(modo > 2)
  3050  05FB  082D               	movf	(_modo+1)^(0+128),w
  3051  05FC  3A80               	xorlw	128
  3052  05FD  00FF               	movwf	btemp+1
  3053  05FE  3080               	movlw	128
  3054  05FF  027F               	subwf	btemp+1,w
  3055  0600  1D03               	skipz
  3056  0601  2E04               	goto	u350_25
  3057  0602  3003               	movlw	3
  3058  0603  022C               	subwf	_modo^(0+128),w
  3059  0604                     u350_25:
  3060  0604  1C03               	skipc
  3061  0605  2E07               	goto	u350_21
  3062  0606  2E08               	goto	u350_20
  3063  0607                     u350_21:
  3064  0607  2E44               	goto	i1l2657
  3065  0608                     u350_20:
  3066  0608                     i1l2639:
  3067                           
  3068                           ;main.c: 193:                 modo = 0;
  3069  0608  1683               	bsf	3,5	;RP0=1, select bank1
  3070  0609  1303               	bcf	3,6	;RP1=0, select bank1
  3071  060A  01AC               	clrf	_modo^(0+128)
  3072  060B  01AD               	clrf	(_modo+1)^(0+128)
  3073  060C  2E44               	goto	i1l2657
  3074  060D                     i1l187:	
  3075                           ;main.c: 195:         else if (!PORTBbits.RB1){
  3076                           
  3077  060D  1886               	btfsc	6,1	;volatile
  3078  060E  2E10               	goto	u351_21
  3079  060F  2E11               	goto	u351_20
  3080  0610                     u351_21:
  3081  0610  2E29               	goto	i1l190
  3082  0611                     u351_20:
  3083  0611                     i1l2641:
  3084                           
  3085                           ;main.c: 196:             if (modo == 0){
  3086  0611  1683               	bsf	3,5	;RP0=1, select bank1
  3087  0612  1303               	bcf	3,6	;RP1=0, select bank1
  3088  0613  082C               	movf	_modo^(0+128),w
  3089  0614  042D               	iorwf	(_modo+1)^(0+128),w
  3090  0615  1D03               	btfss	3,2
  3091  0616  2E18               	goto	u352_21
  3092  0617  2E19               	goto	u352_20
  3093  0618                     u352_21:
  3094  0618  2E1E               	goto	i1l2645
  3095  0619                     u352_20:
  3096  0619                     i1l2643:
  3097                           
  3098                           ;main.c: 197:                 flag_w1 = 1;
  3099  0619  3001               	movlw	1
  3100  061A  00AA               	movwf	_flag_w1^(0+128)
  3101  061B  3000               	movlw	0
  3102  061C  00AB               	movwf	(_flag_w1^(0+128)+1)
  3103                           
  3104                           ;main.c: 198:             }
  3105  061D  2E44               	goto	i1l2657
  3106  061E                     i1l2645:
  3107  061E  032C               	decf	_modo^(0+128),w
  3108  061F  042D               	iorwf	(_modo+1)^(0+128),w
  3109  0620  1D03               	btfss	3,2
  3110  0621  2E23               	goto	u353_21
  3111  0622  2E24               	goto	u353_20
  3112  0623                     u353_21:
  3113  0623  2E44               	goto	i1l2657
  3114  0624                     u353_20:
  3115  0624                     i1l2647:
  3116                           
  3117                           ;main.c: 200:                 flag_r1 = 1;
  3118  0624  3001               	movlw	1
  3119  0625  00A6               	movwf	_flag_r1^(0+128)
  3120  0626  3000               	movlw	0
  3121  0627  00A7               	movwf	(_flag_r1^(0+128)+1)
  3122  0628  2E44               	goto	i1l2657
  3123  0629                     i1l190:	
  3124                           ;main.c: 203:         else if (!PORTBbits.RB2){
  3125                           
  3126  0629  1906               	btfsc	6,2	;volatile
  3127  062A  2E2C               	goto	u354_21
  3128  062B  2E2D               	goto	u354_20
  3129  062C                     u354_21:
  3130  062C  2E44               	goto	i1l2657
  3131  062D                     u354_20:
  3132  062D                     i1l2649:
  3133                           
  3134                           ;main.c: 204:             if (modo == 0){
  3135  062D  1683               	bsf	3,5	;RP0=1, select bank1
  3136  062E  1303               	bcf	3,6	;RP1=0, select bank1
  3137  062F  082C               	movf	_modo^(0+128),w
  3138  0630  042D               	iorwf	(_modo+1)^(0+128),w
  3139  0631  1D03               	btfss	3,2
  3140  0632  2E34               	goto	u355_21
  3141  0633  2E35               	goto	u355_20
  3142  0634                     u355_21:
  3143  0634  2E3A               	goto	i1l2653
  3144  0635                     u355_20:
  3145  0635                     i1l2651:
  3146                           
  3147                           ;main.c: 205:                 flag_w2 = 1;
  3148  0635  3001               	movlw	1
  3149  0636  00A8               	movwf	_flag_w2^(0+128)
  3150  0637  3000               	movlw	0
  3151  0638  00A9               	movwf	(_flag_w2^(0+128)+1)
  3152                           
  3153                           ;main.c: 206:             }
  3154  0639  2E44               	goto	i1l2657
  3155  063A                     i1l2653:
  3156  063A  032C               	decf	_modo^(0+128),w
  3157  063B  042D               	iorwf	(_modo+1)^(0+128),w
  3158  063C  1D03               	btfss	3,2
  3159  063D  2E3F               	goto	u356_21
  3160  063E  2E40               	goto	u356_20
  3161  063F                     u356_21:
  3162  063F  2E44               	goto	i1l2657
  3163  0640                     u356_20:
  3164  0640                     i1l2655:
  3165                           
  3166                           ;main.c: 208:                 flag_r2 = 1;
  3167  0640  3001               	movlw	1
  3168  0641  00A4               	movwf	_flag_r2^(0+128)
  3169  0642  3000               	movlw	0
  3170  0643  00A5               	movwf	(_flag_r2^(0+128)+1)
  3171  0644                     i1l2657:
  3172                           
  3173                           ;main.c: 211:         INTCONbits.RBIF = 0;
  3174  0644  100B               	bcf	11,0	;volatile
  3175  0645                     i1l199:
  3176  0645  1683               	bsf	3,5	;RP0=1, select bank1
  3177  0646  1303               	bcf	3,6	;RP1=0, select bank1
  3178  0647  0849               	movf	(??_isr+5)^(0+128),w
  3179  0648  00FF               	movwf	btemp+1
  3180  0649  0848               	movf	(??_isr+4)^(0+128),w
  3181  064A  008A               	movwf	10
  3182  064B  0E47               	swapf	(??_isr+3)^(0+128),w
  3183  064C  0083               	movwf	3
  3184  064D  0EFE               	swapf	btemp,f
  3185  064E  0E7E               	swapf	btemp,w
  3186  064F  0009               	retfie
  3187  0650                     __end_of_isr:
  3188                           
  3189                           	psect	intentry
  3190  0004                     __pintentry:	
  3191                           ;incstack = 0
  3192                           ; Regs used in _isr: [wreg+status,2+status,0+btemp+1+pclath+cstack]
  3193                           
  3194  0004                     interrupt_function:
  3195  007E                     saved_w	set	btemp
  3196  0004  00FE               	movwf	btemp
  3197  0005  0E03               	swapf	3,w
  3198  0006  1683               	bsf	3,5	;RP0=1, select bank1
  3199  0007  1303               	bcf	3,6	;RP1=0, select bank1
  3200  0008  00C7               	movwf	(??_isr+3)^(0+128)
  3201  0009  080A               	movf	10,w
  3202  000A  00C8               	movwf	(??_isr+4)^(0+128)
  3203  000B  087F               	movf	btemp+1,w
  3204  000C  00C9               	movwf	(??_isr+5)^(0+128)
  3205  000D  120A  118A  2B8F   	ljmp	_isr
  3206                           
  3207                           	psect	text9
  3208  070A                     __ptext9:	
  3209 ;; *************** function _map *****************
  3210 ;; Defined at:
  3211 ;;		line 338 in file "main.c"
  3212 ;; Parameters:    Size  Location     Type
  3213 ;;  x               1    wreg     unsigned char 
  3214 ;;  x0              1    5[BANK1 ] unsigned char 
  3215 ;;  x1              1    6[BANK1 ] unsigned char 
  3216 ;;  y0              2    7[BANK1 ] unsigned short 
  3217 ;;  y1              2    9[BANK1 ] unsigned short 
  3218 ;; Auto vars:     Size  Location     Type
  3219 ;;  x               1   78[BANK0 ] unsigned char 
  3220 ;; Return value:  Size  Location     Type
  3221 ;;                  2    5[BANK1 ] unsigned short 
  3222 ;; Registers used:
  3223 ;;		wreg, status,2, status,0, btemp+1, pclath, cstack
  3224 ;; Tracked objects:
  3225 ;;		On entry : 0/0
  3226 ;;		On exit  : 0/0
  3227 ;;		Unchanged: 0/0
  3228 ;; Data sizes:     COMMON   BANK0   BANK1   BANK3   BANK2
  3229 ;;      Params:         0       0       6       0       0
  3230 ;;      Locals:         0       1       0       0       0
  3231 ;;      Temps:          0       0       0       0       0
  3232 ;;      Totals:         0       1       6       0       0
  3233 ;;Total ram usage:        7 bytes
  3234 ;; Hardware stack levels used: 1
  3235 ;; Hardware stack levels required when called: 2
  3236 ;; This function calls:
  3237 ;;		___fladd
  3238 ;;		___fldiv
  3239 ;;		___flmul
  3240 ;;		___fltol
  3241 ;;		___xxtofl
  3242 ;; This function is called by:
  3243 ;;		_isr
  3244 ;; This function uses a non-reentrant model
  3245 ;;
  3246                           
  3247  070A                     _map:	
  3248                           ;psect for function _map
  3249                           
  3250                           
  3251                           ;incstack = 0
  3252                           ; Regs used in _map: [wreg+status,2+status,0+btemp+1+pclath+cstack]
  3253                           ;map@x stored from wreg
  3254  070A  1283               	bcf	3,5	;RP0=0, select bank0
  3255  070B  1303               	bcf	3,6	;RP1=0, select bank0
  3256  070C  00EE               	movwf	map@x
  3257  070D                     i1l2463:
  3258                           
  3259                           ;main.c: 338: unsigned short map(uint8_t x, uint8_t x0, uint8_t x1,;main.c: 339:        
      +                               unsigned short y0, unsigned short y1){;main.c: 340:     return (unsigned short)(y0+
      +                          ((float)(y1-y0)/(x1-x0))*(x-x0));
  3260  070D  1683               	bsf	3,5	;RP0=1, select bank1
  3261  070E  1303               	bcf	3,6	;RP1=0, select bank1
  3262  070F  0840               	movf	map@y0^(0+128),w
  3263  0710  00F0               	movwf	___xxtofl@val
  3264  0711  0841               	movf	(map@y0+1)^(0+128),w
  3265  0712  00F1               	movwf	___xxtofl@val+1
  3266  0713  01F2               	clrf	___xxtofl@val+2
  3267  0714  01F3               	clrf	___xxtofl@val+3
  3268  0715  3000               	movlw	0
  3269  0716  120A  118A  2650  120A  118A  	fcall	___xxtofl
  3270  071B  0873               	movf	?___xxtofl+3,w
  3271  071C  1283               	bcf	3,5	;RP0=0, select bank0
  3272  071D  1303               	bcf	3,6	;RP1=0, select bank0
  3273  071E  00DB               	movwf	___fladd@a+3
  3274  071F  0872               	movf	?___xxtofl+2,w
  3275  0720  00DA               	movwf	___fladd@a+2
  3276  0721  0871               	movf	?___xxtofl+1,w
  3277  0722  00D9               	movwf	___fladd@a+1
  3278  0723  0870               	movf	?___xxtofl,w
  3279  0724  00D8               	movwf	___fladd@a
  3280  0725  1683               	bsf	3,5	;RP0=1, select bank1
  3281  0726  1303               	bcf	3,6	;RP1=0, select bank1
  3282  0727  0840               	movf	map@y0^(0+128),w
  3283  0728  0242               	subwf	map@y1^(0+128),w
  3284  0729  00F0               	movwf	___xxtofl@val
  3285  072A  0841               	movf	(map@y0+1)^(0+128),w
  3286  072B  1C03               	skipc
  3287  072C  0A41               	incf	(map@y0+1)^(0+128),w
  3288  072D  0243               	subwf	(map@y1+1)^(0+128),w
  3289  072E  00F1               	movwf	___xxtofl@val+1
  3290  072F  01F2               	clrf	___xxtofl@val+2
  3291  0730  01F3               	clrf	___xxtofl@val+3
  3292  0731  3000               	movlw	0
  3293  0732  120A  118A  2650  120A  118A  	fcall	___xxtofl
  3294  0737  0873               	movf	?___xxtofl+3,w
  3295  0738  1283               	bcf	3,5	;RP0=0, select bank0
  3296  0739  1303               	bcf	3,6	;RP1=0, select bank0
  3297  073A  00A7               	movwf	___fldiv@b+3
  3298  073B  0872               	movf	?___xxtofl+2,w
  3299  073C  00A6               	movwf	___fldiv@b+2
  3300  073D  0871               	movf	?___xxtofl+1,w
  3301  073E  00A5               	movwf	___fldiv@b+1
  3302  073F  0870               	movf	?___xxtofl,w
  3303  0740  00A4               	movwf	___fldiv@b
  3304  0741  1683               	bsf	3,5	;RP0=1, select bank1
  3305  0742  1303               	bcf	3,6	;RP1=0, select bank1
  3306  0743  083E               	movf	map@x0^(0+128),w
  3307  0744  023F               	subwf	map@x1^(0+128),w
  3308  0745  00F0               	movwf	___xxtofl@val
  3309  0746  01F1               	clrf	___xxtofl@val+1
  3310  0747  1C03               	skipc
  3311  0748  03F1               	decf	___xxtofl@val+1,f
  3312  0749  01F2               	clrf	___xxtofl@val+2
  3313  074A  1BF1               	btfsc	___xxtofl@val+1,7
  3314  074B  03F2               	decf	___xxtofl@val+2,f
  3315  074C  0872               	movf	___xxtofl@val+2,w
  3316  074D  00F3               	movwf	___xxtofl@val+3
  3317  074E  3001               	movlw	1
  3318  074F  120A  118A  2650  120A  118A  	fcall	___xxtofl
  3319  0754  0873               	movf	?___xxtofl+3,w
  3320  0755  1283               	bcf	3,5	;RP0=0, select bank0
  3321  0756  1303               	bcf	3,6	;RP1=0, select bank0
  3322  0757  00A3               	movwf	___fldiv@a+3
  3323  0758  0872               	movf	?___xxtofl+2,w
  3324  0759  00A2               	movwf	___fldiv@a+2
  3325  075A  0871               	movf	?___xxtofl+1,w
  3326  075B  00A1               	movwf	___fldiv@a+1
  3327  075C  0870               	movf	?___xxtofl,w
  3328  075D  00A0               	movwf	___fldiv@a
  3329  075E  120A  158A  2172  120A  118A  	fcall	___fldiv
  3330  0763  1283               	bcf	3,5	;RP0=0, select bank0
  3331  0764  1303               	bcf	3,6	;RP1=0, select bank0
  3332  0765  0823               	movf	?___fldiv+3,w
  3333  0766  00C1               	movwf	___flmul@a+3
  3334  0767  0822               	movf	?___fldiv+2,w
  3335  0768  00C0               	movwf	___flmul@a+2
  3336  0769  0821               	movf	?___fldiv+1,w
  3337  076A  00BF               	movwf	___flmul@a+1
  3338  076B  0820               	movf	?___fldiv,w
  3339  076C  00BE               	movwf	___flmul@a
  3340  076D  1683               	bsf	3,5	;RP0=1, select bank1
  3341  076E  1303               	bcf	3,6	;RP1=0, select bank1
  3342  076F  083E               	movf	map@x0^(0+128),w
  3343  0770  1283               	bcf	3,5	;RP0=0, select bank0
  3344  0771  1303               	bcf	3,6	;RP1=0, select bank0
  3345  0772  026E               	subwf	map@x,w
  3346  0773  00F0               	movwf	___xxtofl@val
  3347  0774  01F1               	clrf	___xxtofl@val+1
  3348  0775  1C03               	skipc
  3349  0776  03F1               	decf	___xxtofl@val+1,f
  3350  0777  01F2               	clrf	___xxtofl@val+2
  3351  0778  1BF1               	btfsc	___xxtofl@val+1,7
  3352  0779  03F2               	decf	___xxtofl@val+2,f
  3353  077A  0872               	movf	___xxtofl@val+2,w
  3354  077B  00F3               	movwf	___xxtofl@val+3
  3355  077C  3001               	movlw	1
  3356  077D  120A  118A  2650  120A  118A  	fcall	___xxtofl
  3357  0782  0873               	movf	?___xxtofl+3,w
  3358  0783  1283               	bcf	3,5	;RP0=0, select bank0
  3359  0784  1303               	bcf	3,6	;RP1=0, select bank0
  3360  0785  00BD               	movwf	___flmul@b+3
  3361  0786  0872               	movf	?___xxtofl+2,w
  3362  0787  00BC               	movwf	___flmul@b+2
  3363  0788  0871               	movf	?___xxtofl+1,w
  3364  0789  00BB               	movwf	___flmul@b+1
  3365  078A  0870               	movf	?___xxtofl,w
  3366  078B  00BA               	movwf	___flmul@b
  3367  078C  120A  118A  202E  120A  118A  	fcall	___flmul
  3368  0791  1283               	bcf	3,5	;RP0=0, select bank0
  3369  0792  1303               	bcf	3,6	;RP1=0, select bank0
  3370  0793  083D               	movf	?___flmul+3,w
  3371  0794  00D7               	movwf	___fladd@b+3
  3372  0795  083C               	movf	?___flmul+2,w
  3373  0796  00D6               	movwf	___fladd@b+2
  3374  0797  083B               	movf	?___flmul+1,w
  3375  0798  00D5               	movwf	___fladd@b+1
  3376  0799  083A               	movf	?___flmul,w
  3377  079A  00D4               	movwf	___fladd@b
  3378  079B  120A  158A  2578  120A  118A  	fcall	___fladd
  3379  07A0  1283               	bcf	3,5	;RP0=0, select bank0
  3380  07A1  1303               	bcf	3,6	;RP1=0, select bank0
  3381  07A2  0857               	movf	?___fladd+3,w
  3382  07A3  00EB               	movwf	___fltol@f1+3
  3383  07A4  0856               	movf	?___fladd+2,w
  3384  07A5  00EA               	movwf	___fltol@f1+2
  3385  07A6  0855               	movf	?___fladd+1,w
  3386  07A7  00E9               	movwf	___fltol@f1+1
  3387  07A8  0854               	movf	?___fladd,w
  3388  07A9  00E8               	movwf	___fltol@f1
  3389  07AA  120A  158A  20D6  120A  118A  	fcall	___fltol
  3390  07AF  1283               	bcf	3,5	;RP0=0, select bank0
  3391  07B0  1303               	bcf	3,6	;RP1=0, select bank0
  3392  07B1  0869               	movf	?___fltol+1,w
  3393  07B2  1683               	bsf	3,5	;RP0=1, select bank1
  3394  07B3  1303               	bcf	3,6	;RP1=0, select bank1
  3395  07B4  00BF               	movwf	(?_map+1)^(0+128)
  3396  07B5  1283               	bcf	3,5	;RP0=0, select bank0
  3397  07B6  1303               	bcf	3,6	;RP1=0, select bank0
  3398  07B7  0868               	movf	?___fltol,w
  3399  07B8  1683               	bsf	3,5	;RP0=1, select bank1
  3400  07B9  1303               	bcf	3,6	;RP1=0, select bank1
  3401  07BA  00BE               	movwf	?_map^(0+128)
  3402  07BB                     i1l244:
  3403  07BB  0008               	return
  3404  07BC                     __end_of_map:
  3405                           
  3406                           	psect	text10
  3407  0650                     __ptext10:	
  3408 ;; *************** function ___xxtofl *****************
  3409 ;; Defined at:
  3410 ;;		line 10 in file "C:\Program Files\Microchip\xc8\v2.35\pic\sources\c90\common\xxtofl.c"
  3411 ;; Parameters:    Size  Location     Type
  3412 ;;  sign            1    wreg     unsigned char 
  3413 ;;  val             4    0[COMMON] long 
  3414 ;; Auto vars:     Size  Location     Type
  3415 ;;  sign            1    8[COMMON] unsigned char 
  3416 ;;  arg             4   10[COMMON] unsigned long 
  3417 ;;  exp             1    9[COMMON] unsigned char 
  3418 ;; Return value:  Size  Location     Type
  3419 ;;                  4    0[COMMON] unsigned char 
  3420 ;; Registers used:
  3421 ;;		wreg, status,2, status,0
  3422 ;; Tracked objects:
  3423 ;;		On entry : 0/0
  3424 ;;		On exit  : 0/0
  3425 ;;		Unchanged: 0/0
  3426 ;; Data sizes:     COMMON   BANK0   BANK1   BANK3   BANK2
  3427 ;;      Params:         4       0       0       0       0
  3428 ;;      Locals:         6       0       0       0       0
  3429 ;;      Temps:          4       0       0       0       0
  3430 ;;      Totals:        14       0       0       0       0
  3431 ;;Total ram usage:       14 bytes
  3432 ;; Hardware stack levels used: 1
  3433 ;; This function calls:
  3434 ;;		Nothing
  3435 ;; This function is called by:
  3436 ;;		_map
  3437 ;; This function uses a non-reentrant model
  3438 ;;
  3439                           
  3440  0650                     ___xxtofl:	
  3441                           ;psect for function ___xxtofl
  3442                           
  3443                           
  3444                           ;incstack = 0
  3445                           ; Regs used in ___xxtofl: [wreg+status,2+status,0]
  3446                           ;___xxtofl@sign stored from wreg
  3447  0650  00F8               	movwf	___xxtofl@sign
  3448  0651                     i1l2419:
  3449  0651  0878               	movf	___xxtofl@sign,w
  3450  0652  1903               	btfsc	3,2
  3451  0653  2E55               	goto	u315_21
  3452  0654  2E56               	goto	u315_20
  3453  0655                     u315_21:
  3454  0655  2E6A               	goto	i1l2425
  3455  0656                     u315_20:
  3456  0656                     i1l2421:
  3457  0656  1FF3               	btfss	___xxtofl@val+3,7
  3458  0657  2E59               	goto	u316_21
  3459  0658  2E5A               	goto	u316_20
  3460  0659                     u316_21:
  3461  0659  2E6A               	goto	i1l2425
  3462  065A                     u316_20:
  3463  065A                     i1l2423:
  3464  065A  0970               	comf	___xxtofl@val,w
  3465  065B  00FA               	movwf	___xxtofl@arg
  3466  065C  0971               	comf	___xxtofl@val+1,w
  3467  065D  00FB               	movwf	___xxtofl@arg+1
  3468  065E  0972               	comf	___xxtofl@val+2,w
  3469  065F  00FC               	movwf	___xxtofl@arg+2
  3470  0660  0973               	comf	___xxtofl@val+3,w
  3471  0661  00FD               	movwf	___xxtofl@arg+3
  3472  0662  0AFA               	incf	___xxtofl@arg,f
  3473  0663  1903               	skipnz
  3474  0664  0AFB               	incf	___xxtofl@arg+1,f
  3475  0665  1903               	skipnz
  3476  0666  0AFC               	incf	___xxtofl@arg+2,f
  3477  0667  1903               	skipnz
  3478  0668  0AFD               	incf	___xxtofl@arg+3,f
  3479  0669  2E72               	goto	i1l790
  3480  066A                     i1l2425:
  3481  066A  0873               	movf	___xxtofl@val+3,w
  3482  066B  00FD               	movwf	___xxtofl@arg+3
  3483  066C  0872               	movf	___xxtofl@val+2,w
  3484  066D  00FC               	movwf	___xxtofl@arg+2
  3485  066E  0871               	movf	___xxtofl@val+1,w
  3486  066F  00FB               	movwf	___xxtofl@arg+1
  3487  0670  0870               	movf	___xxtofl@val,w
  3488  0671  00FA               	movwf	___xxtofl@arg
  3489  0672                     i1l790:
  3490  0672  0873               	movf	___xxtofl@val+3,w
  3491  0673  0472               	iorwf	___xxtofl@val+2,w
  3492  0674  0471               	iorwf	___xxtofl@val+1,w
  3493  0675  0470               	iorwf	___xxtofl@val,w
  3494  0676  1D03               	skipz
  3495  0677  2E79               	goto	u317_21
  3496  0678  2E7A               	goto	u317_20
  3497  0679                     u317_21:
  3498  0679  2E83               	goto	i1l2431
  3499  067A                     u317_20:
  3500  067A                     i1l2427:
  3501  067A  3000               	movlw	0
  3502  067B  00F3               	movwf	?___xxtofl+3
  3503  067C  3000               	movlw	0
  3504  067D  00F2               	movwf	?___xxtofl+2
  3505  067E  3000               	movlw	0
  3506  067F  00F1               	movwf	?___xxtofl+1
  3507  0680  3000               	movlw	0
  3508  0681  00F0               	movwf	?___xxtofl
  3509  0682  2F09               	goto	i1l792
  3510  0683                     i1l2431:
  3511  0683  3096               	movlw	150
  3512  0684  00F4               	movwf	??___xxtofl
  3513  0685  0874               	movf	??___xxtofl,w
  3514  0686  00F9               	movwf	___xxtofl@exp
  3515  0687  2E95               	goto	i1l2435
  3516  0688                     i1l2433:
  3517  0688  3001               	movlw	1
  3518  0689  00F4               	movwf	??___xxtofl
  3519  068A  0874               	movf	??___xxtofl,w
  3520  068B  07F9               	addwf	___xxtofl@exp,f
  3521  068C  3001               	movlw	1
  3522  068D                     u318_25:
  3523  068D  1003               	clrc
  3524  068E  0CFD               	rrf	___xxtofl@arg+3,f
  3525  068F  0CFC               	rrf	___xxtofl@arg+2,f
  3526  0690  0CFB               	rrf	___xxtofl@arg+1,f
  3527  0691  0CFA               	rrf	___xxtofl@arg,f
  3528  0692  3EFF               	addlw	-1
  3529  0693  1D03               	skipz
  3530  0694  2E8D               	goto	u318_25
  3531  0695                     i1l2435:
  3532  0695  30FE               	movlw	254
  3533  0696  057D               	andwf	___xxtofl@arg+3,w
  3534  0697  1D03               	btfss	3,2
  3535  0698  2E9A               	goto	u319_21
  3536  0699  2E9B               	goto	u319_20
  3537  069A                     u319_21:
  3538  069A  2E88               	goto	i1l2433
  3539  069B                     u319_20:
  3540  069B  2EB7               	goto	i1l796
  3541  069C                     i1l2437:
  3542  069C  3001               	movlw	1
  3543  069D  00F4               	movwf	??___xxtofl
  3544  069E  0874               	movf	??___xxtofl,w
  3545  069F  07F9               	addwf	___xxtofl@exp,f
  3546  06A0                     i1l2439:
  3547  06A0  3001               	movlw	1
  3548  06A1  07FA               	addwf	___xxtofl@arg,f
  3549  06A2  3000               	movlw	0
  3550  06A3  1803               	skipnc
  3551  06A4  3001               	movlw	1
  3552  06A5  07FB               	addwf	___xxtofl@arg+1,f
  3553  06A6  3000               	movlw	0
  3554  06A7  1803               	skipnc
  3555  06A8  3001               	movlw	1
  3556  06A9  07FC               	addwf	___xxtofl@arg+2,f
  3557  06AA  3000               	movlw	0
  3558  06AB  1803               	skipnc
  3559  06AC  3001               	movlw	1
  3560  06AD  07FD               	addwf	___xxtofl@arg+3,f
  3561  06AE                     i1l2441:
  3562  06AE  3001               	movlw	1
  3563  06AF                     u320_25:
  3564  06AF  1003               	clrc
  3565  06B0  0CFD               	rrf	___xxtofl@arg+3,f
  3566  06B1  0CFC               	rrf	___xxtofl@arg+2,f
  3567  06B2  0CFB               	rrf	___xxtofl@arg+1,f
  3568  06B3  0CFA               	rrf	___xxtofl@arg,f
  3569  06B4  3EFF               	addlw	-1
  3570  06B5  1D03               	skipz
  3571  06B6  2EAF               	goto	u320_25
  3572  06B7                     i1l796:
  3573  06B7  30FF               	movlw	255
  3574  06B8  057D               	andwf	___xxtofl@arg+3,w
  3575  06B9  1D03               	btfss	3,2
  3576  06BA  2EBC               	goto	u321_21
  3577  06BB  2EBD               	goto	u321_20
  3578  06BC                     u321_21:
  3579  06BC  2E9C               	goto	i1l2437
  3580  06BD                     u321_20:
  3581  06BD  2EC9               	goto	i1l2445
  3582  06BE                     i1l2443:
  3583  06BE  3001               	movlw	1
  3584  06BF  02F9               	subwf	___xxtofl@exp,f
  3585  06C0  3001               	movlw	1
  3586  06C1  00F4               	movwf	??___xxtofl
  3587  06C2                     u322_25:
  3588  06C2  1003               	clrc
  3589  06C3  0DFA               	rlf	___xxtofl@arg,f
  3590  06C4  0DFB               	rlf	___xxtofl@arg+1,f
  3591  06C5  0DFC               	rlf	___xxtofl@arg+2,f
  3592  06C6  0DFD               	rlf	___xxtofl@arg+3,f
  3593  06C7  0BF4               	decfsz	??___xxtofl,f
  3594  06C8  2EC2               	goto	u322_25
  3595  06C9                     i1l2445:
  3596  06C9  1BFC               	btfsc	___xxtofl@arg+2,7
  3597  06CA  2ECC               	goto	u323_21
  3598  06CB  2ECD               	goto	u323_20
  3599  06CC                     u323_21:
  3600  06CC  2ED3               	goto	i1l803
  3601  06CD                     u323_20:
  3602  06CD                     i1l2447:
  3603  06CD  3002               	movlw	2
  3604  06CE  0279               	subwf	___xxtofl@exp,w
  3605  06CF  1803               	skipnc
  3606  06D0  2ED2               	goto	u324_21
  3607  06D1  2ED3               	goto	u324_20
  3608  06D2                     u324_21:
  3609  06D2  2EBE               	goto	i1l2443
  3610  06D3                     u324_20:
  3611  06D3                     i1l803:
  3612  06D3  1879               	btfsc	___xxtofl@exp,0
  3613  06D4  2ED6               	goto	u325_21
  3614  06D5  2ED7               	goto	u325_20
  3615  06D6                     u325_21:
  3616  06D6  2EDF               	goto	i1l804
  3617  06D7                     u325_20:
  3618  06D7                     i1l2449:
  3619  06D7  30FF               	movlw	255
  3620  06D8  05FA               	andwf	___xxtofl@arg,f
  3621  06D9  30FF               	movlw	255
  3622  06DA  05FB               	andwf	___xxtofl@arg+1,f
  3623  06DB  307F               	movlw	127
  3624  06DC  05FC               	andwf	___xxtofl@arg+2,f
  3625  06DD  30FF               	movlw	255
  3626  06DE  05FD               	andwf	___xxtofl@arg+3,f
  3627  06DF                     i1l804:
  3628  06DF  1003               	clrc
  3629  06E0  0CF9               	rrf	___xxtofl@exp,f
  3630  06E1                     i1l2451:
  3631  06E1  0879               	movf	___xxtofl@exp,w
  3632  06E2  00F4               	movwf	??___xxtofl
  3633  06E3  01F5               	clrf	??___xxtofl+1
  3634  06E4  01F6               	clrf	??___xxtofl+2
  3635  06E5  01F7               	clrf	??___xxtofl+3
  3636  06E6  3018               	movlw	24
  3637  06E7                     u326_25:
  3638  06E7  1003               	clrc
  3639  06E8  0DF4               	rlf	??___xxtofl,f
  3640  06E9  0DF5               	rlf	??___xxtofl+1,f
  3641  06EA  0DF6               	rlf	??___xxtofl+2,f
  3642  06EB  0DF7               	rlf	??___xxtofl+3,f
  3643  06EC                     u326_20:
  3644  06EC  3EFF               	addlw	-1
  3645  06ED  1D03               	skipz
  3646  06EE  2EE7               	goto	u326_25
  3647  06EF  0874               	movf	??___xxtofl,w
  3648  06F0  04FA               	iorwf	___xxtofl@arg,f
  3649  06F1  0875               	movf	??___xxtofl+1,w
  3650  06F2  04FB               	iorwf	___xxtofl@arg+1,f
  3651  06F3  0876               	movf	??___xxtofl+2,w
  3652  06F4  04FC               	iorwf	___xxtofl@arg+2,f
  3653  06F5  0877               	movf	??___xxtofl+3,w
  3654  06F6  04FD               	iorwf	___xxtofl@arg+3,f
  3655  06F7                     i1l2453:
  3656  06F7  0878               	movf	___xxtofl@sign,w
  3657  06F8  1903               	btfsc	3,2
  3658  06F9  2EFB               	goto	u327_21
  3659  06FA  2EFC               	goto	u327_20
  3660  06FB                     u327_21:
  3661  06FB  2F01               	goto	i1l2459
  3662  06FC                     u327_20:
  3663  06FC                     i1l2455:
  3664  06FC  1FF3               	btfss	___xxtofl@val+3,7
  3665  06FD  2EFF               	goto	u328_21
  3666  06FE  2F00               	goto	u328_20
  3667  06FF                     u328_21:
  3668  06FF  2F01               	goto	i1l2459
  3669  0700                     u328_20:
  3670  0700                     i1l2457:
  3671  0700  17FD               	bsf	___xxtofl@arg+3,7
  3672  0701                     i1l2459:
  3673  0701  087D               	movf	___xxtofl@arg+3,w
  3674  0702  00F3               	movwf	?___xxtofl+3
  3675  0703  087C               	movf	___xxtofl@arg+2,w
  3676  0704  00F2               	movwf	?___xxtofl+2
  3677  0705  087B               	movf	___xxtofl@arg+1,w
  3678  0706  00F1               	movwf	?___xxtofl+1
  3679  0707  087A               	movf	___xxtofl@arg,w
  3680  0708  00F0               	movwf	?___xxtofl
  3681  0709                     i1l792:
  3682  0709  0008               	return
  3683  070A                     __end_of___xxtofl:
  3684                           
  3685                           	psect	text11
  3686  08D6                     __ptext11:	
  3687 ;; *************** function ___fltol *****************
  3688 ;; Defined at:
  3689 ;;		line 43 in file "C:\Program Files\Microchip\xc8\v2.35\pic\sources\c90\common\fltol.c"
  3690 ;; Parameters:    Size  Location     Type
  3691 ;;  f1              4   72[BANK0 ] unsigned char 
  3692 ;; Auto vars:     Size  Location     Type
  3693 ;;  exp1            1   77[BANK0 ] unsigned char 
  3694 ;;  sign1           1   76[BANK0 ] unsigned char 
  3695 ;; Return value:  Size  Location     Type
  3696 ;;                  4   72[BANK0 ] long 
  3697 ;; Registers used:
  3698 ;;		wreg, status,2, status,0
  3699 ;; Tracked objects:
  3700 ;;		On entry : 0/0
  3701 ;;		On exit  : 0/0
  3702 ;;		Unchanged: 0/0
  3703 ;; Data sizes:     COMMON   BANK0   BANK1   BANK3   BANK2
  3704 ;;      Params:         0       4       0       0       0
  3705 ;;      Locals:         0       2       0       0       0
  3706 ;;      Temps:          0       0       5       0       0
  3707 ;;      Totals:         0       6       5       0       0
  3708 ;;Total ram usage:       11 bytes
  3709 ;; Hardware stack levels used: 1
  3710 ;; This function calls:
  3711 ;;		Nothing
  3712 ;; This function is called by:
  3713 ;;		_map
  3714 ;; This function uses a non-reentrant model
  3715 ;;
  3716                           
  3717  08D6                     ___fltol:	
  3718                           ;psect for function ___fltol
  3719                           
  3720  08D6                     i1l1907:	
  3721                           ;incstack = 0
  3722                           ; Regs used in ___fltol: [wreg+status,2+status,0]
  3723                           
  3724  08D6  1003               	clrc
  3725  08D7  1283               	bcf	3,5	;RP0=0, select bank0
  3726  08D8  1303               	bcf	3,6	;RP1=0, select bank0
  3727  08D9  0D6A               	rlf	___fltol@f1+2,w
  3728  08DA  0D6B               	rlf	___fltol@f1+3,w
  3729  08DB  1683               	bsf	3,5	;RP0=1, select bank1
  3730  08DC  1303               	bcf	3,6	;RP1=0, select bank1
  3731  08DD  00B9               	movwf	??___fltol^(0+128)
  3732  08DE  0839               	movf	??___fltol^(0+128),w
  3733  08DF  1283               	bcf	3,5	;RP0=0, select bank0
  3734  08E0  1303               	bcf	3,6	;RP1=0, select bank0
  3735  08E1  00ED               	movwf	___fltol@exp1
  3736  08E2  086D               	movf	___fltol@exp1,w
  3737  08E3  1D03               	btfss	3,2
  3738  08E4  28E6               	goto	u193_21
  3739  08E5  28E7               	goto	u193_20
  3740  08E6                     u193_21:
  3741  08E6  28F0               	goto	i1l1913
  3742  08E7                     u193_20:
  3743  08E7                     i1l1909:
  3744  08E7  3000               	movlw	0
  3745  08E8  00EB               	movwf	?___fltol+3
  3746  08E9  3000               	movlw	0
  3747  08EA  00EA               	movwf	?___fltol+2
  3748  08EB  3000               	movlw	0
  3749  08EC  00E9               	movwf	?___fltol+1
  3750  08ED  3000               	movlw	0
  3751  08EE  00E8               	movwf	?___fltol
  3752  08EF  2971               	goto	i1l543
  3753  08F0                     i1l1913:
  3754  08F0  0868               	movf	___fltol@f1,w
  3755  08F1  1683               	bsf	3,5	;RP0=1, select bank1
  3756  08F2  1303               	bcf	3,6	;RP1=0, select bank1
  3757  08F3  00B9               	movwf	??___fltol^(0+128)
  3758  08F4  1283               	bcf	3,5	;RP0=0, select bank0
  3759  08F5  1303               	bcf	3,6	;RP1=0, select bank0
  3760  08F6  0869               	movf	___fltol@f1+1,w
  3761  08F7  1683               	bsf	3,5	;RP0=1, select bank1
  3762  08F8  1303               	bcf	3,6	;RP1=0, select bank1
  3763  08F9  00BA               	movwf	(??___fltol^(0+128)+1)
  3764  08FA  1283               	bcf	3,5	;RP0=0, select bank0
  3765  08FB  1303               	bcf	3,6	;RP1=0, select bank0
  3766  08FC  086A               	movf	___fltol@f1+2,w
  3767  08FD  1683               	bsf	3,5	;RP0=1, select bank1
  3768  08FE  1303               	bcf	3,6	;RP1=0, select bank1
  3769  08FF  00BB               	movwf	(??___fltol^(0+128)+2)
  3770  0900  1283               	bcf	3,5	;RP0=0, select bank0
  3771  0901  1303               	bcf	3,6	;RP1=0, select bank0
  3772  0902  086B               	movf	___fltol@f1+3,w
  3773  0903  1683               	bsf	3,5	;RP0=1, select bank1
  3774  0904  1303               	bcf	3,6	;RP1=0, select bank1
  3775  0905  00BC               	movwf	(??___fltol^(0+128)+3)
  3776  0906  301F               	movlw	31
  3777  0907                     u194_25:
  3778  0907  1003               	clrc
  3779  0908  0CBC               	rrf	(??___fltol^(0+128)+3),f
  3780  0909  0CBB               	rrf	(??___fltol^(0+128)+2),f
  3781  090A  0CBA               	rrf	(??___fltol^(0+128)+1),f
  3782  090B  0CB9               	rrf	??___fltol^(0+128),f
  3783  090C                     u194_20:
  3784  090C  3EFF               	addlw	-1
  3785  090D  1D03               	skipz
  3786  090E  2907               	goto	u194_25
  3787  090F  0839               	movf	??___fltol^(0+128),w
  3788  0910  00BD               	movwf	(??___fltol+4)^(0+128)
  3789  0911  083D               	movf	(??___fltol+4)^(0+128),w
  3790  0912  1283               	bcf	3,5	;RP0=0, select bank0
  3791  0913  1303               	bcf	3,6	;RP1=0, select bank0
  3792  0914  00EC               	movwf	___fltol@sign1
  3793  0915                     i1l1915:
  3794  0915  17EA               	bsf	___fltol@f1+2,7
  3795  0916                     i1l1917:
  3796  0916  30FF               	movlw	255
  3797  0917  05E8               	andwf	___fltol@f1,f
  3798  0918  30FF               	movlw	255
  3799  0919  05E9               	andwf	___fltol@f1+1,f
  3800  091A  30FF               	movlw	255
  3801  091B  05EA               	andwf	___fltol@f1+2,f
  3802  091C  3000               	movlw	0
  3803  091D  05EB               	andwf	___fltol@f1+3,f
  3804  091E                     i1l1919:
  3805  091E  3096               	movlw	150
  3806  091F  02ED               	subwf	___fltol@exp1,f
  3807  0920                     i1l1921:
  3808  0920  1FED               	btfss	___fltol@exp1,7
  3809  0921  2923               	goto	u195_21
  3810  0922  2924               	goto	u195_20
  3811  0923                     u195_21:
  3812  0923  2942               	goto	i1l1931
  3813  0924                     u195_20:
  3814  0924                     i1l1923:
  3815  0924  086D               	movf	___fltol@exp1,w
  3816  0925  3A80               	xorlw	128
  3817  0926  3E97               	addlw	151
  3818  0927  1803               	skipnc
  3819  0928  292A               	goto	u196_21
  3820  0929  292B               	goto	u196_20
  3821  092A                     u196_21:
  3822  092A  292C               	goto	i1l1929
  3823  092B                     u196_20:
  3824  092B  28E7               	goto	i1l1909
  3825  092C                     i1l1929:
  3826  092C  3001               	movlw	1
  3827  092D                     u197_25:
  3828  092D  1003               	clrc
  3829  092E  0CEB               	rrf	___fltol@f1+3,f
  3830  092F  0CEA               	rrf	___fltol@f1+2,f
  3831  0930  0CE9               	rrf	___fltol@f1+1,f
  3832  0931  0CE8               	rrf	___fltol@f1,f
  3833  0932  3EFF               	addlw	-1
  3834  0933  1D03               	skipz
  3835  0934  292D               	goto	u197_25
  3836  0935  3001               	movlw	1
  3837  0936  1683               	bsf	3,5	;RP0=1, select bank1
  3838  0937  1303               	bcf	3,6	;RP1=0, select bank1
  3839  0938  00B9               	movwf	??___fltol^(0+128)
  3840  0939  0839               	movf	??___fltol^(0+128),w
  3841  093A  1283               	bcf	3,5	;RP0=0, select bank0
  3842  093B  1303               	bcf	3,6	;RP1=0, select bank0
  3843  093C  07ED               	addwf	___fltol@exp1,f
  3844  093D  1D03               	btfss	3,2
  3845  093E  2940               	goto	u198_21
  3846  093F  2941               	goto	u198_20
  3847  0940                     u198_21:
  3848  0940  292C               	goto	i1l1929
  3849  0941                     u198_20:
  3850  0941  2961               	goto	i1l1939
  3851  0942                     i1l1931:
  3852  0942  3020               	movlw	32
  3853  0943  026D               	subwf	___fltol@exp1,w
  3854  0944  1C03               	skipc
  3855  0945  2947               	goto	u199_21
  3856  0946  2948               	goto	u199_20
  3857  0947                     u199_21:
  3858  0947  295C               	goto	i1l550
  3859  0948                     u199_20:
  3860  0948  28E7               	goto	i1l1909
  3861  0949                     i1l1937:
  3862  0949  3001               	movlw	1
  3863  094A  1683               	bsf	3,5	;RP0=1, select bank1
  3864  094B  1303               	bcf	3,6	;RP1=0, select bank1
  3865  094C  00B9               	movwf	??___fltol^(0+128)
  3866  094D                     u200_25:
  3867  094D  1003               	clrc
  3868  094E  1283               	bcf	3,5	;RP0=0, select bank0
  3869  094F  1303               	bcf	3,6	;RP1=0, select bank0
  3870  0950  0DE8               	rlf	___fltol@f1,f
  3871  0951  0DE9               	rlf	___fltol@f1+1,f
  3872  0952  0DEA               	rlf	___fltol@f1+2,f
  3873  0953  0DEB               	rlf	___fltol@f1+3,f
  3874  0954  1683               	bsf	3,5	;RP0=1, select bank1
  3875  0955  1303               	bcf	3,6	;RP1=0, select bank1
  3876  0956  0BB9               	decfsz	??___fltol^(0+128),f
  3877  0957  294D               	goto	u200_25
  3878  0958  3001               	movlw	1
  3879  0959  1283               	bcf	3,5	;RP0=0, select bank0
  3880  095A  1303               	bcf	3,6	;RP1=0, select bank0
  3881  095B  02ED               	subwf	___fltol@exp1,f
  3882  095C                     i1l550:
  3883  095C  086D               	movf	___fltol@exp1,w
  3884  095D  1D03               	btfss	3,2
  3885  095E  2960               	goto	u201_21
  3886  095F  2961               	goto	u201_20
  3887  0960                     u201_21:
  3888  0960  2949               	goto	i1l1937
  3889  0961                     u201_20:
  3890  0961                     i1l1939:
  3891  0961  086C               	movf	___fltol@sign1,w
  3892  0962  1903               	btfsc	3,2
  3893  0963  2965               	goto	u202_21
  3894  0964  2966               	goto	u202_20
  3895  0965                     u202_21:
  3896  0965  2971               	goto	i1l553
  3897  0966                     u202_20:
  3898  0966                     i1l1941:
  3899  0966  09E8               	comf	___fltol@f1,f
  3900  0967  09E9               	comf	___fltol@f1+1,f
  3901  0968  09EA               	comf	___fltol@f1+2,f
  3902  0969  09EB               	comf	___fltol@f1+3,f
  3903  096A  0AE8               	incf	___fltol@f1,f
  3904  096B  1903               	skipnz
  3905  096C  0AE9               	incf	___fltol@f1+1,f
  3906  096D  1903               	skipnz
  3907  096E  0AEA               	incf	___fltol@f1+2,f
  3908  096F  1903               	skipnz
  3909  0970  0AEB               	incf	___fltol@f1+3,f
  3910  0971                     i1l553:
  3911  0971                     i1l543:
  3912  0971  0008               	return
  3913  0972                     __end_of___fltol:
  3914                           
  3915                           	psect	text12
  3916  002E                     __ptext12:	
  3917 ;; *************** function ___flmul *****************
  3918 ;; Defined at:
  3919 ;;		line 8 in file "C:\Program Files\Microchip\xc8\v2.35\pic\sources\c90\common\sprcmul.c"
  3920 ;; Parameters:    Size  Location     Type
  3921 ;;  b               4   26[BANK0 ] long 
  3922 ;;  a               4   30[BANK0 ] long 
  3923 ;; Auto vars:     Size  Location     Type
  3924 ;;  prod            4   46[BANK0 ] struct .
  3925 ;;  grs             4   40[BANK0 ] unsigned long 
  3926 ;;  temp            2   50[BANK0 ] struct .
  3927 ;;  bexp            1   45[BANK0 ] unsigned char 
  3928 ;;  aexp            1   44[BANK0 ] unsigned char 
  3929 ;;  sign            1   39[BANK0 ] unsigned char 
  3930 ;; Return value:  Size  Location     Type
  3931 ;;                  4   26[BANK0 ] unsigned char 
  3932 ;; Registers used:
  3933 ;;		wreg, status,2, status,0, btemp+1, pclath, cstack
  3934 ;; Tracked objects:
  3935 ;;		On entry : 0/0
  3936 ;;		On exit  : 0/0
  3937 ;;		Unchanged: 0/0
  3938 ;; Data sizes:     COMMON   BANK0   BANK1   BANK3   BANK2
  3939 ;;      Params:         0       8       0       0       0
  3940 ;;      Locals:         0      13       0       0       0
  3941 ;;      Temps:          0       5       0       0       0
  3942 ;;      Totals:         0      26       0       0       0
  3943 ;;Total ram usage:       26 bytes
  3944 ;; Hardware stack levels used: 1
  3945 ;; Hardware stack levels required when called: 1
  3946 ;; This function calls:
  3947 ;;		__Umul8_16
  3948 ;; This function is called by:
  3949 ;;		_map
  3950 ;; This function uses a non-reentrant model
  3951 ;;
  3952                           
  3953  002E                     ___flmul:	
  3954                           ;psect for function ___flmul
  3955                           
  3956  002E                     i1l2279:	
  3957                           ;incstack = 0
  3958                           ; Regs used in ___flmul: [wreg+status,2+status,0+btemp+1+pclath+cstack]
  3959                           
  3960  002E  1283               	bcf	3,5	;RP0=0, select bank0
  3961  002F  1303               	bcf	3,6	;RP1=0, select bank0
  3962  0030  083D               	movf	___flmul@b+3,w
  3963  0031  3980               	andlw	128
  3964  0032  00C2               	movwf	??___flmul
  3965  0033  0842               	movf	??___flmul,w
  3966  0034  00C7               	movwf	___flmul@sign
  3967  0035                     i1l2281:
  3968  0035  083D               	movf	___flmul@b+3,w
  3969  0036  00C2               	movwf	??___flmul
  3970  0037  0742               	addwf	??___flmul,w
  3971  0038  00C3               	movwf	??___flmul+1
  3972  0039  0843               	movf	??___flmul+1,w
  3973  003A  00CD               	movwf	___flmul@bexp
  3974  003B                     i1l2283:
  3975  003B  1FBC               	btfss	___flmul@b+2,7
  3976  003C  283E               	goto	u278_21
  3977  003D  283F               	goto	u278_20
  3978  003E                     u278_21:
  3979  003E  2840               	goto	i1l2287
  3980  003F                     u278_20:
  3981  003F                     i1l2285:
  3982  003F  144D               	bsf	___flmul@bexp,0
  3983  0040                     i1l2287:
  3984  0040  084D               	movf	___flmul@bexp,w
  3985  0041  1903               	btfsc	3,2
  3986  0042  2844               	goto	u279_21
  3987  0043  2845               	goto	u279_20
  3988  0044                     u279_21:
  3989  0044  2854               	goto	i1l2295
  3990  0045                     u279_20:
  3991  0045                     i1l2289:
  3992  0045  0A4D               	incf	___flmul@bexp,w
  3993  0046  1D03               	btfss	3,2
  3994  0047  2849               	goto	u280_21
  3995  0048  284A               	goto	u280_20
  3996  0049                     u280_21:
  3997  0049  2852               	goto	i1l2293
  3998  004A                     u280_20:
  3999  004A                     i1l2291:
  4000  004A  3000               	movlw	0
  4001  004B  00BD               	movwf	___flmul@b+3
  4002  004C  3000               	movlw	0
  4003  004D  00BC               	movwf	___flmul@b+2
  4004  004E  3000               	movlw	0
  4005  004F  00BB               	movwf	___flmul@b+1
  4006  0050  3000               	movlw	0
  4007  0051  00BA               	movwf	___flmul@b
  4008  0052                     i1l2293:
  4009  0052  17BC               	bsf	___flmul@b+2,7
  4010  0053  285C               	goto	i1l2297
  4011  0054                     i1l2295:
  4012  0054  3000               	movlw	0
  4013  0055  00BD               	movwf	___flmul@b+3
  4014  0056  3000               	movlw	0
  4015  0057  00BC               	movwf	___flmul@b+2
  4016  0058  3000               	movlw	0
  4017  0059  00BB               	movwf	___flmul@b+1
  4018  005A  3000               	movlw	0
  4019  005B  00BA               	movwf	___flmul@b
  4020  005C                     i1l2297:
  4021  005C  0841               	movf	___flmul@a+3,w
  4022  005D  3980               	andlw	128
  4023  005E  00C2               	movwf	??___flmul
  4024  005F  0842               	movf	??___flmul,w
  4025  0060  06C7               	xorwf	___flmul@sign,f
  4026  0061                     i1l2299:
  4027  0061  0841               	movf	___flmul@a+3,w
  4028  0062  00C2               	movwf	??___flmul
  4029  0063  0742               	addwf	??___flmul,w
  4030  0064  00C3               	movwf	??___flmul+1
  4031  0065  0843               	movf	??___flmul+1,w
  4032  0066  00CC               	movwf	___flmul@aexp
  4033  0067                     i1l2301:
  4034  0067  1FC0               	btfss	___flmul@a+2,7
  4035  0068  286A               	goto	u281_21
  4036  0069  286B               	goto	u281_20
  4037  006A                     u281_21:
  4038  006A  286C               	goto	i1l2305
  4039  006B                     u281_20:
  4040  006B                     i1l2303:
  4041  006B  144C               	bsf	___flmul@aexp,0
  4042  006C                     i1l2305:
  4043  006C  084C               	movf	___flmul@aexp,w
  4044  006D  1903               	btfsc	3,2
  4045  006E  2870               	goto	u282_21
  4046  006F  2871               	goto	u282_20
  4047  0070                     u282_21:
  4048  0070  2880               	goto	i1l2313
  4049  0071                     u282_20:
  4050  0071                     i1l2307:
  4051  0071  0A4C               	incf	___flmul@aexp,w
  4052  0072  1D03               	btfss	3,2
  4053  0073  2875               	goto	u283_21
  4054  0074  2876               	goto	u283_20
  4055  0075                     u283_21:
  4056  0075  287E               	goto	i1l2311
  4057  0076                     u283_20:
  4058  0076                     i1l2309:
  4059  0076  3000               	movlw	0
  4060  0077  00C1               	movwf	___flmul@a+3
  4061  0078  3000               	movlw	0
  4062  0079  00C0               	movwf	___flmul@a+2
  4063  007A  3000               	movlw	0
  4064  007B  00BF               	movwf	___flmul@a+1
  4065  007C  3000               	movlw	0
  4066  007D  00BE               	movwf	___flmul@a
  4067  007E                     i1l2311:
  4068  007E  17C0               	bsf	___flmul@a+2,7
  4069  007F  2888               	goto	i1l2315
  4070  0080                     i1l2313:
  4071  0080  3000               	movlw	0
  4072  0081  00C1               	movwf	___flmul@a+3
  4073  0082  3000               	movlw	0
  4074  0083  00C0               	movwf	___flmul@a+2
  4075  0084  3000               	movlw	0
  4076  0085  00BF               	movwf	___flmul@a+1
  4077  0086  3000               	movlw	0
  4078  0087  00BE               	movwf	___flmul@a
  4079  0088                     i1l2315:
  4080  0088  084C               	movf	___flmul@aexp,w
  4081  0089  1903               	btfsc	3,2
  4082  008A  288C               	goto	u284_21
  4083  008B  288D               	goto	u284_20
  4084  008C                     u284_21:
  4085  008C  2892               	goto	i1l2319
  4086  008D                     u284_20:
  4087  008D                     i1l2317:
  4088  008D  084D               	movf	___flmul@bexp,w
  4089  008E  1D03               	btfss	3,2
  4090  008F  2891               	goto	u285_21
  4091  0090  2892               	goto	u285_20
  4092  0091                     u285_21:
  4093  0091  289B               	goto	i1l2323
  4094  0092                     u285_20:
  4095  0092                     i1l2319:
  4096  0092  3000               	movlw	0
  4097  0093  00BD               	movwf	?___flmul+3
  4098  0094  3000               	movlw	0
  4099  0095  00BC               	movwf	?___flmul+2
  4100  0096  3000               	movlw	0
  4101  0097  00BB               	movwf	?___flmul+1
  4102  0098  3000               	movlw	0
  4103  0099  00BA               	movwf	?___flmul
  4104  009A  2B8E               	goto	i1l746
  4105  009B                     i1l2323:
  4106  009B  083A               	movf	___flmul@b,w
  4107  009C  00C2               	movwf	??___flmul
  4108  009D  0842               	movf	??___flmul,w
  4109  009E  00F0               	movwf	__Umul8_16@multiplicand
  4110  009F  0840               	movf	___flmul@a+2,w
  4111  00A0  120A  158A  2039  120A  118A  	fcall	__Umul8_16
  4112  00A5  0871               	movf	?__Umul8_16+1,w
  4113  00A6  1283               	bcf	3,5	;RP0=0, select bank0
  4114  00A7  1303               	bcf	3,6	;RP1=0, select bank0
  4115  00A8  00D3               	movwf	___flmul@temp+1
  4116  00A9  0870               	movf	?__Umul8_16,w
  4117  00AA  00D2               	movwf	___flmul@temp
  4118  00AB                     i1l2325:
  4119  00AB  0852               	movf	___flmul@temp,w
  4120  00AC  00C2               	movwf	??___flmul
  4121  00AD  01C3               	clrf	??___flmul+1
  4122  00AE  01C4               	clrf	??___flmul+2
  4123  00AF  01C5               	clrf	??___flmul+3
  4124  00B0  0845               	movf	??___flmul+3,w
  4125  00B1  00CB               	movwf	___flmul@grs+3
  4126  00B2  0844               	movf	??___flmul+2,w
  4127  00B3  00CA               	movwf	___flmul@grs+2
  4128  00B4  0843               	movf	??___flmul+1,w
  4129  00B5  00C9               	movwf	___flmul@grs+1
  4130  00B6  0842               	movf	??___flmul,w
  4131  00B7  00C8               	movwf	___flmul@grs
  4132  00B8                     i1l2327:
  4133  00B8  0853               	movf	___flmul@temp+1,w
  4134  00B9  00C2               	movwf	??___flmul
  4135  00BA  01C3               	clrf	??___flmul+1
  4136  00BB  01C4               	clrf	??___flmul+2
  4137  00BC  01C5               	clrf	??___flmul+3
  4138  00BD  0845               	movf	??___flmul+3,w
  4139  00BE  00D1               	movwf	___flmul@prod+3
  4140  00BF  0844               	movf	??___flmul+2,w
  4141  00C0  00D0               	movwf	___flmul@prod+2
  4142  00C1  0843               	movf	??___flmul+1,w
  4143  00C2  00CF               	movwf	___flmul@prod+1
  4144  00C3  0842               	movf	??___flmul,w
  4145  00C4  00CE               	movwf	___flmul@prod
  4146  00C5  083B               	movf	___flmul@b+1,w
  4147  00C6  00C2               	movwf	??___flmul
  4148  00C7  0842               	movf	??___flmul,w
  4149  00C8  00F0               	movwf	__Umul8_16@multiplicand
  4150  00C9  083F               	movf	___flmul@a+1,w
  4151  00CA  120A  158A  2039  120A  118A  	fcall	__Umul8_16
  4152  00CF  0871               	movf	?__Umul8_16+1,w
  4153  00D0  1283               	bcf	3,5	;RP0=0, select bank0
  4154  00D1  1303               	bcf	3,6	;RP1=0, select bank0
  4155  00D2  00D3               	movwf	___flmul@temp+1
  4156  00D3  0870               	movf	?__Umul8_16,w
  4157  00D4  00D2               	movwf	___flmul@temp
  4158  00D5                     i1l2329:
  4159  00D5  0852               	movf	___flmul@temp,w
  4160  00D6  00C2               	movwf	??___flmul
  4161  00D7  01C3               	clrf	??___flmul+1
  4162  00D8  01C4               	clrf	??___flmul+2
  4163  00D9  01C5               	clrf	??___flmul+3
  4164  00DA  0842               	movf	??___flmul,w
  4165  00DB  07C8               	addwf	___flmul@grs,f
  4166  00DC  0843               	movf	??___flmul+1,w
  4167  00DD  1103               	clrz
  4168  00DE  1803               	skipnc
  4169  00DF  3E01               	addlw	1
  4170  00E0  1903               	skipnz
  4171  00E1  28E3               	goto	u286_21
  4172  00E2  07C9               	addwf	___flmul@grs+1,f
  4173  00E3                     u286_21:
  4174  00E3  0844               	movf	??___flmul+2,w
  4175  00E4  1103               	clrz
  4176  00E5  1803               	skipnc
  4177  00E6  3E01               	addlw	1
  4178  00E7  1903               	skipnz
  4179  00E8  28EA               	goto	u286_22
  4180  00E9  07CA               	addwf	___flmul@grs+2,f
  4181  00EA                     u286_22:
  4182  00EA  0845               	movf	??___flmul+3,w
  4183  00EB  1103               	clrz
  4184  00EC  1803               	skipnc
  4185  00ED  3E01               	addlw	1
  4186  00EE  1903               	skipnz
  4187  00EF  28F1               	goto	u286_23
  4188  00F0  07CB               	addwf	___flmul@grs+3,f
  4189  00F1                     u286_23:
  4190  00F1                     i1l2331:
  4191  00F1  0853               	movf	___flmul@temp+1,w
  4192  00F2  00C2               	movwf	??___flmul
  4193  00F3  01C3               	clrf	??___flmul+1
  4194  00F4  01C4               	clrf	??___flmul+2
  4195  00F5  01C5               	clrf	??___flmul+3
  4196  00F6  0842               	movf	??___flmul,w
  4197  00F7  07CE               	addwf	___flmul@prod,f
  4198  00F8  0843               	movf	??___flmul+1,w
  4199  00F9  1103               	clrz
  4200  00FA  1803               	skipnc
  4201  00FB  3E01               	addlw	1
  4202  00FC  1903               	skipnz
  4203  00FD  28FF               	goto	u287_21
  4204  00FE  07CF               	addwf	___flmul@prod+1,f
  4205  00FF                     u287_21:
  4206  00FF  0844               	movf	??___flmul+2,w
  4207  0100  1103               	clrz
  4208  0101  1803               	skipnc
  4209  0102  3E01               	addlw	1
  4210  0103  1903               	skipnz
  4211  0104  2906               	goto	u287_22
  4212  0105  07D0               	addwf	___flmul@prod+2,f
  4213  0106                     u287_22:
  4214  0106  0845               	movf	??___flmul+3,w
  4215  0107  1103               	clrz
  4216  0108  1803               	skipnc
  4217  0109  3E01               	addlw	1
  4218  010A  1903               	skipnz
  4219  010B  290D               	goto	u287_23
  4220  010C  07D1               	addwf	___flmul@prod+3,f
  4221  010D                     u287_23:
  4222  010D  083C               	movf	___flmul@b+2,w
  4223  010E  00C2               	movwf	??___flmul
  4224  010F  0842               	movf	??___flmul,w
  4225  0110  00F0               	movwf	__Umul8_16@multiplicand
  4226  0111  083E               	movf	___flmul@a,w
  4227  0112  120A  158A  2039  120A  118A  	fcall	__Umul8_16
  4228  0117  0871               	movf	?__Umul8_16+1,w
  4229  0118  1283               	bcf	3,5	;RP0=0, select bank0
  4230  0119  1303               	bcf	3,6	;RP1=0, select bank0
  4231  011A  00D3               	movwf	___flmul@temp+1
  4232  011B  0870               	movf	?__Umul8_16,w
  4233  011C  00D2               	movwf	___flmul@temp
  4234  011D                     i1l2333:
  4235  011D  0852               	movf	___flmul@temp,w
  4236  011E  00C2               	movwf	??___flmul
  4237  011F  01C3               	clrf	??___flmul+1
  4238  0120  01C4               	clrf	??___flmul+2
  4239  0121  01C5               	clrf	??___flmul+3
  4240  0122  0842               	movf	??___flmul,w
  4241  0123  07C8               	addwf	___flmul@grs,f
  4242  0124  0843               	movf	??___flmul+1,w
  4243  0125  1103               	clrz
  4244  0126  1803               	skipnc
  4245  0127  3E01               	addlw	1
  4246  0128  1903               	skipnz
  4247  0129  292B               	goto	u288_21
  4248  012A  07C9               	addwf	___flmul@grs+1,f
  4249  012B                     u288_21:
  4250  012B  0844               	movf	??___flmul+2,w
  4251  012C  1103               	clrz
  4252  012D  1803               	skipnc
  4253  012E  3E01               	addlw	1
  4254  012F  1903               	skipnz
  4255  0130  2932               	goto	u288_22
  4256  0131  07CA               	addwf	___flmul@grs+2,f
  4257  0132                     u288_22:
  4258  0132  0845               	movf	??___flmul+3,w
  4259  0133  1103               	clrz
  4260  0134  1803               	skipnc
  4261  0135  3E01               	addlw	1
  4262  0136  1903               	skipnz
  4263  0137  2939               	goto	u288_23
  4264  0138  07CB               	addwf	___flmul@grs+3,f
  4265  0139                     u288_23:
  4266  0139                     i1l2335:
  4267  0139  0853               	movf	___flmul@temp+1,w
  4268  013A  00C2               	movwf	??___flmul
  4269  013B  01C3               	clrf	??___flmul+1
  4270  013C  01C4               	clrf	??___flmul+2
  4271  013D  01C5               	clrf	??___flmul+3
  4272  013E  0842               	movf	??___flmul,w
  4273  013F  07CE               	addwf	___flmul@prod,f
  4274  0140  0843               	movf	??___flmul+1,w
  4275  0141  1103               	clrz
  4276  0142  1803               	skipnc
  4277  0143  3E01               	addlw	1
  4278  0144  1903               	skipnz
  4279  0145  2947               	goto	u289_21
  4280  0146  07CF               	addwf	___flmul@prod+1,f
  4281  0147                     u289_21:
  4282  0147  0844               	movf	??___flmul+2,w
  4283  0148  1103               	clrz
  4284  0149  1803               	skipnc
  4285  014A  3E01               	addlw	1
  4286  014B  1903               	skipnz
  4287  014C  294E               	goto	u289_22
  4288  014D  07D0               	addwf	___flmul@prod+2,f
  4289  014E                     u289_22:
  4290  014E  0845               	movf	??___flmul+3,w
  4291  014F  1103               	clrz
  4292  0150  1803               	skipnc
  4293  0151  3E01               	addlw	1
  4294  0152  1903               	skipnz
  4295  0153  2955               	goto	u289_23
  4296  0154  07D1               	addwf	___flmul@prod+3,f
  4297  0155                     u289_23:
  4298  0155                     i1l2337:
  4299  0155  3008               	movlw	8
  4300  0156  00C2               	movwf	??___flmul
  4301  0157                     u290_25:
  4302  0157  1003               	clrc
  4303  0158  0DC8               	rlf	___flmul@grs,f
  4304  0159  0DC9               	rlf	___flmul@grs+1,f
  4305  015A  0DCA               	rlf	___flmul@grs+2,f
  4306  015B  0DCB               	rlf	___flmul@grs+3,f
  4307  015C  0BC2               	decfsz	??___flmul,f
  4308  015D  2957               	goto	u290_25
  4309  015E                     i1l2339:
  4310  015E  083B               	movf	___flmul@b+1,w
  4311  015F  00C2               	movwf	??___flmul
  4312  0160  0842               	movf	??___flmul,w
  4313  0161  00F0               	movwf	__Umul8_16@multiplicand
  4314  0162  083E               	movf	___flmul@a,w
  4315  0163  120A  158A  2039  120A  118A  	fcall	__Umul8_16
  4316  0168  0871               	movf	?__Umul8_16+1,w
  4317  0169  1283               	bcf	3,5	;RP0=0, select bank0
  4318  016A  1303               	bcf	3,6	;RP1=0, select bank0
  4319  016B  00D3               	movwf	___flmul@temp+1
  4320  016C  0870               	movf	?__Umul8_16,w
  4321  016D  00D2               	movwf	___flmul@temp
  4322  016E                     i1l2341:
  4323  016E  0852               	movf	___flmul@temp,w
  4324  016F  00C2               	movwf	??___flmul
  4325  0170  0853               	movf	___flmul@temp+1,w
  4326  0171  00C3               	movwf	??___flmul+1
  4327  0172  01C4               	clrf	??___flmul+2
  4328  0173  01C5               	clrf	??___flmul+3
  4329  0174  0842               	movf	??___flmul,w
  4330  0175  07C8               	addwf	___flmul@grs,f
  4331  0176  0843               	movf	??___flmul+1,w
  4332  0177  1103               	clrz
  4333  0178  1803               	skipnc
  4334  0179  3E01               	addlw	1
  4335  017A  1903               	skipnz
  4336  017B  297D               	goto	u291_21
  4337  017C  07C9               	addwf	___flmul@grs+1,f
  4338  017D                     u291_21:
  4339  017D  0844               	movf	??___flmul+2,w
  4340  017E  1103               	clrz
  4341  017F  1803               	skipnc
  4342  0180  3E01               	addlw	1
  4343  0181  1903               	skipnz
  4344  0182  2984               	goto	u291_22
  4345  0183  07CA               	addwf	___flmul@grs+2,f
  4346  0184                     u291_22:
  4347  0184  0845               	movf	??___flmul+3,w
  4348  0185  1103               	clrz
  4349  0186  1803               	skipnc
  4350  0187  3E01               	addlw	1
  4351  0188  1903               	skipnz
  4352  0189  298B               	goto	u291_23
  4353  018A  07CB               	addwf	___flmul@grs+3,f
  4354  018B                     u291_23:
  4355  018B                     i1l2343:
  4356  018B  083A               	movf	___flmul@b,w
  4357  018C  00C2               	movwf	??___flmul
  4358  018D  0842               	movf	??___flmul,w
  4359  018E  00F0               	movwf	__Umul8_16@multiplicand
  4360  018F  083F               	movf	___flmul@a+1,w
  4361  0190  120A  158A  2039  120A  118A  	fcall	__Umul8_16
  4362  0195  0871               	movf	?__Umul8_16+1,w
  4363  0196  1283               	bcf	3,5	;RP0=0, select bank0
  4364  0197  1303               	bcf	3,6	;RP1=0, select bank0
  4365  0198  00D3               	movwf	___flmul@temp+1
  4366  0199  0870               	movf	?__Umul8_16,w
  4367  019A  00D2               	movwf	___flmul@temp
  4368  019B                     i1l2345:
  4369  019B  0852               	movf	___flmul@temp,w
  4370  019C  00C2               	movwf	??___flmul
  4371  019D  0853               	movf	___flmul@temp+1,w
  4372  019E  00C3               	movwf	??___flmul+1
  4373  019F  01C4               	clrf	??___flmul+2
  4374  01A0  01C5               	clrf	??___flmul+3
  4375  01A1  0842               	movf	??___flmul,w
  4376  01A2  07C8               	addwf	___flmul@grs,f
  4377  01A3  0843               	movf	??___flmul+1,w
  4378  01A4  1103               	clrz
  4379  01A5  1803               	skipnc
  4380  01A6  3E01               	addlw	1
  4381  01A7  1903               	skipnz
  4382  01A8  29AA               	goto	u292_21
  4383  01A9  07C9               	addwf	___flmul@grs+1,f
  4384  01AA                     u292_21:
  4385  01AA  0844               	movf	??___flmul+2,w
  4386  01AB  1103               	clrz
  4387  01AC  1803               	skipnc
  4388  01AD  3E01               	addlw	1
  4389  01AE  1903               	skipnz
  4390  01AF  29B1               	goto	u292_22
  4391  01B0  07CA               	addwf	___flmul@grs+2,f
  4392  01B1                     u292_22:
  4393  01B1  0845               	movf	??___flmul+3,w
  4394  01B2  1103               	clrz
  4395  01B3  1803               	skipnc
  4396  01B4  3E01               	addlw	1
  4397  01B5  1903               	skipnz
  4398  01B6  29B8               	goto	u292_23
  4399  01B7  07CB               	addwf	___flmul@grs+3,f
  4400  01B8                     u292_23:
  4401  01B8                     i1l2347:
  4402  01B8  3008               	movlw	8
  4403  01B9  00C2               	movwf	??___flmul
  4404  01BA                     u293_25:
  4405  01BA  1003               	clrc
  4406  01BB  0DC8               	rlf	___flmul@grs,f
  4407  01BC  0DC9               	rlf	___flmul@grs+1,f
  4408  01BD  0DCA               	rlf	___flmul@grs+2,f
  4409  01BE  0DCB               	rlf	___flmul@grs+3,f
  4410  01BF  0BC2               	decfsz	??___flmul,f
  4411  01C0  29BA               	goto	u293_25
  4412  01C1  083A               	movf	___flmul@b,w
  4413  01C2  00C2               	movwf	??___flmul
  4414  01C3  0842               	movf	??___flmul,w
  4415  01C4  00F0               	movwf	__Umul8_16@multiplicand
  4416  01C5  083E               	movf	___flmul@a,w
  4417  01C6  120A  158A  2039  120A  118A  	fcall	__Umul8_16
  4418  01CB  0871               	movf	?__Umul8_16+1,w
  4419  01CC  1283               	bcf	3,5	;RP0=0, select bank0
  4420  01CD  1303               	bcf	3,6	;RP1=0, select bank0
  4421  01CE  00D3               	movwf	___flmul@temp+1
  4422  01CF  0870               	movf	?__Umul8_16,w
  4423  01D0  00D2               	movwf	___flmul@temp
  4424  01D1                     i1l2349:
  4425  01D1  0852               	movf	___flmul@temp,w
  4426  01D2  00C2               	movwf	??___flmul
  4427  01D3  0853               	movf	___flmul@temp+1,w
  4428  01D4  00C3               	movwf	??___flmul+1
  4429  01D5  01C4               	clrf	??___flmul+2
  4430  01D6  01C5               	clrf	??___flmul+3
  4431  01D7  0842               	movf	??___flmul,w
  4432  01D8  07C8               	addwf	___flmul@grs,f
  4433  01D9  0843               	movf	??___flmul+1,w
  4434  01DA  1103               	clrz
  4435  01DB  1803               	skipnc
  4436  01DC  3E01               	addlw	1
  4437  01DD  1903               	skipnz
  4438  01DE  29E0               	goto	u294_21
  4439  01DF  07C9               	addwf	___flmul@grs+1,f
  4440  01E0                     u294_21:
  4441  01E0  0844               	movf	??___flmul+2,w
  4442  01E1  1103               	clrz
  4443  01E2  1803               	skipnc
  4444  01E3  3E01               	addlw	1
  4445  01E4  1903               	skipnz
  4446  01E5  29E7               	goto	u294_22
  4447  01E6  07CA               	addwf	___flmul@grs+2,f
  4448  01E7                     u294_22:
  4449  01E7  0845               	movf	??___flmul+3,w
  4450  01E8  1103               	clrz
  4451  01E9  1803               	skipnc
  4452  01EA  3E01               	addlw	1
  4453  01EB  1903               	skipnz
  4454  01EC  29EE               	goto	u294_23
  4455  01ED  07CB               	addwf	___flmul@grs+3,f
  4456  01EE                     u294_23:
  4457  01EE                     i1l2351:
  4458  01EE  083B               	movf	___flmul@b+1,w
  4459  01EF  00C2               	movwf	??___flmul
  4460  01F0  0842               	movf	??___flmul,w
  4461  01F1  00F0               	movwf	__Umul8_16@multiplicand
  4462  01F2  0840               	movf	___flmul@a+2,w
  4463  01F3  120A  158A  2039  120A  118A  	fcall	__Umul8_16
  4464  01F8  0871               	movf	?__Umul8_16+1,w
  4465  01F9  1283               	bcf	3,5	;RP0=0, select bank0
  4466  01FA  1303               	bcf	3,6	;RP1=0, select bank0
  4467  01FB  00D3               	movwf	___flmul@temp+1
  4468  01FC  0870               	movf	?__Umul8_16,w
  4469  01FD  00D2               	movwf	___flmul@temp
  4470  01FE  0852               	movf	___flmul@temp,w
  4471  01FF  00C2               	movwf	??___flmul
  4472  0200  0853               	movf	___flmul@temp+1,w
  4473  0201  00C3               	movwf	??___flmul+1
  4474  0202  01C4               	clrf	??___flmul+2
  4475  0203  01C5               	clrf	??___flmul+3
  4476  0204  0842               	movf	??___flmul,w
  4477  0205  07CE               	addwf	___flmul@prod,f
  4478  0206  0843               	movf	??___flmul+1,w
  4479  0207  1103               	clrz
  4480  0208  1803               	skipnc
  4481  0209  3E01               	addlw	1
  4482  020A  1903               	skipnz
  4483  020B  2A0D               	goto	u295_21
  4484  020C  07CF               	addwf	___flmul@prod+1,f
  4485  020D                     u295_21:
  4486  020D  0844               	movf	??___flmul+2,w
  4487  020E  1103               	clrz
  4488  020F  1803               	skipnc
  4489  0210  3E01               	addlw	1
  4490  0211  1903               	skipnz
  4491  0212  2A14               	goto	u295_22
  4492  0213  07D0               	addwf	___flmul@prod+2,f
  4493  0214                     u295_22:
  4494  0214  0845               	movf	??___flmul+3,w
  4495  0215  1103               	clrz
  4496  0216  1803               	skipnc
  4497  0217  3E01               	addlw	1
  4498  0218  1903               	skipnz
  4499  0219  2A1B               	goto	u295_23
  4500  021A  07D1               	addwf	___flmul@prod+3,f
  4501  021B                     u295_23:
  4502  021B                     i1l2353:
  4503  021B  083C               	movf	___flmul@b+2,w
  4504  021C  00C2               	movwf	??___flmul
  4505  021D  0842               	movf	??___flmul,w
  4506  021E  00F0               	movwf	__Umul8_16@multiplicand
  4507  021F  083F               	movf	___flmul@a+1,w
  4508  0220  120A  158A  2039  120A  118A  	fcall	__Umul8_16
  4509  0225  0871               	movf	?__Umul8_16+1,w
  4510  0226  1283               	bcf	3,5	;RP0=0, select bank0
  4511  0227  1303               	bcf	3,6	;RP1=0, select bank0
  4512  0228  00D3               	movwf	___flmul@temp+1
  4513  0229  0870               	movf	?__Umul8_16,w
  4514  022A  00D2               	movwf	___flmul@temp
  4515  022B                     i1l2355:
  4516  022B  0852               	movf	___flmul@temp,w
  4517  022C  00C2               	movwf	??___flmul
  4518  022D  0853               	movf	___flmul@temp+1,w
  4519  022E  00C3               	movwf	??___flmul+1
  4520  022F  01C4               	clrf	??___flmul+2
  4521  0230  01C5               	clrf	??___flmul+3
  4522  0231  0842               	movf	??___flmul,w
  4523  0232  07CE               	addwf	___flmul@prod,f
  4524  0233  0843               	movf	??___flmul+1,w
  4525  0234  1103               	clrz
  4526  0235  1803               	skipnc
  4527  0236  3E01               	addlw	1
  4528  0237  1903               	skipnz
  4529  0238  2A3A               	goto	u296_21
  4530  0239  07CF               	addwf	___flmul@prod+1,f
  4531  023A                     u296_21:
  4532  023A  0844               	movf	??___flmul+2,w
  4533  023B  1103               	clrz
  4534  023C  1803               	skipnc
  4535  023D  3E01               	addlw	1
  4536  023E  1903               	skipnz
  4537  023F  2A41               	goto	u296_22
  4538  0240  07D0               	addwf	___flmul@prod+2,f
  4539  0241                     u296_22:
  4540  0241  0845               	movf	??___flmul+3,w
  4541  0242  1103               	clrz
  4542  0243  1803               	skipnc
  4543  0244  3E01               	addlw	1
  4544  0245  1903               	skipnz
  4545  0246  2A48               	goto	u296_23
  4546  0247  07D1               	addwf	___flmul@prod+3,f
  4547  0248                     u296_23:
  4548  0248  083C               	movf	___flmul@b+2,w
  4549  0249  00C2               	movwf	??___flmul
  4550  024A  0842               	movf	??___flmul,w
  4551  024B  00F0               	movwf	__Umul8_16@multiplicand
  4552  024C  0840               	movf	___flmul@a+2,w
  4553  024D  120A  158A  2039  120A  118A  	fcall	__Umul8_16
  4554  0252  0871               	movf	?__Umul8_16+1,w
  4555  0253  1283               	bcf	3,5	;RP0=0, select bank0
  4556  0254  1303               	bcf	3,6	;RP1=0, select bank0
  4557  0255  00D3               	movwf	___flmul@temp+1
  4558  0256  0870               	movf	?__Umul8_16,w
  4559  0257  00D2               	movwf	___flmul@temp
  4560  0258                     i1l2357:
  4561  0258  0852               	movf	___flmul@temp,w
  4562  0259  00C2               	movwf	??___flmul
  4563  025A  0853               	movf	___flmul@temp+1,w
  4564  025B  00C3               	movwf	??___flmul+1
  4565  025C  01C4               	clrf	??___flmul+2
  4566  025D  01C5               	clrf	??___flmul+3
  4567  025E  3008               	movlw	8
  4568  025F                     u297_25:
  4569  025F  1003               	clrc
  4570  0260  0DC2               	rlf	??___flmul,f
  4571  0261  0DC3               	rlf	??___flmul+1,f
  4572  0262  0DC4               	rlf	??___flmul+2,f
  4573  0263  0DC5               	rlf	??___flmul+3,f
  4574  0264                     u297_20:
  4575  0264  3EFF               	addlw	-1
  4576  0265  1D03               	skipz
  4577  0266  2A5F               	goto	u297_25
  4578  0267  0842               	movf	??___flmul,w
  4579  0268  07CE               	addwf	___flmul@prod,f
  4580  0269  0843               	movf	??___flmul+1,w
  4581  026A  1103               	clrz
  4582  026B  1803               	skipnc
  4583  026C  3E01               	addlw	1
  4584  026D  1903               	skipnz
  4585  026E  2A70               	goto	u298_21
  4586  026F  07CF               	addwf	___flmul@prod+1,f
  4587  0270                     u298_21:
  4588  0270  0844               	movf	??___flmul+2,w
  4589  0271  1103               	clrz
  4590  0272  1803               	skipnc
  4591  0273  3E01               	addlw	1
  4592  0274  1903               	skipnz
  4593  0275  2A77               	goto	u298_22
  4594  0276  07D0               	addwf	___flmul@prod+2,f
  4595  0277                     u298_22:
  4596  0277  0845               	movf	??___flmul+3,w
  4597  0278  1103               	clrz
  4598  0279  1803               	skipnc
  4599  027A  3E01               	addlw	1
  4600  027B  1903               	skipnz
  4601  027C  2A7E               	goto	u298_23
  4602  027D  07D1               	addwf	___flmul@prod+3,f
  4603  027E                     u298_23:
  4604  027E                     i1l2359:
  4605  027E  0848               	movf	___flmul@grs,w
  4606  027F  00C2               	movwf	??___flmul
  4607  0280  0849               	movf	___flmul@grs+1,w
  4608  0281  00C3               	movwf	??___flmul+1
  4609  0282  084A               	movf	___flmul@grs+2,w
  4610  0283  00C4               	movwf	??___flmul+2
  4611  0284  084B               	movf	___flmul@grs+3,w
  4612  0285  00C5               	movwf	??___flmul+3
  4613  0286  3018               	movlw	24
  4614  0287                     u299_25:
  4615  0287  1003               	clrc
  4616  0288  0CC5               	rrf	??___flmul+3,f
  4617  0289  0CC4               	rrf	??___flmul+2,f
  4618  028A  0CC3               	rrf	??___flmul+1,f
  4619  028B  0CC2               	rrf	??___flmul,f
  4620  028C                     u299_20:
  4621  028C  3EFF               	addlw	-1
  4622  028D  1D03               	skipz
  4623  028E  2A87               	goto	u299_25
  4624  028F  0842               	movf	??___flmul,w
  4625  0290  07CE               	addwf	___flmul@prod,f
  4626  0291  0843               	movf	??___flmul+1,w
  4627  0292  1103               	clrz
  4628  0293  1803               	skipnc
  4629  0294  3E01               	addlw	1
  4630  0295  1903               	skipnz
  4631  0296  2A98               	goto	u300_21
  4632  0297  07CF               	addwf	___flmul@prod+1,f
  4633  0298                     u300_21:
  4634  0298  0844               	movf	??___flmul+2,w
  4635  0299  1103               	clrz
  4636  029A  1803               	skipnc
  4637  029B  3E01               	addlw	1
  4638  029C  1903               	skipnz
  4639  029D  2A9F               	goto	u300_22
  4640  029E  07D0               	addwf	___flmul@prod+2,f
  4641  029F                     u300_22:
  4642  029F  0845               	movf	??___flmul+3,w
  4643  02A0  1103               	clrz
  4644  02A1  1803               	skipnc
  4645  02A2  3E01               	addlw	1
  4646  02A3  1903               	skipnz
  4647  02A4  2AA6               	goto	u300_23
  4648  02A5  07D1               	addwf	___flmul@prod+3,f
  4649  02A6                     u300_23:
  4650  02A6                     i1l2361:
  4651  02A6  3008               	movlw	8
  4652  02A7  00C2               	movwf	??___flmul
  4653  02A8                     u301_25:
  4654  02A8  1003               	clrc
  4655  02A9  0DC8               	rlf	___flmul@grs,f
  4656  02AA  0DC9               	rlf	___flmul@grs+1,f
  4657  02AB  0DCA               	rlf	___flmul@grs+2,f
  4658  02AC  0DCB               	rlf	___flmul@grs+3,f
  4659  02AD  0BC2               	decfsz	??___flmul,f
  4660  02AE  2AA8               	goto	u301_25
  4661  02AF                     i1l2363:
  4662  02AF  084D               	movf	___flmul@bexp,w
  4663  02B0  074C               	addwf	___flmul@aexp,w
  4664  02B1  00C2               	movwf	??___flmul
  4665  02B2  01C3               	clrf	??___flmul+1
  4666  02B3  0DC3               	rlf	??___flmul+1,f
  4667  02B4  0842               	movf	??___flmul,w
  4668  02B5  3E82               	addlw	130
  4669  02B6  00D2               	movwf	___flmul@temp
  4670  02B7  0843               	movf	??___flmul+1,w
  4671  02B8  1803               	skipnc
  4672  02B9  3E01               	addlw	1
  4673  02BA  3EFF               	addlw	255
  4674  02BB  00D3               	movwf	___flmul@temp+1
  4675  02BC  2ADA               	goto	i1l2375
  4676  02BD                     i1l2365:
  4677  02BD  3001               	movlw	1
  4678  02BE  00C2               	movwf	??___flmul
  4679  02BF                     u302_25:
  4680  02BF  1003               	clrc
  4681  02C0  0DCE               	rlf	___flmul@prod,f
  4682  02C1  0DCF               	rlf	___flmul@prod+1,f
  4683  02C2  0DD0               	rlf	___flmul@prod+2,f
  4684  02C3  0DD1               	rlf	___flmul@prod+3,f
  4685  02C4  0BC2               	decfsz	??___flmul,f
  4686  02C5  2ABF               	goto	u302_25
  4687  02C6                     i1l2367:
  4688  02C6  1FCB               	btfss	___flmul@grs+3,7
  4689  02C7  2AC9               	goto	u303_21
  4690  02C8  2ACA               	goto	u303_20
  4691  02C9                     u303_21:
  4692  02C9  2ACB               	goto	i1l2371
  4693  02CA                     u303_20:
  4694  02CA                     i1l2369:
  4695  02CA  144E               	bsf	___flmul@prod,0
  4696  02CB                     i1l2371:
  4697  02CB  3001               	movlw	1
  4698  02CC  00C2               	movwf	??___flmul
  4699  02CD                     u304_25:
  4700  02CD  1003               	clrc
  4701  02CE  0DC8               	rlf	___flmul@grs,f
  4702  02CF  0DC9               	rlf	___flmul@grs+1,f
  4703  02D0  0DCA               	rlf	___flmul@grs+2,f
  4704  02D1  0DCB               	rlf	___flmul@grs+3,f
  4705  02D2  0BC2               	decfsz	??___flmul,f
  4706  02D3  2ACD               	goto	u304_25
  4707  02D4                     i1l2373:
  4708  02D4  30FF               	movlw	255
  4709  02D5  07D2               	addwf	___flmul@temp,f
  4710  02D6  1803               	skipnc
  4711  02D7  0AD3               	incf	___flmul@temp+1,f
  4712  02D8  30FF               	movlw	255
  4713  02D9  07D3               	addwf	___flmul@temp+1,f
  4714  02DA                     i1l2375:
  4715  02DA  1FD0               	btfss	___flmul@prod+2,7
  4716  02DB  2ADD               	goto	u305_21
  4717  02DC  2ADE               	goto	u305_20
  4718  02DD                     u305_21:
  4719  02DD  2ABD               	goto	i1l2365
  4720  02DE                     u305_20:
  4721  02DE                     i1l2377:
  4722  02DE  01CC               	clrf	___flmul@aexp
  4723  02DF                     i1l2379:
  4724  02DF  1FCB               	btfss	___flmul@grs+3,7
  4725  02E0  2AE2               	goto	u306_21
  4726  02E1  2AE3               	goto	u306_20
  4727  02E2                     u306_21:
  4728  02E2  2AFF               	goto	i1l2387
  4729  02E3                     u306_20:
  4730  02E3                     i1l2381:
  4731  02E3  30FF               	movlw	255
  4732  02E4  0548               	andwf	___flmul@grs,w
  4733  02E5  00C2               	movwf	??___flmul
  4734  02E6  30FF               	movlw	255
  4735  02E7  0549               	andwf	___flmul@grs+1,w
  4736  02E8  00C3               	movwf	??___flmul+1
  4737  02E9  30FF               	movlw	255
  4738  02EA  054A               	andwf	___flmul@grs+2,w
  4739  02EB  00C4               	movwf	??___flmul+2
  4740  02EC  307F               	movlw	127
  4741  02ED  054B               	andwf	___flmul@grs+3,w
  4742  02EE  00C5               	movwf	??___flmul+3
  4743  02EF  0845               	movf	??___flmul+3,w
  4744  02F0  0444               	iorwf	??___flmul+2,w
  4745  02F1  0443               	iorwf	??___flmul+1,w
  4746  02F2  0442               	iorwf	??___flmul,w
  4747  02F3  1903               	skipnz
  4748  02F4  2AF6               	goto	u307_21
  4749  02F5  2AF7               	goto	u307_20
  4750  02F6                     u307_21:
  4751  02F6  2AFA               	goto	i1l752
  4752  02F7                     u307_20:
  4753  02F7                     i1l2383:
  4754  02F7  01CC               	clrf	___flmul@aexp
  4755  02F8  0ACC               	incf	___flmul@aexp,f
  4756  02F9  2AFF               	goto	i1l2387
  4757  02FA                     i1l752:
  4758  02FA  1C4E               	btfss	___flmul@prod,0
  4759  02FB  2AFD               	goto	u308_21
  4760  02FC  2AFE               	goto	u308_20
  4761  02FD                     u308_21:
  4762  02FD  2AFF               	goto	i1l2387
  4763  02FE                     u308_20:
  4764  02FE  2AF7               	goto	i1l2383
  4765  02FF                     i1l2387:
  4766  02FF  084C               	movf	___flmul@aexp,w
  4767  0300  1903               	btfsc	3,2
  4768  0301  2B03               	goto	u309_21
  4769  0302  2B04               	goto	u309_20
  4770  0303                     u309_21:
  4771  0303  2B35               	goto	i1l2397
  4772  0304                     u309_20:
  4773  0304                     i1l2389:
  4774  0304  3001               	movlw	1
  4775  0305  07CE               	addwf	___flmul@prod,f
  4776  0306  3000               	movlw	0
  4777  0307  1803               	skipnc
  4778  0308  3001               	movlw	1
  4779  0309  07CF               	addwf	___flmul@prod+1,f
  4780  030A  3000               	movlw	0
  4781  030B  1803               	skipnc
  4782  030C  3001               	movlw	1
  4783  030D  07D0               	addwf	___flmul@prod+2,f
  4784  030E  3000               	movlw	0
  4785  030F  1803               	skipnc
  4786  0310  3001               	movlw	1
  4787  0311  07D1               	addwf	___flmul@prod+3,f
  4788  0312                     i1l2391:
  4789  0312  1C51               	btfss	___flmul@prod+3,0
  4790  0313  2B15               	goto	u310_21
  4791  0314  2B16               	goto	u310_20
  4792  0315                     u310_21:
  4793  0315  2B35               	goto	i1l2397
  4794  0316                     u310_20:
  4795  0316                     i1l2393:
  4796  0316  084E               	movf	___flmul@prod,w
  4797  0317  00C2               	movwf	??___flmul
  4798  0318  084F               	movf	___flmul@prod+1,w
  4799  0319  00C3               	movwf	??___flmul+1
  4800  031A  0850               	movf	___flmul@prod+2,w
  4801  031B  00C4               	movwf	??___flmul+2
  4802  031C  0851               	movf	___flmul@prod+3,w
  4803  031D  00C5               	movwf	??___flmul+3
  4804  031E  3001               	movlw	1
  4805  031F  00C6               	movwf	??___flmul+4
  4806  0320                     u311_25:
  4807  0320  0D45               	rlf	??___flmul+3,w
  4808  0321  0CC5               	rrf	??___flmul+3,f
  4809  0322  0CC4               	rrf	??___flmul+2,f
  4810  0323  0CC3               	rrf	??___flmul+1,f
  4811  0324  0CC2               	rrf	??___flmul,f
  4812  0325                     u311_20:
  4813  0325  0BC6               	decfsz	??___flmul+4,f
  4814  0326  2B20               	goto	u311_25
  4815  0327  0845               	movf	??___flmul+3,w
  4816  0328  00D1               	movwf	___flmul@prod+3
  4817  0329  0844               	movf	??___flmul+2,w
  4818  032A  00D0               	movwf	___flmul@prod+2
  4819  032B  0843               	movf	??___flmul+1,w
  4820  032C  00CF               	movwf	___flmul@prod+1
  4821  032D  0842               	movf	??___flmul,w
  4822  032E  00CE               	movwf	___flmul@prod
  4823  032F                     i1l2395:
  4824  032F  3001               	movlw	1
  4825  0330  07D2               	addwf	___flmul@temp,f
  4826  0331  1803               	skipnc
  4827  0332  0AD3               	incf	___flmul@temp+1,f
  4828  0333  3000               	movlw	0
  4829  0334  07D3               	addwf	___flmul@temp+1,f
  4830  0335                     i1l2397:
  4831  0335  0853               	movf	___flmul@temp+1,w
  4832  0336  3A80               	xorlw	128
  4833  0337  00FF               	movwf	btemp+1
  4834  0338  3080               	movlw	128
  4835  0339  027F               	subwf	btemp+1,w
  4836  033A  1D03               	skipz
  4837  033B  2B3E               	goto	u312_25
  4838  033C  30FF               	movlw	255
  4839  033D  0252               	subwf	___flmul@temp,w
  4840  033E                     u312_25:
  4841  033E  1C03               	skipc
  4842  033F  2B41               	goto	u312_21
  4843  0340  2B42               	goto	u312_20
  4844  0341                     u312_21:
  4845  0341  2B4D               	goto	i1l2401
  4846  0342                     u312_20:
  4847  0342                     i1l2399:
  4848  0342  307F               	movlw	127
  4849  0343  1283               	bcf	3,5	;RP0=0, select bank0
  4850  0344  1303               	bcf	3,6	;RP1=0, select bank0
  4851  0345  00D1               	movwf	___flmul@prod+3
  4852  0346  3080               	movlw	128
  4853  0347  00D0               	movwf	___flmul@prod+2
  4854  0348  3000               	movlw	0
  4855  0349  00CF               	movwf	___flmul@prod+1
  4856  034A  3000               	movlw	0
  4857  034B  00CE               	movwf	___flmul@prod
  4858  034C  2B82               	goto	i1l758
  4859  034D                     i1l2401:
  4860  034D  1283               	bcf	3,5	;RP0=0, select bank0
  4861  034E  1303               	bcf	3,6	;RP1=0, select bank0
  4862  034F  0853               	movf	___flmul@temp+1,w
  4863  0350  3A80               	xorlw	128
  4864  0351  00FF               	movwf	btemp+1
  4865  0352  3080               	movlw	128
  4866  0353  027F               	subwf	btemp+1,w
  4867  0354  1D03               	skipz
  4868  0355  2B58               	goto	u313_25
  4869  0356  3001               	movlw	1
  4870  0357  0252               	subwf	___flmul@temp,w
  4871  0358                     u313_25:
  4872  0358  1803               	skipnc
  4873  0359  2B5B               	goto	u313_21
  4874  035A  2B5C               	goto	u313_20
  4875  035B                     u313_21:
  4876  035B  2B68               	goto	i1l2407
  4877  035C                     u313_20:
  4878  035C                     i1l2403:
  4879  035C  3000               	movlw	0
  4880  035D  1283               	bcf	3,5	;RP0=0, select bank0
  4881  035E  1303               	bcf	3,6	;RP1=0, select bank0
  4882  035F  00D1               	movwf	___flmul@prod+3
  4883  0360  3000               	movlw	0
  4884  0361  00D0               	movwf	___flmul@prod+2
  4885  0362  3000               	movlw	0
  4886  0363  00CF               	movwf	___flmul@prod+1
  4887  0364  3000               	movlw	0
  4888  0365  00CE               	movwf	___flmul@prod
  4889  0366                     i1l2405:
  4890  0366  01C7               	clrf	___flmul@sign
  4891  0367  2B82               	goto	i1l758
  4892  0368                     i1l2407:
  4893  0368  1283               	bcf	3,5	;RP0=0, select bank0
  4894  0369  1303               	bcf	3,6	;RP1=0, select bank0
  4895  036A  0852               	movf	___flmul@temp,w
  4896  036B  00C2               	movwf	??___flmul
  4897  036C  0842               	movf	??___flmul,w
  4898  036D  00CD               	movwf	___flmul@bexp
  4899  036E  30FF               	movlw	255
  4900  036F  05CE               	andwf	___flmul@prod,f
  4901  0370  30FF               	movlw	255
  4902  0371  05CF               	andwf	___flmul@prod+1,f
  4903  0372  307F               	movlw	127
  4904  0373  05D0               	andwf	___flmul@prod+2,f
  4905  0374  3000               	movlw	0
  4906  0375  05D1               	andwf	___flmul@prod+3,f
  4907  0376                     i1l2409:
  4908  0376  1C4D               	btfss	___flmul@bexp,0
  4909  0377  2B79               	goto	u314_21
  4910  0378  2B7A               	goto	u314_20
  4911  0379                     u314_21:
  4912  0379  2B7B               	goto	i1l2413
  4913  037A                     u314_20:
  4914  037A                     i1l2411:
  4915  037A  17D0               	bsf	___flmul@prod+2,7
  4916  037B                     i1l2413:
  4917  037B  084D               	movf	___flmul@bexp,w
  4918  037C  00C2               	movwf	??___flmul
  4919  037D  1003               	clrc
  4920  037E  0C42               	rrf	??___flmul,w
  4921  037F  00C3               	movwf	??___flmul+1
  4922  0380  0843               	movf	??___flmul+1,w
  4923  0381  00D1               	movwf	___flmul@prod+3
  4924  0382                     i1l758:
  4925  0382  0847               	movf	___flmul@sign,w
  4926  0383  00C2               	movwf	??___flmul
  4927  0384  0842               	movf	??___flmul,w
  4928  0385  04D1               	iorwf	___flmul@prod+3,f
  4929  0386                     i1l2415:
  4930  0386  0851               	movf	___flmul@prod+3,w
  4931  0387  00BD               	movwf	?___flmul+3
  4932  0388  0850               	movf	___flmul@prod+2,w
  4933  0389  00BC               	movwf	?___flmul+2
  4934  038A  084F               	movf	___flmul@prod+1,w
  4935  038B  00BB               	movwf	?___flmul+1
  4936  038C  084E               	movf	___flmul@prod,w
  4937  038D  00BA               	movwf	?___flmul
  4938  038E                     i1l746:
  4939  038E  0008               	return
  4940  038F                     __end_of___flmul:
  4941                           
  4942                           	psect	text13
  4943  0839                     __ptext13:	
  4944 ;; *************** function __Umul8_16 *****************
  4945 ;; Defined at:
  4946 ;;		line 4 in file "C:\Program Files\Microchip\xc8\v2.35\pic\sources\c90\common\Umul8_16.c"
  4947 ;; Parameters:    Size  Location     Type
  4948 ;;  multiplier      1    wreg     unsigned char 
  4949 ;;  multiplicand    1    0[COMMON] unsigned char 
  4950 ;; Auto vars:     Size  Location     Type
  4951 ;;  multiplier      1    8[COMMON] unsigned char 
  4952 ;;  word_mpld       2    6[COMMON] unsigned int 
  4953 ;;  product         2    4[COMMON] unsigned int 
  4954 ;; Return value:  Size  Location     Type
  4955 ;;                  2    0[COMMON] unsigned int 
  4956 ;; Registers used:
  4957 ;;		wreg, status,2, status,0
  4958 ;; Tracked objects:
  4959 ;;		On entry : 0/0
  4960 ;;		On exit  : 0/0
  4961 ;;		Unchanged: 0/0
  4962 ;; Data sizes:     COMMON   BANK0   BANK1   BANK3   BANK2
  4963 ;;      Params:         2       0       0       0       0
  4964 ;;      Locals:         5       0       0       0       0
  4965 ;;      Temps:          2       0       0       0       0
  4966 ;;      Totals:         9       0       0       0       0
  4967 ;;Total ram usage:        9 bytes
  4968 ;; Hardware stack levels used: 1
  4969 ;; This function calls:
  4970 ;;		Nothing
  4971 ;; This function is called by:
  4972 ;;		___flmul
  4973 ;; This function uses a non-reentrant model
  4974 ;;
  4975                           
  4976  0839                     __Umul8_16:	
  4977                           ;psect for function __Umul8_16
  4978                           
  4979                           
  4980                           ;incstack = 0
  4981                           ; Regs used in __Umul8_16: [wreg+status,2+status,0]
  4982                           ;__Umul8_16@multiplier stored from wreg
  4983  0839  00F8               	movwf	__Umul8_16@multiplier
  4984  083A                     i1l1815:
  4985  083A  01F4               	clrf	__Umul8_16@product
  4986  083B  01F5               	clrf	__Umul8_16@product+1
  4987  083C                     i1l1817:
  4988  083C  0870               	movf	__Umul8_16@multiplicand,w
  4989  083D  00F2               	movwf	??__Umul8_16
  4990  083E  01F3               	clrf	??__Umul8_16+1
  4991  083F  0872               	movf	??__Umul8_16,w
  4992  0840  00F6               	movwf	__Umul8_16@word_mpld
  4993  0841  0873               	movf	??__Umul8_16+1,w
  4994  0842  00F7               	movwf	__Umul8_16@word_mpld+1
  4995  0843                     i1l1819:
  4996  0843  1C78               	btfss	__Umul8_16@multiplier,0
  4997  0844  2846               	goto	u189_21
  4998  0845  2847               	goto	u189_20
  4999  0846                     u189_21:
  5000  0846  284D               	goto	i1l765
  5001  0847                     u189_20:
  5002  0847                     i1l1821:
  5003  0847  0876               	movf	__Umul8_16@word_mpld,w
  5004  0848  07F4               	addwf	__Umul8_16@product,f
  5005  0849  1803               	skipnc
  5006  084A  0AF5               	incf	__Umul8_16@product+1,f
  5007  084B  0877               	movf	__Umul8_16@word_mpld+1,w
  5008  084C  07F5               	addwf	__Umul8_16@product+1,f
  5009  084D                     i1l765:
  5010  084D  3001               	movlw	1
  5011  084E                     u190_25:
  5012  084E  1003               	clrc
  5013  084F  0DF6               	rlf	__Umul8_16@word_mpld,f
  5014  0850  0DF7               	rlf	__Umul8_16@word_mpld+1,f
  5015  0851  3EFF               	addlw	-1
  5016  0852  1D03               	skipz
  5017  0853  284E               	goto	u190_25
  5018  0854  1003               	clrc
  5019  0855  0CF8               	rrf	__Umul8_16@multiplier,f
  5020  0856                     i1l1823:
  5021  0856  0878               	movf	__Umul8_16@multiplier,w
  5022  0857  1D03               	btfss	3,2
  5023  0858  285A               	goto	u191_21
  5024  0859  285B               	goto	u191_20
  5025  085A                     u191_21:
  5026  085A  2843               	goto	i1l1819
  5027  085B                     u191_20:
  5028  085B                     i1l1825:
  5029  085B  0875               	movf	__Umul8_16@product+1,w
  5030  085C  00F1               	movwf	?__Umul8_16+1
  5031  085D  0874               	movf	__Umul8_16@product,w
  5032  085E  00F0               	movwf	?__Umul8_16
  5033  085F                     i1l767:
  5034  085F  0008               	return
  5035  0860                     __end_of__Umul8_16:
  5036                           
  5037                           	psect	text14
  5038  0972                     __ptext14:	
  5039 ;; *************** function ___fldiv *****************
  5040 ;; Defined at:
  5041 ;;		line 8 in file "C:\Program Files\Microchip\xc8\v2.35\pic\sources\c90\common\sprcdiv.c"
  5042 ;; Parameters:    Size  Location     Type
  5043 ;;  a               4    0[BANK0 ] unsigned int 
  5044 ;;  b               4    4[BANK0 ] unsigned int 
  5045 ;; Auto vars:     Size  Location     Type
  5046 ;;  grs             4   20[BANK0 ] unsigned long 
  5047 ;;  rem             4   13[BANK0 ] unsigned long 
  5048 ;;  new_exp         2   18[BANK0 ] int 
  5049 ;;  aexp            1   25[BANK0 ] unsigned char 
  5050 ;;  bexp            1   24[BANK0 ] unsigned char 
  5051 ;;  sign            1   17[BANK0 ] unsigned char 
  5052 ;; Return value:  Size  Location     Type
  5053 ;;                  4    0[BANK0 ] unsigned char 
  5054 ;; Registers used:
  5055 ;;		wreg, status,2, status,0, btemp+1
  5056 ;; Tracked objects:
  5057 ;;		On entry : 0/0
  5058 ;;		On exit  : 0/0
  5059 ;;		Unchanged: 0/0
  5060 ;; Data sizes:     COMMON   BANK0   BANK1   BANK3   BANK2
  5061 ;;      Params:         0       8       0       0       0
  5062 ;;      Locals:         0      13       0       0       0
  5063 ;;      Temps:          0       5       0       0       0
  5064 ;;      Totals:         0      26       0       0       0
  5065 ;;Total ram usage:       26 bytes
  5066 ;; Hardware stack levels used: 1
  5067 ;; This function calls:
  5068 ;;		Nothing
  5069 ;; This function is called by:
  5070 ;;		_map
  5071 ;; This function uses a non-reentrant model
  5072 ;;
  5073                           
  5074  0972                     ___fldiv:	
  5075                           ;psect for function ___fldiv
  5076                           
  5077  0972                     i1l2137:	
  5078                           ;incstack = 0
  5079                           ; Regs used in ___fldiv: [wreg+status,2+status,0+btemp+1]
  5080                           
  5081  0972  1283               	bcf	3,5	;RP0=0, select bank0
  5082  0973  1303               	bcf	3,6	;RP1=0, select bank0
  5083  0974  0827               	movf	___fldiv@b+3,w
  5084  0975  3980               	andlw	128
  5085  0976  00A8               	movwf	??___fldiv
  5086  0977  0828               	movf	??___fldiv,w
  5087  0978  00B1               	movwf	___fldiv@sign
  5088  0979                     i1l2139:
  5089  0979  0827               	movf	___fldiv@b+3,w
  5090  097A  00A8               	movwf	??___fldiv
  5091  097B  0728               	addwf	??___fldiv,w
  5092  097C  00A9               	movwf	??___fldiv+1
  5093  097D  0829               	movf	??___fldiv+1,w
  5094  097E  00B8               	movwf	___fldiv@bexp
  5095  097F                     i1l2141:
  5096  097F  1FA6               	btfss	___fldiv@b+2,7
  5097  0980  2982               	goto	u249_21
  5098  0981  2983               	goto	u249_20
  5099  0982                     u249_21:
  5100  0982  2984               	goto	i1l2145
  5101  0983                     u249_20:
  5102  0983                     i1l2143:
  5103  0983  1438               	bsf	___fldiv@bexp,0
  5104  0984                     i1l2145:
  5105  0984  0838               	movf	___fldiv@bexp,w
  5106  0985  1903               	btfsc	3,2
  5107  0986  2988               	goto	u250_21
  5108  0987  2989               	goto	u250_20
  5109  0988                     u250_21:
  5110  0988  2999               	goto	i1l2155
  5111  0989                     u250_20:
  5112  0989                     i1l2147:
  5113  0989  0A38               	incf	___fldiv@bexp,w
  5114  098A  1D03               	btfss	3,2
  5115  098B  298D               	goto	u251_21
  5116  098C  298E               	goto	u251_20
  5117  098D                     u251_21:
  5118  098D  2996               	goto	i1l2151
  5119  098E                     u251_20:
  5120  098E                     i1l2149:
  5121  098E  3000               	movlw	0
  5122  098F  00A7               	movwf	___fldiv@b+3
  5123  0990  3000               	movlw	0
  5124  0991  00A6               	movwf	___fldiv@b+2
  5125  0992  3000               	movlw	0
  5126  0993  00A5               	movwf	___fldiv@b+1
  5127  0994  3000               	movlw	0
  5128  0995  00A4               	movwf	___fldiv@b
  5129  0996                     i1l2151:
  5130  0996  17A6               	bsf	___fldiv@b+2,7
  5131  0997                     i1l2153:
  5132  0997  01A7               	clrf	___fldiv@b+3
  5133  0998  29A1               	goto	i1l2157
  5134  0999                     i1l2155:
  5135  0999  3000               	movlw	0
  5136  099A  00A7               	movwf	___fldiv@b+3
  5137  099B  3000               	movlw	0
  5138  099C  00A6               	movwf	___fldiv@b+2
  5139  099D  3000               	movlw	0
  5140  099E  00A5               	movwf	___fldiv@b+1
  5141  099F  3000               	movlw	0
  5142  09A0  00A4               	movwf	___fldiv@b
  5143  09A1                     i1l2157:
  5144  09A1  0823               	movf	___fldiv@a+3,w
  5145  09A2  3980               	andlw	128
  5146  09A3  00A8               	movwf	??___fldiv
  5147  09A4  0828               	movf	??___fldiv,w
  5148  09A5  06B1               	xorwf	___fldiv@sign,f
  5149  09A6                     i1l2159:
  5150  09A6  0823               	movf	___fldiv@a+3,w
  5151  09A7  00A8               	movwf	??___fldiv
  5152  09A8  0728               	addwf	??___fldiv,w
  5153  09A9  00A9               	movwf	??___fldiv+1
  5154  09AA  0829               	movf	??___fldiv+1,w
  5155  09AB  00B9               	movwf	___fldiv@aexp
  5156  09AC                     i1l2161:
  5157  09AC  1FA2               	btfss	___fldiv@a+2,7
  5158  09AD  29AF               	goto	u252_21
  5159  09AE  29B0               	goto	u252_20
  5160  09AF                     u252_21:
  5161  09AF  29B1               	goto	i1l2165
  5162  09B0                     u252_20:
  5163  09B0                     i1l2163:
  5164  09B0  1439               	bsf	___fldiv@aexp,0
  5165  09B1                     i1l2165:
  5166  09B1  0839               	movf	___fldiv@aexp,w
  5167  09B2  1903               	btfsc	3,2
  5168  09B3  29B5               	goto	u253_21
  5169  09B4  29B6               	goto	u253_20
  5170  09B5                     u253_21:
  5171  09B5  29C6               	goto	i1l2175
  5172  09B6                     u253_20:
  5173  09B6                     i1l2167:
  5174  09B6  0A39               	incf	___fldiv@aexp,w
  5175  09B7  1D03               	btfss	3,2
  5176  09B8  29BA               	goto	u254_21
  5177  09B9  29BB               	goto	u254_20
  5178  09BA                     u254_21:
  5179  09BA  29C3               	goto	i1l2171
  5180  09BB                     u254_20:
  5181  09BB                     i1l2169:
  5182  09BB  3000               	movlw	0
  5183  09BC  00A3               	movwf	___fldiv@a+3
  5184  09BD  3000               	movlw	0
  5185  09BE  00A2               	movwf	___fldiv@a+2
  5186  09BF  3000               	movlw	0
  5187  09C0  00A1               	movwf	___fldiv@a+1
  5188  09C1  3000               	movlw	0
  5189  09C2  00A0               	movwf	___fldiv@a
  5190  09C3                     i1l2171:
  5191  09C3  17A2               	bsf	___fldiv@a+2,7
  5192  09C4                     i1l2173:
  5193  09C4  01A3               	clrf	___fldiv@a+3
  5194  09C5  29CE               	goto	i1l706
  5195  09C6                     i1l2175:
  5196  09C6  3000               	movlw	0
  5197  09C7  00A3               	movwf	___fldiv@a+3
  5198  09C8  3000               	movlw	0
  5199  09C9  00A2               	movwf	___fldiv@a+2
  5200  09CA  3000               	movlw	0
  5201  09CB  00A1               	movwf	___fldiv@a+1
  5202  09CC  3000               	movlw	0
  5203  09CD  00A0               	movwf	___fldiv@a
  5204  09CE                     i1l706:
  5205  09CE  0823               	movf	___fldiv@a+3,w
  5206  09CF  0422               	iorwf	___fldiv@a+2,w
  5207  09D0  0421               	iorwf	___fldiv@a+1,w
  5208  09D1  0420               	iorwf	___fldiv@a,w
  5209  09D2  1D03               	skipz
  5210  09D3  29D5               	goto	u255_21
  5211  09D4  29D6               	goto	u255_20
  5212  09D5                     u255_21:
  5213  09D5  29EF               	goto	i1l2185
  5214  09D6                     u255_20:
  5215  09D6                     i1l2177:
  5216  09D6  3000               	movlw	0
  5217  09D7  00A7               	movwf	___fldiv@b+3
  5218  09D8  3000               	movlw	0
  5219  09D9  00A6               	movwf	___fldiv@b+2
  5220  09DA  3000               	movlw	0
  5221  09DB  00A5               	movwf	___fldiv@b+1
  5222  09DC  3000               	movlw	0
  5223  09DD  00A4               	movwf	___fldiv@b
  5224  09DE  3080               	movlw	128
  5225  09DF  04A6               	iorwf	___fldiv@b+2,f
  5226  09E0  307F               	movlw	127
  5227  09E1  04A7               	iorwf	___fldiv@b+3,f
  5228  09E2                     i1l2179:
  5229  09E2  0831               	movf	___fldiv@sign,w
  5230  09E3  00A8               	movwf	??___fldiv
  5231  09E4  0828               	movf	??___fldiv,w
  5232  09E5  04A7               	iorwf	___fldiv@b+3,f
  5233  09E6                     i1l2181:
  5234  09E6  0827               	movf	___fldiv@b+3,w
  5235  09E7  00A3               	movwf	?___fldiv+3
  5236  09E8  0826               	movf	___fldiv@b+2,w
  5237  09E9  00A2               	movwf	?___fldiv+2
  5238  09EA  0825               	movf	___fldiv@b+1,w
  5239  09EB  00A1               	movwf	?___fldiv+1
  5240  09EC  0824               	movf	___fldiv@b,w
  5241  09ED  00A0               	movwf	?___fldiv
  5242  09EE  2B4E               	goto	i1l708
  5243  09EF                     i1l2185:
  5244  09EF  0838               	movf	___fldiv@bexp,w
  5245  09F0  1D03               	btfss	3,2
  5246  09F1  29F3               	goto	u256_21
  5247  09F2  29F4               	goto	u256_20
  5248  09F3                     u256_21:
  5249  09F3  29FD               	goto	i1l2191
  5250  09F4                     u256_20:
  5251  09F4                     i1l2187:
  5252  09F4  3000               	movlw	0
  5253  09F5  00A3               	movwf	?___fldiv+3
  5254  09F6  3000               	movlw	0
  5255  09F7  00A2               	movwf	?___fldiv+2
  5256  09F8  3000               	movlw	0
  5257  09F9  00A1               	movwf	?___fldiv+1
  5258  09FA  3000               	movlw	0
  5259  09FB  00A0               	movwf	?___fldiv
  5260  09FC  2B4E               	goto	i1l708
  5261  09FD                     i1l2191:
  5262  09FD  0838               	movf	___fldiv@bexp,w
  5263  09FE  00A8               	movwf	??___fldiv
  5264  09FF  01A9               	clrf	??___fldiv+1
  5265  0A00  0829               	movf	??___fldiv+1,w
  5266  0A01  00AB               	movwf	??___fldiv+3
  5267  0A02  0839               	movf	___fldiv@aexp,w
  5268  0A03  0228               	subwf	??___fldiv,w
  5269  0A04  00AA               	movwf	??___fldiv+2
  5270  0A05  1C03               	skipc
  5271  0A06  03AB               	decf	??___fldiv+3,f
  5272  0A07  082A               	movf	??___fldiv+2,w
  5273  0A08  3E7F               	addlw	127
  5274  0A09  00B2               	movwf	___fldiv@new_exp
  5275  0A0A  082B               	movf	??___fldiv+3,w
  5276  0A0B  1803               	skipnc
  5277  0A0C  3E01               	addlw	1
  5278  0A0D  3E00               	addlw	0
  5279  0A0E  00B3               	movwf	___fldiv@new_exp+1
  5280  0A0F                     i1l2193:
  5281  0A0F  0827               	movf	___fldiv@b+3,w
  5282  0A10  00B0               	movwf	___fldiv@rem+3
  5283  0A11  0826               	movf	___fldiv@b+2,w
  5284  0A12  00AF               	movwf	___fldiv@rem+2
  5285  0A13  0825               	movf	___fldiv@b+1,w
  5286  0A14  00AE               	movwf	___fldiv@rem+1
  5287  0A15  0824               	movf	___fldiv@b,w
  5288  0A16  00AD               	movwf	___fldiv@rem
  5289  0A17                     i1l2195:
  5290  0A17  3000               	movlw	0
  5291  0A18  00A7               	movwf	___fldiv@b+3
  5292  0A19  3000               	movlw	0
  5293  0A1A  00A6               	movwf	___fldiv@b+2
  5294  0A1B  3000               	movlw	0
  5295  0A1C  00A5               	movwf	___fldiv@b+1
  5296  0A1D  3000               	movlw	0
  5297  0A1E  00A4               	movwf	___fldiv@b
  5298  0A1F                     i1l2197:
  5299  0A1F  3000               	movlw	0
  5300  0A20  00B7               	movwf	___fldiv@grs+3
  5301  0A21  3000               	movlw	0
  5302  0A22  00B6               	movwf	___fldiv@grs+2
  5303  0A23  3000               	movlw	0
  5304  0A24  00B5               	movwf	___fldiv@grs+1
  5305  0A25  3000               	movlw	0
  5306  0A26  00B4               	movwf	___fldiv@grs
  5307  0A27                     i1l2199:
  5308  0A27  01B9               	clrf	___fldiv@aexp
  5309  0A28  2A73               	goto	i1l2219
  5310  0A29                     i1l2201:
  5311  0A29  0839               	movf	___fldiv@aexp,w
  5312  0A2A  1903               	btfsc	3,2
  5313  0A2B  2A2D               	goto	u257_21
  5314  0A2C  2A2E               	goto	u257_20
  5315  0A2D                     u257_21:
  5316  0A2D  2A4E               	goto	i1l2211
  5317  0A2E                     u257_20:
  5318  0A2E                     i1l2203:
  5319  0A2E  3001               	movlw	1
  5320  0A2F  00A8               	movwf	??___fldiv
  5321  0A30                     u258_25:
  5322  0A30  1003               	clrc
  5323  0A31  0DAD               	rlf	___fldiv@rem,f
  5324  0A32  0DAE               	rlf	___fldiv@rem+1,f
  5325  0A33  0DAF               	rlf	___fldiv@rem+2,f
  5326  0A34  0DB0               	rlf	___fldiv@rem+3,f
  5327  0A35  0BA8               	decfsz	??___fldiv,f
  5328  0A36  2A30               	goto	u258_25
  5329  0A37  3001               	movlw	1
  5330  0A38  00A8               	movwf	??___fldiv
  5331  0A39                     u259_25:
  5332  0A39  1003               	clrc
  5333  0A3A  0DA4               	rlf	___fldiv@b,f
  5334  0A3B  0DA5               	rlf	___fldiv@b+1,f
  5335  0A3C  0DA6               	rlf	___fldiv@b+2,f
  5336  0A3D  0DA7               	rlf	___fldiv@b+3,f
  5337  0A3E  0BA8               	decfsz	??___fldiv,f
  5338  0A3F  2A39               	goto	u259_25
  5339  0A40                     i1l2205:
  5340  0A40  1FB7               	btfss	___fldiv@grs+3,7
  5341  0A41  2A43               	goto	u260_21
  5342  0A42  2A44               	goto	u260_20
  5343  0A43                     u260_21:
  5344  0A43  2A45               	goto	i1l2209
  5345  0A44                     u260_20:
  5346  0A44                     i1l2207:
  5347  0A44  1424               	bsf	___fldiv@b,0
  5348  0A45                     i1l2209:
  5349  0A45  3001               	movlw	1
  5350  0A46  00A8               	movwf	??___fldiv
  5351  0A47                     u261_25:
  5352  0A47  1003               	clrc
  5353  0A48  0DB4               	rlf	___fldiv@grs,f
  5354  0A49  0DB5               	rlf	___fldiv@grs+1,f
  5355  0A4A  0DB6               	rlf	___fldiv@grs+2,f
  5356  0A4B  0DB7               	rlf	___fldiv@grs+3,f
  5357  0A4C  0BA8               	decfsz	??___fldiv,f
  5358  0A4D  2A47               	goto	u261_25
  5359  0A4E                     i1l2211:
  5360  0A4E  0823               	movf	___fldiv@a+3,w
  5361  0A4F  0230               	subwf	___fldiv@rem+3,w
  5362  0A50  1D03               	skipz
  5363  0A51  2A5C               	goto	u262_25
  5364  0A52  0822               	movf	___fldiv@a+2,w
  5365  0A53  022F               	subwf	___fldiv@rem+2,w
  5366  0A54  1D03               	skipz
  5367  0A55  2A5C               	goto	u262_25
  5368  0A56  0821               	movf	___fldiv@a+1,w
  5369  0A57  022E               	subwf	___fldiv@rem+1,w
  5370  0A58  1D03               	skipz
  5371  0A59  2A5C               	goto	u262_25
  5372  0A5A  0820               	movf	___fldiv@a,w
  5373  0A5B  022D               	subwf	___fldiv@rem,w
  5374  0A5C                     u262_25:
  5375  0A5C  1C03               	skipc
  5376  0A5D  2A5F               	goto	u262_21
  5377  0A5E  2A60               	goto	u262_20
  5378  0A5F                     u262_21:
  5379  0A5F  2A6F               	goto	i1l2217
  5380  0A60                     u262_20:
  5381  0A60                     i1l2213:
  5382  0A60  1737               	bsf	___fldiv@grs+3,6
  5383  0A61                     i1l2215:
  5384  0A61  0820               	movf	___fldiv@a,w
  5385  0A62  02AD               	subwf	___fldiv@rem,f
  5386  0A63  0821               	movf	___fldiv@a+1,w
  5387  0A64  1C03               	skipc
  5388  0A65  0F21               	incfsz	___fldiv@a+1,w
  5389  0A66  02AE               	subwf	___fldiv@rem+1,f
  5390  0A67  0822               	movf	___fldiv@a+2,w
  5391  0A68  1C03               	skipc
  5392  0A69  0F22               	incfsz	___fldiv@a+2,w
  5393  0A6A  02AF               	subwf	___fldiv@rem+2,f
  5394  0A6B  0823               	movf	___fldiv@a+3,w
  5395  0A6C  1C03               	skipc
  5396  0A6D  0F23               	incfsz	___fldiv@a+3,w
  5397  0A6E  02B0               	subwf	___fldiv@rem+3,f
  5398  0A6F                     i1l2217:
  5399  0A6F  3001               	movlw	1
  5400  0A70  00A8               	movwf	??___fldiv
  5401  0A71  0828               	movf	??___fldiv,w
  5402  0A72  07B9               	addwf	___fldiv@aexp,f
  5403  0A73                     i1l2219:
  5404  0A73  301A               	movlw	26
  5405  0A74  0239               	subwf	___fldiv@aexp,w
  5406  0A75  1C03               	skipc
  5407  0A76  2A78               	goto	u263_21
  5408  0A77  2A79               	goto	u263_20
  5409  0A78                     u263_21:
  5410  0A78  2A29               	goto	i1l2201
  5411  0A79                     u263_20:
  5412  0A79                     i1l2221:
  5413  0A79  0830               	movf	___fldiv@rem+3,w
  5414  0A7A  042F               	iorwf	___fldiv@rem+2,w
  5415  0A7B  042E               	iorwf	___fldiv@rem+1,w
  5416  0A7C  042D               	iorwf	___fldiv@rem,w
  5417  0A7D  1903               	skipnz
  5418  0A7E  2A80               	goto	u264_21
  5419  0A7F  2A81               	goto	u264_20
  5420  0A80                     u264_21:
  5421  0A80  2AA0               	goto	i1l2235
  5422  0A81                     u264_20:
  5423  0A81                     i1l2223:
  5424  0A81  1434               	bsf	___fldiv@grs,0
  5425  0A82  2AA0               	goto	i1l2235
  5426  0A83                     i1l2225:
  5427  0A83  3001               	movlw	1
  5428  0A84  00A8               	movwf	??___fldiv
  5429  0A85                     u265_25:
  5430  0A85  1003               	clrc
  5431  0A86  0DA4               	rlf	___fldiv@b,f
  5432  0A87  0DA5               	rlf	___fldiv@b+1,f
  5433  0A88  0DA6               	rlf	___fldiv@b+2,f
  5434  0A89  0DA7               	rlf	___fldiv@b+3,f
  5435  0A8A  0BA8               	decfsz	??___fldiv,f
  5436  0A8B  2A85               	goto	u265_25
  5437  0A8C                     i1l2227:
  5438  0A8C  1FB7               	btfss	___fldiv@grs+3,7
  5439  0A8D  2A8F               	goto	u266_21
  5440  0A8E  2A90               	goto	u266_20
  5441  0A8F                     u266_21:
  5442  0A8F  2A91               	goto	i1l2231
  5443  0A90                     u266_20:
  5444  0A90                     i1l2229:
  5445  0A90  1424               	bsf	___fldiv@b,0
  5446  0A91                     i1l2231:
  5447  0A91  3001               	movlw	1
  5448  0A92  00A8               	movwf	??___fldiv
  5449  0A93                     u267_25:
  5450  0A93  1003               	clrc
  5451  0A94  0DB4               	rlf	___fldiv@grs,f
  5452  0A95  0DB5               	rlf	___fldiv@grs+1,f
  5453  0A96  0DB6               	rlf	___fldiv@grs+2,f
  5454  0A97  0DB7               	rlf	___fldiv@grs+3,f
  5455  0A98  0BA8               	decfsz	??___fldiv,f
  5456  0A99  2A93               	goto	u267_25
  5457  0A9A                     i1l2233:
  5458  0A9A  30FF               	movlw	255
  5459  0A9B  07B2               	addwf	___fldiv@new_exp,f
  5460  0A9C  1803               	skipnc
  5461  0A9D  0AB3               	incf	___fldiv@new_exp+1,f
  5462  0A9E  30FF               	movlw	255
  5463  0A9F  07B3               	addwf	___fldiv@new_exp+1,f
  5464  0AA0                     i1l2235:
  5465  0AA0  1FA6               	btfss	___fldiv@b+2,7
  5466  0AA1  2AA3               	goto	u268_21
  5467  0AA2  2AA4               	goto	u268_20
  5468  0AA3                     u268_21:
  5469  0AA3  2A83               	goto	i1l2225
  5470  0AA4                     u268_20:
  5471  0AA4                     i1l2237:
  5472  0AA4  01B9               	clrf	___fldiv@aexp
  5473  0AA5                     i1l2239:
  5474  0AA5  1FB7               	btfss	___fldiv@grs+3,7
  5475  0AA6  2AA8               	goto	u269_21
  5476  0AA7  2AA9               	goto	u269_20
  5477  0AA8                     u269_21:
  5478  0AA8  2AC5               	goto	i1l2247
  5479  0AA9                     u269_20:
  5480  0AA9                     i1l2241:
  5481  0AA9  30FF               	movlw	255
  5482  0AAA  0534               	andwf	___fldiv@grs,w
  5483  0AAB  00A8               	movwf	??___fldiv
  5484  0AAC  30FF               	movlw	255
  5485  0AAD  0535               	andwf	___fldiv@grs+1,w
  5486  0AAE  00A9               	movwf	??___fldiv+1
  5487  0AAF  30FF               	movlw	255
  5488  0AB0  0536               	andwf	___fldiv@grs+2,w
  5489  0AB1  00AA               	movwf	??___fldiv+2
  5490  0AB2  307F               	movlw	127
  5491  0AB3  0537               	andwf	___fldiv@grs+3,w
  5492  0AB4  00AB               	movwf	??___fldiv+3
  5493  0AB5  082B               	movf	??___fldiv+3,w
  5494  0AB6  042A               	iorwf	??___fldiv+2,w
  5495  0AB7  0429               	iorwf	??___fldiv+1,w
  5496  0AB8  0428               	iorwf	??___fldiv,w
  5497  0AB9  1903               	skipnz
  5498  0ABA  2ABC               	goto	u270_21
  5499  0ABB  2ABD               	goto	u270_20
  5500  0ABC                     u270_21:
  5501  0ABC  2AC0               	goto	i1l722
  5502  0ABD                     u270_20:
  5503  0ABD                     i1l2243:
  5504  0ABD  01B9               	clrf	___fldiv@aexp
  5505  0ABE  0AB9               	incf	___fldiv@aexp,f
  5506  0ABF  2AC5               	goto	i1l2247
  5507  0AC0                     i1l722:
  5508  0AC0  1C24               	btfss	___fldiv@b,0
  5509  0AC1  2AC3               	goto	u271_21
  5510  0AC2  2AC4               	goto	u271_20
  5511  0AC3                     u271_21:
  5512  0AC3  2AC5               	goto	i1l2247
  5513  0AC4                     u271_20:
  5514  0AC4  2ABD               	goto	i1l2243
  5515  0AC5                     i1l2247:
  5516  0AC5  0839               	movf	___fldiv@aexp,w
  5517  0AC6  1903               	btfsc	3,2
  5518  0AC7  2AC9               	goto	u272_21
  5519  0AC8  2ACA               	goto	u272_20
  5520  0AC9                     u272_21:
  5521  0AC9  2AFB               	goto	i1l2257
  5522  0ACA                     u272_20:
  5523  0ACA                     i1l2249:
  5524  0ACA  3001               	movlw	1
  5525  0ACB  07A4               	addwf	___fldiv@b,f
  5526  0ACC  3000               	movlw	0
  5527  0ACD  1803               	skipnc
  5528  0ACE  3001               	movlw	1
  5529  0ACF  07A5               	addwf	___fldiv@b+1,f
  5530  0AD0  3000               	movlw	0
  5531  0AD1  1803               	skipnc
  5532  0AD2  3001               	movlw	1
  5533  0AD3  07A6               	addwf	___fldiv@b+2,f
  5534  0AD4  3000               	movlw	0
  5535  0AD5  1803               	skipnc
  5536  0AD6  3001               	movlw	1
  5537  0AD7  07A7               	addwf	___fldiv@b+3,f
  5538  0AD8                     i1l2251:
  5539  0AD8  1C27               	btfss	___fldiv@b+3,0
  5540  0AD9  2ADB               	goto	u273_21
  5541  0ADA  2ADC               	goto	u273_20
  5542  0ADB                     u273_21:
  5543  0ADB  2AFB               	goto	i1l2257
  5544  0ADC                     u273_20:
  5545  0ADC                     i1l2253:
  5546  0ADC  0824               	movf	___fldiv@b,w
  5547  0ADD  00A8               	movwf	??___fldiv
  5548  0ADE  0825               	movf	___fldiv@b+1,w
  5549  0ADF  00A9               	movwf	??___fldiv+1
  5550  0AE0  0826               	movf	___fldiv@b+2,w
  5551  0AE1  00AA               	movwf	??___fldiv+2
  5552  0AE2  0827               	movf	___fldiv@b+3,w
  5553  0AE3  00AB               	movwf	??___fldiv+3
  5554  0AE4  3001               	movlw	1
  5555  0AE5  00AC               	movwf	??___fldiv+4
  5556  0AE6                     u274_25:
  5557  0AE6  0D2B               	rlf	??___fldiv+3,w
  5558  0AE7  0CAB               	rrf	??___fldiv+3,f
  5559  0AE8  0CAA               	rrf	??___fldiv+2,f
  5560  0AE9  0CA9               	rrf	??___fldiv+1,f
  5561  0AEA  0CA8               	rrf	??___fldiv,f
  5562  0AEB                     u274_20:
  5563  0AEB  0BAC               	decfsz	??___fldiv+4,f
  5564  0AEC  2AE6               	goto	u274_25
  5565  0AED  082B               	movf	??___fldiv+3,w
  5566  0AEE  00A7               	movwf	___fldiv@b+3
  5567  0AEF  082A               	movf	??___fldiv+2,w
  5568  0AF0  00A6               	movwf	___fldiv@b+2
  5569  0AF1  0829               	movf	??___fldiv+1,w
  5570  0AF2  00A5               	movwf	___fldiv@b+1
  5571  0AF3  0828               	movf	??___fldiv,w
  5572  0AF4  00A4               	movwf	___fldiv@b
  5573  0AF5                     i1l2255:
  5574  0AF5  3001               	movlw	1
  5575  0AF6  07B2               	addwf	___fldiv@new_exp,f
  5576  0AF7  1803               	skipnc
  5577  0AF8  0AB3               	incf	___fldiv@new_exp+1,f
  5578  0AF9  3000               	movlw	0
  5579  0AFA  07B3               	addwf	___fldiv@new_exp+1,f
  5580  0AFB                     i1l2257:
  5581  0AFB  0833               	movf	___fldiv@new_exp+1,w
  5582  0AFC  3A80               	xorlw	128
  5583  0AFD  00FF               	movwf	btemp+1
  5584  0AFE  3080               	movlw	128
  5585  0AFF  027F               	subwf	btemp+1,w
  5586  0B00  1D03               	skipz
  5587  0B01  2B04               	goto	u275_25
  5588  0B02  30FF               	movlw	255
  5589  0B03  0232               	subwf	___fldiv@new_exp,w
  5590  0B04                     u275_25:
  5591  0B04  1C03               	skipc
  5592  0B05  2B07               	goto	u275_21
  5593  0B06  2B08               	goto	u275_20
  5594  0B07                     u275_21:
  5595  0B07  2B16               	goto	i1l2261
  5596  0B08                     u275_20:
  5597  0B08                     i1l2259:
  5598  0B08  30FF               	movlw	255
  5599  0B09  1283               	bcf	3,5	;RP0=0, select bank0
  5600  0B0A  1303               	bcf	3,6	;RP1=0, select bank0
  5601  0B0B  00B2               	movwf	___fldiv@new_exp
  5602  0B0C  3000               	movlw	0
  5603  0B0D  00B3               	movwf	___fldiv@new_exp+1
  5604  0B0E  3000               	movlw	0
  5605  0B0F  00A7               	movwf	___fldiv@b+3
  5606  0B10  3000               	movlw	0
  5607  0B11  00A6               	movwf	___fldiv@b+2
  5608  0B12  3000               	movlw	0
  5609  0B13  00A5               	movwf	___fldiv@b+1
  5610  0B14  3000               	movlw	0
  5611  0B15  00A4               	movwf	___fldiv@b
  5612  0B16                     i1l2261:
  5613  0B16  1283               	bcf	3,5	;RP0=0, select bank0
  5614  0B17  1303               	bcf	3,6	;RP1=0, select bank0
  5615  0B18  0833               	movf	___fldiv@new_exp+1,w
  5616  0B19  3A80               	xorlw	128
  5617  0B1A  00FF               	movwf	btemp+1
  5618  0B1B  3080               	movlw	128
  5619  0B1C  027F               	subwf	btemp+1,w
  5620  0B1D  1D03               	skipz
  5621  0B1E  2B21               	goto	u276_25
  5622  0B1F  3001               	movlw	1
  5623  0B20  0232               	subwf	___fldiv@new_exp,w
  5624  0B21                     u276_25:
  5625  0B21  1803               	skipnc
  5626  0B22  2B24               	goto	u276_21
  5627  0B23  2B25               	goto	u276_20
  5628  0B24                     u276_21:
  5629  0B24  2B32               	goto	i1l728
  5630  0B25                     u276_20:
  5631  0B25                     i1l2263:
  5632  0B25  1283               	bcf	3,5	;RP0=0, select bank0
  5633  0B26  1303               	bcf	3,6	;RP1=0, select bank0
  5634  0B27  01B2               	clrf	___fldiv@new_exp
  5635  0B28  01B3               	clrf	___fldiv@new_exp+1
  5636  0B29                     i1l2265:
  5637  0B29  3000               	movlw	0
  5638  0B2A  00A7               	movwf	___fldiv@b+3
  5639  0B2B  3000               	movlw	0
  5640  0B2C  00A6               	movwf	___fldiv@b+2
  5641  0B2D  3000               	movlw	0
  5642  0B2E  00A5               	movwf	___fldiv@b+1
  5643  0B2F  3000               	movlw	0
  5644  0B30  00A4               	movwf	___fldiv@b
  5645  0B31                     i1l2267:
  5646  0B31  01B1               	clrf	___fldiv@sign
  5647  0B32                     i1l728:
  5648  0B32  1283               	bcf	3,5	;RP0=0, select bank0
  5649  0B33  1303               	bcf	3,6	;RP1=0, select bank0
  5650  0B34  0832               	movf	___fldiv@new_exp,w
  5651  0B35  00A8               	movwf	??___fldiv
  5652  0B36  0828               	movf	??___fldiv,w
  5653  0B37  00B8               	movwf	___fldiv@bexp
  5654  0B38                     i1l2269:
  5655  0B38  1C38               	btfss	___fldiv@bexp,0
  5656  0B39  2B3B               	goto	u277_21
  5657  0B3A  2B3C               	goto	u277_20
  5658  0B3B                     u277_21:
  5659  0B3B  2B3E               	goto	i1l2273
  5660  0B3C                     u277_20:
  5661  0B3C                     i1l2271:
  5662  0B3C  17A6               	bsf	___fldiv@b+2,7
  5663  0B3D  2B42               	goto	i1l730
  5664  0B3E                     i1l2273:
  5665  0B3E  307F               	movlw	127
  5666  0B3F  00A8               	movwf	??___fldiv
  5667  0B40  0828               	movf	??___fldiv,w
  5668  0B41  05A6               	andwf	___fldiv@b+2,f
  5669  0B42                     i1l730:
  5670  0B42  0838               	movf	___fldiv@bexp,w
  5671  0B43  00A8               	movwf	??___fldiv
  5672  0B44  1003               	clrc
  5673  0B45  0C28               	rrf	??___fldiv,w
  5674  0B46  00A9               	movwf	??___fldiv+1
  5675  0B47  0829               	movf	??___fldiv+1,w
  5676  0B48  00A7               	movwf	___fldiv@b+3
  5677  0B49  0831               	movf	___fldiv@sign,w
  5678  0B4A  00A8               	movwf	??___fldiv
  5679  0B4B  0828               	movf	??___fldiv,w
  5680  0B4C  04A7               	iorwf	___fldiv@b+3,f
  5681  0B4D  29E6               	goto	i1l2181
  5682  0B4E                     i1l708:
  5683  0B4E  0008               	return
  5684  0B4F                     __end_of___fldiv:
  5685                           
  5686                           	psect	text15
  5687  0D78                     __ptext15:	
  5688 ;; *************** function ___fladd *****************
  5689 ;; Defined at:
  5690 ;;		line 10 in file "C:\Program Files\Microchip\xc8\v2.35\pic\sources\c90\common\sprcadd.c"
  5691 ;; Parameters:    Size  Location     Type
  5692 ;;  b               4   52[BANK0 ] unsigned char 
  5693 ;;  a               4   56[BANK0 ] unsigned char 
  5694 ;; Auto vars:     Size  Location     Type
  5695 ;;  grs             1   71[BANK0 ] unsigned char 
  5696 ;;  bexp            1   70[BANK0 ] unsigned char 
  5697 ;;  aexp            1   69[BANK0 ] unsigned char 
  5698 ;;  signs           1   68[BANK0 ] unsigned char 
  5699 ;; Return value:  Size  Location     Type
  5700 ;;                  4   52[BANK0 ] unsigned char 
  5701 ;; Registers used:
  5702 ;;		wreg, status,2, status,0, btemp+1
  5703 ;; Tracked objects:
  5704 ;;		On entry : 0/0
  5705 ;;		On exit  : 0/0
  5706 ;;		Unchanged: 0/0
  5707 ;; Data sizes:     COMMON   BANK0   BANK1   BANK3   BANK2
  5708 ;;      Params:         0       8       0       0       0
  5709 ;;      Locals:         0       4       0       0       0
  5710 ;;      Temps:          0       8       0       0       0
  5711 ;;      Totals:         0      20       0       0       0
  5712 ;;Total ram usage:       20 bytes
  5713 ;; Hardware stack levels used: 1
  5714 ;; This function calls:
  5715 ;;		Nothing
  5716 ;; This function is called by:
  5717 ;;		_map
  5718 ;; This function uses a non-reentrant model
  5719 ;;
  5720                           
  5721  0D78                     ___fladd:	
  5722                           ;psect for function ___fladd
  5723                           
  5724  0D78                     i1l1943:	
  5725                           ;incstack = 0
  5726                           ; Regs used in ___fladd: [wreg+status,2+status,0+btemp+1]
  5727                           
  5728  0D78  1283               	bcf	3,5	;RP0=0, select bank0
  5729  0D79  1303               	bcf	3,6	;RP1=0, select bank0
  5730  0D7A  0857               	movf	___fladd@b+3,w
  5731  0D7B  3980               	andlw	128
  5732  0D7C  00DC               	movwf	??___fladd
  5733  0D7D  085C               	movf	??___fladd,w
  5734  0D7E  00E4               	movwf	___fladd@signs
  5735  0D7F                     i1l1945:
  5736  0D7F  0857               	movf	___fladd@b+3,w
  5737  0D80  00DC               	movwf	??___fladd
  5738  0D81  075C               	addwf	??___fladd,w
  5739  0D82  00DD               	movwf	??___fladd+1
  5740  0D83  085D               	movf	??___fladd+1,w
  5741  0D84  00E6               	movwf	___fladd@bexp
  5742  0D85                     i1l1947:
  5743  0D85  1FD6               	btfss	___fladd@b+2,7
  5744  0D86  2D88               	goto	u203_21
  5745  0D87  2D89               	goto	u203_20
  5746  0D88                     u203_21:
  5747  0D88  2D8A               	goto	i1l1951
  5748  0D89                     u203_20:
  5749  0D89                     i1l1949:
  5750  0D89  1466               	bsf	___fladd@bexp,0
  5751  0D8A                     i1l1951:
  5752  0D8A  0866               	movf	___fladd@bexp,w
  5753  0D8B  1903               	btfsc	3,2
  5754  0D8C  2D8E               	goto	u204_21
  5755  0D8D  2D8F               	goto	u204_20
  5756  0D8E                     u204_21:
  5757  0D8E  2D9F               	goto	i1l1961
  5758  0D8F                     u204_20:
  5759  0D8F                     i1l1953:
  5760  0D8F  0A66               	incf	___fladd@bexp,w
  5761  0D90  1D03               	btfss	3,2
  5762  0D91  2D93               	goto	u205_21
  5763  0D92  2D94               	goto	u205_20
  5764  0D93                     u205_21:
  5765  0D93  2D9C               	goto	i1l1957
  5766  0D94                     u205_20:
  5767  0D94                     i1l1955:
  5768  0D94  3000               	movlw	0
  5769  0D95  00D7               	movwf	___fladd@b+3
  5770  0D96  3000               	movlw	0
  5771  0D97  00D6               	movwf	___fladd@b+2
  5772  0D98  3000               	movlw	0
  5773  0D99  00D5               	movwf	___fladd@b+1
  5774  0D9A  3000               	movlw	0
  5775  0D9B  00D4               	movwf	___fladd@b
  5776  0D9C                     i1l1957:
  5777  0D9C  17D6               	bsf	___fladd@b+2,7
  5778  0D9D                     i1l1959:
  5779  0D9D  01D7               	clrf	___fladd@b+3
  5780  0D9E  2DA7               	goto	i1l1963
  5781  0D9F                     i1l1961:
  5782  0D9F  3000               	movlw	0
  5783  0DA0  00D7               	movwf	___fladd@b+3
  5784  0DA1  3000               	movlw	0
  5785  0DA2  00D6               	movwf	___fladd@b+2
  5786  0DA3  3000               	movlw	0
  5787  0DA4  00D5               	movwf	___fladd@b+1
  5788  0DA5  3000               	movlw	0
  5789  0DA6  00D4               	movwf	___fladd@b
  5790  0DA7                     i1l1963:
  5791  0DA7  085B               	movf	___fladd@a+3,w
  5792  0DA8  3980               	andlw	128
  5793  0DA9  00DC               	movwf	??___fladd
  5794  0DAA  085C               	movf	??___fladd,w
  5795  0DAB  00E5               	movwf	___fladd@aexp
  5796  0DAC                     i1l1965:
  5797  0DAC  0865               	movf	___fladd@aexp,w
  5798  0DAD  0664               	xorwf	___fladd@signs,w
  5799  0DAE  1903               	skipnz
  5800  0DAF  2DB1               	goto	u206_21
  5801  0DB0  2DB2               	goto	u206_20
  5802  0DB1                     u206_21:
  5803  0DB1  2DB3               	goto	i1l1969
  5804  0DB2                     u206_20:
  5805  0DB2                     i1l1967:
  5806  0DB2  1764               	bsf	___fladd@signs,6
  5807  0DB3                     i1l1969:
  5808  0DB3  085B               	movf	___fladd@a+3,w
  5809  0DB4  00DC               	movwf	??___fladd
  5810  0DB5  075C               	addwf	??___fladd,w
  5811  0DB6  00DD               	movwf	??___fladd+1
  5812  0DB7  085D               	movf	??___fladd+1,w
  5813  0DB8  00E5               	movwf	___fladd@aexp
  5814  0DB9                     i1l1971:
  5815  0DB9  1FDA               	btfss	___fladd@a+2,7
  5816  0DBA  2DBC               	goto	u207_21
  5817  0DBB  2DBD               	goto	u207_20
  5818  0DBC                     u207_21:
  5819  0DBC  2DBE               	goto	i1l1975
  5820  0DBD                     u207_20:
  5821  0DBD                     i1l1973:
  5822  0DBD  1465               	bsf	___fladd@aexp,0
  5823  0DBE                     i1l1975:
  5824  0DBE  0865               	movf	___fladd@aexp,w
  5825  0DBF  1903               	btfsc	3,2
  5826  0DC0  2DC2               	goto	u208_21
  5827  0DC1  2DC3               	goto	u208_20
  5828  0DC2                     u208_21:
  5829  0DC2  2DD3               	goto	i1l1985
  5830  0DC3                     u208_20:
  5831  0DC3                     i1l1977:
  5832  0DC3  0A65               	incf	___fladd@aexp,w
  5833  0DC4  1D03               	btfss	3,2
  5834  0DC5  2DC7               	goto	u209_21
  5835  0DC6  2DC8               	goto	u209_20
  5836  0DC7                     u209_21:
  5837  0DC7  2DD0               	goto	i1l1981
  5838  0DC8                     u209_20:
  5839  0DC8                     i1l1979:
  5840  0DC8  3000               	movlw	0
  5841  0DC9  00DB               	movwf	___fladd@a+3
  5842  0DCA  3000               	movlw	0
  5843  0DCB  00DA               	movwf	___fladd@a+2
  5844  0DCC  3000               	movlw	0
  5845  0DCD  00D9               	movwf	___fladd@a+1
  5846  0DCE  3000               	movlw	0
  5847  0DCF  00D8               	movwf	___fladd@a
  5848  0DD0                     i1l1981:
  5849  0DD0  17DA               	bsf	___fladd@a+2,7
  5850  0DD1                     i1l1983:
  5851  0DD1  01DB               	clrf	___fladd@a+3
  5852  0DD2  2DDB               	goto	i1l650
  5853  0DD3                     i1l1985:
  5854  0DD3  3000               	movlw	0
  5855  0DD4  00DB               	movwf	___fladd@a+3
  5856  0DD5  3000               	movlw	0
  5857  0DD6  00DA               	movwf	___fladd@a+2
  5858  0DD7  3000               	movlw	0
  5859  0DD8  00D9               	movwf	___fladd@a+1
  5860  0DD9  3000               	movlw	0
  5861  0DDA  00D8               	movwf	___fladd@a
  5862  0DDB                     i1l650:
  5863  0DDB  0866               	movf	___fladd@bexp,w
  5864  0DDC  0265               	subwf	___fladd@aexp,w
  5865  0DDD  1803               	skipnc
  5866  0DDE  2DE0               	goto	u210_21
  5867  0DDF  2DE1               	goto	u210_20
  5868  0DE0                     u210_21:
  5869  0DE0  2E25               	goto	i1l2021
  5870  0DE1                     u210_20:
  5871  0DE1                     i1l1987:
  5872  0DE1  1F64               	btfss	___fladd@signs,6
  5873  0DE2  2DE4               	goto	u211_21
  5874  0DE3  2DE5               	goto	u211_20
  5875  0DE4                     u211_21:
  5876  0DE4  2DE9               	goto	i1l1991
  5877  0DE5                     u211_20:
  5878  0DE5                     i1l1989:
  5879  0DE5  3080               	movlw	128
  5880  0DE6  00DC               	movwf	??___fladd
  5881  0DE7  085C               	movf	??___fladd,w
  5882  0DE8  06E4               	xorwf	___fladd@signs,f
  5883  0DE9                     i1l1991:
  5884  0DE9  0866               	movf	___fladd@bexp,w
  5885  0DEA  00DC               	movwf	??___fladd
  5886  0DEB  085C               	movf	??___fladd,w
  5887  0DEC  00E7               	movwf	___fladd@grs
  5888  0DED                     i1l1993:
  5889  0DED  0865               	movf	___fladd@aexp,w
  5890  0DEE  00DC               	movwf	??___fladd
  5891  0DEF  085C               	movf	??___fladd,w
  5892  0DF0  00E6               	movwf	___fladd@bexp
  5893  0DF1                     i1l1995:
  5894  0DF1  0867               	movf	___fladd@grs,w
  5895  0DF2  00DC               	movwf	??___fladd
  5896  0DF3  085C               	movf	??___fladd,w
  5897  0DF4  00E5               	movwf	___fladd@aexp
  5898  0DF5                     i1l1997:
  5899  0DF5  0854               	movf	___fladd@b,w
  5900  0DF6  00DC               	movwf	??___fladd
  5901  0DF7  085C               	movf	??___fladd,w
  5902  0DF8  00E7               	movwf	___fladd@grs
  5903  0DF9                     i1l1999:
  5904  0DF9  0858               	movf	___fladd@a,w
  5905  0DFA  00DC               	movwf	??___fladd
  5906  0DFB  085C               	movf	??___fladd,w
  5907  0DFC  00D4               	movwf	___fladd@b
  5908  0DFD                     i1l2001:
  5909  0DFD  0867               	movf	___fladd@grs,w
  5910  0DFE  00DC               	movwf	??___fladd
  5911  0DFF  085C               	movf	??___fladd,w
  5912  0E00  00D8               	movwf	___fladd@a
  5913  0E01                     i1l2003:
  5914  0E01  0855               	movf	___fladd@b+1,w
  5915  0E02  00DC               	movwf	??___fladd
  5916  0E03  085C               	movf	??___fladd,w
  5917  0E04  00E7               	movwf	___fladd@grs
  5918  0E05                     i1l2005:
  5919  0E05  0859               	movf	___fladd@a+1,w
  5920  0E06  00DC               	movwf	??___fladd
  5921  0E07  085C               	movf	??___fladd,w
  5922  0E08  00D5               	movwf	___fladd@b+1
  5923  0E09                     i1l2007:
  5924  0E09  0867               	movf	___fladd@grs,w
  5925  0E0A  00DC               	movwf	??___fladd
  5926  0E0B  085C               	movf	??___fladd,w
  5927  0E0C  00D9               	movwf	___fladd@a+1
  5928  0E0D                     i1l2009:
  5929  0E0D  0856               	movf	___fladd@b+2,w
  5930  0E0E  00DC               	movwf	??___fladd
  5931  0E0F  085C               	movf	??___fladd,w
  5932  0E10  00E7               	movwf	___fladd@grs
  5933  0E11                     i1l2011:
  5934  0E11  085A               	movf	___fladd@a+2,w
  5935  0E12  00DC               	movwf	??___fladd
  5936  0E13  085C               	movf	??___fladd,w
  5937  0E14  00D6               	movwf	___fladd@b+2
  5938  0E15                     i1l2013:
  5939  0E15  0867               	movf	___fladd@grs,w
  5940  0E16  00DC               	movwf	??___fladd
  5941  0E17  085C               	movf	??___fladd,w
  5942  0E18  00DA               	movwf	___fladd@a+2
  5943  0E19                     i1l2015:
  5944  0E19  0857               	movf	___fladd@b+3,w
  5945  0E1A  00DC               	movwf	??___fladd
  5946  0E1B  085C               	movf	??___fladd,w
  5947  0E1C  00E7               	movwf	___fladd@grs
  5948  0E1D                     i1l2017:
  5949  0E1D  085B               	movf	___fladd@a+3,w
  5950  0E1E  00DC               	movwf	??___fladd
  5951  0E1F  085C               	movf	??___fladd,w
  5952  0E20  00D7               	movwf	___fladd@b+3
  5953  0E21                     i1l2019:
  5954  0E21  0867               	movf	___fladd@grs,w
  5955  0E22  00DC               	movwf	??___fladd
  5956  0E23  085C               	movf	??___fladd,w
  5957  0E24  00DB               	movwf	___fladd@a+3
  5958  0E25                     i1l2021:
  5959  0E25  01E7               	clrf	___fladd@grs
  5960  0E26                     i1l2023:
  5961  0E26  0865               	movf	___fladd@aexp,w
  5962  0E27  00DC               	movwf	??___fladd
  5963  0E28  01DD               	clrf	??___fladd+1
  5964  0E29  085D               	movf	??___fladd+1,w
  5965  0E2A  00DF               	movwf	??___fladd+3
  5966  0E2B  0866               	movf	___fladd@bexp,w
  5967  0E2C  025C               	subwf	??___fladd,w
  5968  0E2D  00DE               	movwf	??___fladd+2
  5969  0E2E  1C03               	skipc
  5970  0E2F  03DF               	decf	??___fladd+3,f
  5971  0E30  085F               	movf	??___fladd+3,w
  5972  0E31  3A80               	xorlw	128
  5973  0E32  00FF               	movwf	btemp+1
  5974  0E33  3080               	movlw	128
  5975  0E34  027F               	subwf	btemp+1,w
  5976  0E35  1D03               	skipz
  5977  0E36  2E39               	goto	u212_25
  5978  0E37  301A               	movlw	26
  5979  0E38  025E               	subwf	??___fladd+2,w
  5980  0E39                     u212_25:
  5981  0E39  1C03               	skipc
  5982  0E3A  2E3C               	goto	u212_21
  5983  0E3B  2E3D               	goto	u212_20
  5984  0E3C                     u212_21:
  5985  0E3C  2E7A               	goto	i1l2039
  5986  0E3D                     u212_20:
  5987  0E3D                     i1l2025:
  5988  0E3D  1283               	bcf	3,5	;RP0=0, select bank0
  5989  0E3E  1303               	bcf	3,6	;RP1=0, select bank0
  5990  0E3F  0857               	movf	___fladd@b+3,w
  5991  0E40  0456               	iorwf	___fladd@b+2,w
  5992  0E41  0455               	iorwf	___fladd@b+1,w
  5993  0E42  0454               	iorwf	___fladd@b,w
  5994  0E43  1D03               	skipz
  5995  0E44  2E46               	goto	u213_21
  5996  0E45  2E48               	goto	u213_20
  5997  0E46                     u213_21:
  5998  0E46  3001               	movlw	1
  5999  0E47  2E49               	goto	u214_20
  6000  0E48                     u213_20:
  6001  0E48  3000               	movlw	0
  6002  0E49                     u214_20:
  6003  0E49  00DC               	movwf	??___fladd
  6004  0E4A  085C               	movf	??___fladd,w
  6005  0E4B  00E7               	movwf	___fladd@grs
  6006  0E4C  3000               	movlw	0
  6007  0E4D  00D7               	movwf	___fladd@b+3
  6008  0E4E  3000               	movlw	0
  6009  0E4F  00D6               	movwf	___fladd@b+2
  6010  0E50  3000               	movlw	0
  6011  0E51  00D5               	movwf	___fladd@b+1
  6012  0E52  3000               	movlw	0
  6013  0E53  00D4               	movwf	___fladd@b
  6014  0E54  0865               	movf	___fladd@aexp,w
  6015  0E55  00DC               	movwf	??___fladd
  6016  0E56  085C               	movf	??___fladd,w
  6017  0E57  00E6               	movwf	___fladd@bexp
  6018  0E58  2E82               	goto	i1l654
  6019  0E59                     i1l656:
  6020  0E59  1C67               	btfss	___fladd@grs,0
  6021  0E5A  2E5C               	goto	u215_21
  6022  0E5B  2E5D               	goto	u215_20
  6023  0E5C                     u215_21:
  6024  0E5C  2E66               	goto	i1l2029
  6025  0E5D                     u215_20:
  6026  0E5D                     i1l2027:
  6027  0E5D  0867               	movf	___fladd@grs,w
  6028  0E5E  00DC               	movwf	??___fladd
  6029  0E5F  1003               	clrc
  6030  0E60  0C5C               	rrf	??___fladd,w
  6031  0E61  3801               	iorlw	1
  6032  0E62  00DD               	movwf	??___fladd+1
  6033  0E63  085D               	movf	??___fladd+1,w
  6034  0E64  00E7               	movwf	___fladd@grs
  6035  0E65  2E68               	goto	i1l2031
  6036  0E66                     i1l2029:
  6037  0E66  1003               	clrc
  6038  0E67  0CE7               	rrf	___fladd@grs,f
  6039  0E68                     i1l2031:
  6040  0E68  1C54               	btfss	___fladd@b,0
  6041  0E69  2E6B               	goto	u216_21
  6042  0E6A  2E6C               	goto	u216_20
  6043  0E6B                     u216_21:
  6044  0E6B  2E6D               	goto	i1l2035
  6045  0E6C                     u216_20:
  6046  0E6C                     i1l2033:
  6047  0E6C  17E7               	bsf	___fladd@grs,7
  6048  0E6D                     i1l2035:
  6049  0E6D  3001               	movlw	1
  6050  0E6E  00DC               	movwf	??___fladd
  6051  0E6F                     u217_25:
  6052  0E6F  0D57               	rlf	___fladd@b+3,w
  6053  0E70  0CD7               	rrf	___fladd@b+3,f
  6054  0E71  0CD6               	rrf	___fladd@b+2,f
  6055  0E72  0CD5               	rrf	___fladd@b+1,f
  6056  0E73  0CD4               	rrf	___fladd@b,f
  6057  0E74  0BDC               	decfsz	??___fladd& (0+127),f
  6058  0E75  2E6F               	goto	u217_25
  6059  0E76                     i1l2037:
  6060  0E76  3001               	movlw	1
  6061  0E77  00DC               	movwf	??___fladd
  6062  0E78  085C               	movf	??___fladd,w
  6063  0E79  07E6               	addwf	___fladd@bexp,f
  6064  0E7A                     i1l2039:
  6065  0E7A  1283               	bcf	3,5	;RP0=0, select bank0
  6066  0E7B  1303               	bcf	3,6	;RP1=0, select bank0
  6067  0E7C  0865               	movf	___fladd@aexp,w
  6068  0E7D  0266               	subwf	___fladd@bexp,w
  6069  0E7E  1C03               	skipc
  6070  0E7F  2E81               	goto	u218_21
  6071  0E80  2E82               	goto	u218_20
  6072  0E81                     u218_21:
  6073  0E81  2E59               	goto	i1l656
  6074  0E82                     u218_20:
  6075  0E82                     i1l654:
  6076  0E82  1B64               	btfsc	___fladd@signs,6
  6077  0E83  2E85               	goto	u219_21
  6078  0E84  2E86               	goto	u219_20
  6079  0E85                     u219_21:
  6080  0E85  2ED1               	goto	i1l2065
  6081  0E86                     u219_20:
  6082  0E86                     i1l2041:
  6083  0E86  0866               	movf	___fladd@bexp,w
  6084  0E87  1D03               	btfss	3,2
  6085  0E88  2E8A               	goto	u220_21
  6086  0E89  2E8B               	goto	u220_20
  6087  0E8A                     u220_21:
  6088  0E8A  2E94               	goto	i1l2047
  6089  0E8B                     u220_20:
  6090  0E8B                     i1l2043:
  6091  0E8B  3000               	movlw	0
  6092  0E8C  00D7               	movwf	?___fladd+3
  6093  0E8D  3000               	movlw	0
  6094  0E8E  00D6               	movwf	?___fladd+2
  6095  0E8F  3000               	movlw	0
  6096  0E90  00D5               	movwf	?___fladd+1
  6097  0E91  3000               	movlw	0
  6098  0E92  00D4               	movwf	?___fladd
  6099  0E93  2FFF               	goto	i1l663
  6100  0E94                     i1l2047:
  6101  0E94  0858               	movf	___fladd@a,w
  6102  0E95  07D4               	addwf	___fladd@b,f
  6103  0E96  0859               	movf	___fladd@a+1,w
  6104  0E97  1103               	clrz
  6105  0E98  1803               	skipnc
  6106  0E99  3E01               	addlw	1
  6107  0E9A  1903               	skipnz
  6108  0E9B  2E9D               	goto	u221_21
  6109  0E9C  07D5               	addwf	___fladd@b+1,f
  6110  0E9D                     u221_21:
  6111  0E9D  085A               	movf	___fladd@a+2,w
  6112  0E9E  1103               	clrz
  6113  0E9F  1803               	skipnc
  6114  0EA0  3E01               	addlw	1
  6115  0EA1  1903               	skipnz
  6116  0EA2  2EA4               	goto	u221_22
  6117  0EA3  07D6               	addwf	___fladd@b+2,f
  6118  0EA4                     u221_22:
  6119  0EA4  085B               	movf	___fladd@a+3,w
  6120  0EA5  1103               	clrz
  6121  0EA6  1803               	skipnc
  6122  0EA7  3E01               	addlw	1
  6123  0EA8  1903               	skipnz
  6124  0EA9  2EAB               	goto	u221_23
  6125  0EAA  07D7               	addwf	___fladd@b+3,f
  6126  0EAB                     u221_23:
  6127  0EAB                     i1l2049:
  6128  0EAB  1C57               	btfss	___fladd@b+3,0
  6129  0EAC  2EAE               	goto	u222_21
  6130  0EAD  2EAF               	goto	u222_20
  6131  0EAE                     u222_21:
  6132  0EAE  2F85               	goto	i1l2099
  6133  0EAF                     u222_20:
  6134  0EAF                     i1l2051:
  6135  0EAF  1C67               	btfss	___fladd@grs,0
  6136  0EB0  2EB2               	goto	u223_21
  6137  0EB1  2EB3               	goto	u223_20
  6138  0EB2                     u223_21:
  6139  0EB2  2EBC               	goto	i1l2055
  6140  0EB3                     u223_20:
  6141  0EB3                     i1l2053:
  6142  0EB3  0867               	movf	___fladd@grs,w
  6143  0EB4  00DC               	movwf	??___fladd
  6144  0EB5  1003               	clrc
  6145  0EB6  0C5C               	rrf	??___fladd,w
  6146  0EB7  3801               	iorlw	1
  6147  0EB8  00DD               	movwf	??___fladd+1
  6148  0EB9  085D               	movf	??___fladd+1,w
  6149  0EBA  00E7               	movwf	___fladd@grs
  6150  0EBB  2EBE               	goto	i1l2057
  6151  0EBC                     i1l2055:
  6152  0EBC  1003               	clrc
  6153  0EBD  0CE7               	rrf	___fladd@grs,f
  6154  0EBE                     i1l2057:
  6155  0EBE  1C54               	btfss	___fladd@b,0
  6156  0EBF  2EC1               	goto	u224_21
  6157  0EC0  2EC2               	goto	u224_20
  6158  0EC1                     u224_21:
  6159  0EC1  2EC3               	goto	i1l2061
  6160  0EC2                     u224_20:
  6161  0EC2                     i1l2059:
  6162  0EC2  17E7               	bsf	___fladd@grs,7
  6163  0EC3                     i1l2061:
  6164  0EC3  3001               	movlw	1
  6165  0EC4  00DC               	movwf	??___fladd
  6166  0EC5                     u225_25:
  6167  0EC5  0D57               	rlf	___fladd@b+3,w
  6168  0EC6  0CD7               	rrf	___fladd@b+3,f
  6169  0EC7  0CD6               	rrf	___fladd@b+2,f
  6170  0EC8  0CD5               	rrf	___fladd@b+1,f
  6171  0EC9  0CD4               	rrf	___fladd@b,f
  6172  0ECA  0BDC               	decfsz	??___fladd& (0+127),f
  6173  0ECB  2EC5               	goto	u225_25
  6174  0ECC                     i1l2063:
  6175  0ECC  3001               	movlw	1
  6176  0ECD  00DC               	movwf	??___fladd
  6177  0ECE  085C               	movf	??___fladd,w
  6178  0ECF  07E6               	addwf	___fladd@bexp,f
  6179  0ED0  2F85               	goto	i1l2099
  6180  0ED1                     i1l2065:
  6181  0ED1  0857               	movf	___fladd@b+3,w
  6182  0ED2  3A80               	xorlw	128
  6183  0ED3  00FF               	movwf	btemp+1
  6184  0ED4  085B               	movf	___fladd@a+3,w
  6185  0ED5  3A80               	xorlw	128
  6186  0ED6  027F               	subwf	btemp+1,w
  6187  0ED7  1D03               	skipz
  6188  0ED8  2EE3               	goto	u226_23
  6189  0ED9  085A               	movf	___fladd@a+2,w
  6190  0EDA  0256               	subwf	___fladd@b+2,w
  6191  0EDB  1D03               	skipz
  6192  0EDC  2EE3               	goto	u226_23
  6193  0EDD  0859               	movf	___fladd@a+1,w
  6194  0EDE  0255               	subwf	___fladd@b+1,w
  6195  0EDF  1D03               	skipz
  6196  0EE0  2EE3               	goto	u226_23
  6197  0EE1  0858               	movf	___fladd@a,w
  6198  0EE2  0254               	subwf	___fladd@b,w
  6199  0EE3                     u226_23:
  6200  0EE3  1803               	skipnc
  6201  0EE4  2EE6               	goto	u226_21
  6202  0EE5  2EE7               	goto	u226_20
  6203  0EE6                     u226_21:
  6204  0EE6  2F3F               	goto	i1l2075
  6205  0EE7                     u226_20:
  6206  0EE7                     i1l2067:
  6207  0EE7  30FF               	movlw	255
  6208  0EE8  00DC               	movwf	??___fladd
  6209  0EE9  30FF               	movlw	255
  6210  0EEA  00DD               	movwf	??___fladd+1
  6211  0EEB  30FF               	movlw	255
  6212  0EEC  00DE               	movwf	??___fladd+2
  6213  0EED  30FF               	movlw	255
  6214  0EEE  00DF               	movwf	??___fladd+3
  6215  0EEF  0858               	movf	___fladd@a,w
  6216  0EF0  00E0               	movwf	??___fladd+4
  6217  0EF1  0859               	movf	___fladd@a+1,w
  6218  0EF2  00E1               	movwf	??___fladd+5
  6219  0EF3  085A               	movf	___fladd@a+2,w
  6220  0EF4  00E2               	movwf	??___fladd+6
  6221  0EF5  085B               	movf	___fladd@a+3,w
  6222  0EF6  00E3               	movwf	??___fladd+7
  6223  0EF7  0854               	movf	___fladd@b,w
  6224  0EF8  02E0               	subwf	??___fladd+4,f
  6225  0EF9  0855               	movf	___fladd@b+1,w
  6226  0EFA  1C03               	skipc
  6227  0EFB  0F55               	incfsz	___fladd@b+1,w
  6228  0EFC  2EFE               	goto	u227_21
  6229  0EFD  2EFF               	goto	u227_22
  6230  0EFE                     u227_21:
  6231  0EFE  02E1               	subwf	??___fladd+5,f
  6232  0EFF                     u227_22:
  6233  0EFF  0856               	movf	___fladd@b+2,w
  6234  0F00  1C03               	skipc
  6235  0F01  0F56               	incfsz	___fladd@b+2,w
  6236  0F02  2F04               	goto	u227_23
  6237  0F03  2F05               	goto	u227_24
  6238  0F04                     u227_23:
  6239  0F04  02E2               	subwf	??___fladd+6,f
  6240  0F05                     u227_24:
  6241  0F05  0857               	movf	___fladd@b+3,w
  6242  0F06  1C03               	skipc
  6243  0F07  0F57               	incfsz	___fladd@b+3,w
  6244  0F08  2F0A               	goto	u227_25
  6245  0F09  2F0B               	goto	u227_26
  6246  0F0A                     u227_25:
  6247  0F0A  02E3               	subwf	??___fladd+7,f
  6248  0F0B                     u227_26:
  6249  0F0B  0860               	movf	??___fladd+4,w
  6250  0F0C  07DC               	addwf	??___fladd,f
  6251  0F0D  0861               	movf	??___fladd+5,w
  6252  0F0E  1803               	skipnc
  6253  0F0F  0F61               	incfsz	??___fladd+5,w
  6254  0F10  2F12               	goto	u228_20
  6255  0F11  2F13               	goto	u228_21
  6256  0F12                     u228_20:
  6257  0F12  07DD               	addwf	??___fladd+1,f
  6258  0F13                     u228_21:
  6259  0F13  0862               	movf	??___fladd+6,w
  6260  0F14  1803               	skipnc
  6261  0F15  0F62               	incfsz	??___fladd+6,w
  6262  0F16  2F18               	goto	u228_22
  6263  0F17  2F19               	goto	u228_23
  6264  0F18                     u228_22:
  6265  0F18  07DE               	addwf	??___fladd+2,f
  6266  0F19                     u228_23:
  6267  0F19  0863               	movf	??___fladd+7,w
  6268  0F1A  1803               	skipnc
  6269  0F1B  0A63               	incf	??___fladd+7,w
  6270  0F1C  07DF               	addwf	??___fladd+3,f
  6271  0F1D  085F               	movf	??___fladd+3,w
  6272  0F1E  00D7               	movwf	___fladd@b+3
  6273  0F1F  085E               	movf	??___fladd+2,w
  6274  0F20  00D6               	movwf	___fladd@b+2
  6275  0F21  085D               	movf	??___fladd+1,w
  6276  0F22  00D5               	movwf	___fladd@b+1
  6277  0F23  085C               	movf	??___fladd,w
  6278  0F24  00D4               	movwf	___fladd@b
  6279  0F25                     i1l2069:
  6280  0F25  3080               	movlw	128
  6281  0F26  00DC               	movwf	??___fladd
  6282  0F27  085C               	movf	??___fladd,w
  6283  0F28  06E4               	xorwf	___fladd@signs,f
  6284  0F29  09E7               	comf	___fladd@grs,f
  6285  0F2A  0AE7               	incf	___fladd@grs,f
  6286  0F2B                     i1l2071:
  6287  0F2B  0867               	movf	___fladd@grs,w
  6288  0F2C  1D03               	btfss	3,2
  6289  0F2D  2F2F               	goto	u229_21
  6290  0F2E  2F30               	goto	u229_20
  6291  0F2F                     u229_21:
  6292  0F2F  2F4D               	goto	i1l671
  6293  0F30                     u229_20:
  6294  0F30                     i1l2073:
  6295  0F30  3001               	movlw	1
  6296  0F31  07D4               	addwf	___fladd@b,f
  6297  0F32  3000               	movlw	0
  6298  0F33  1803               	skipnc
  6299  0F34  3001               	movlw	1
  6300  0F35  07D5               	addwf	___fladd@b+1,f
  6301  0F36  3000               	movlw	0
  6302  0F37  1803               	skipnc
  6303  0F38  3001               	movlw	1
  6304  0F39  07D6               	addwf	___fladd@b+2,f
  6305  0F3A  3000               	movlw	0
  6306  0F3B  1803               	skipnc
  6307  0F3C  3001               	movlw	1
  6308  0F3D  07D7               	addwf	___fladd@b+3,f
  6309  0F3E  2F4D               	goto	i1l671
  6310  0F3F                     i1l2075:
  6311  0F3F  0858               	movf	___fladd@a,w
  6312  0F40  02D4               	subwf	___fladd@b,f
  6313  0F41  0859               	movf	___fladd@a+1,w
  6314  0F42  1C03               	skipc
  6315  0F43  0F59               	incfsz	___fladd@a+1,w
  6316  0F44  02D5               	subwf	___fladd@b+1,f
  6317  0F45  085A               	movf	___fladd@a+2,w
  6318  0F46  1C03               	skipc
  6319  0F47  0F5A               	incfsz	___fladd@a+2,w
  6320  0F48  02D6               	subwf	___fladd@b+2,f
  6321  0F49  085B               	movf	___fladd@a+3,w
  6322  0F4A  1C03               	skipc
  6323  0F4B  0F5B               	incfsz	___fladd@a+3,w
  6324  0F4C  02D7               	subwf	___fladd@b+3,f
  6325  0F4D                     i1l671:
  6326  0F4D  0857               	movf	___fladd@b+3,w
  6327  0F4E  0456               	iorwf	___fladd@b+2,w
  6328  0F4F  0455               	iorwf	___fladd@b+1,w
  6329  0F50  0454               	iorwf	___fladd@b,w
  6330  0F51  1D03               	skipz
  6331  0F52  2F54               	goto	u230_21
  6332  0F53  2F55               	goto	u230_20
  6333  0F54                     u230_21:
  6334  0F54  2F81               	goto	i1l2097
  6335  0F55                     u230_20:
  6336  0F55                     i1l2077:
  6337  0F55  0867               	movf	___fladd@grs,w
  6338  0F56  1D03               	btfss	3,2
  6339  0F57  2F59               	goto	u231_21
  6340  0F58  2F5A               	goto	u231_20
  6341  0F59                     u231_21:
  6342  0F59  2F81               	goto	i1l2097
  6343  0F5A                     u231_20:
  6344  0F5A                     i1l2079:
  6345  0F5A  3000               	movlw	0
  6346  0F5B  00D7               	movwf	?___fladd+3
  6347  0F5C  3000               	movlw	0
  6348  0F5D  00D6               	movwf	?___fladd+2
  6349  0F5E  3000               	movlw	0
  6350  0F5F  00D5               	movwf	?___fladd+1
  6351  0F60  3000               	movlw	0
  6352  0F61  00D4               	movwf	?___fladd
  6353  0F62  2FFF               	goto	i1l663
  6354  0F63                     i1l2083:
  6355  0F63  3001               	movlw	1
  6356  0F64  00DC               	movwf	??___fladd
  6357  0F65                     u232_25:
  6358  0F65  1003               	clrc
  6359  0F66  0DD4               	rlf	___fladd@b,f
  6360  0F67  0DD5               	rlf	___fladd@b+1,f
  6361  0F68  0DD6               	rlf	___fladd@b+2,f
  6362  0F69  0DD7               	rlf	___fladd@b+3,f
  6363  0F6A  0BDC               	decfsz	??___fladd,f
  6364  0F6B  2F65               	goto	u232_25
  6365  0F6C                     i1l2085:
  6366  0F6C  1FE7               	btfss	___fladd@grs,7
  6367  0F6D  2F6F               	goto	u233_21
  6368  0F6E  2F70               	goto	u233_20
  6369  0F6F                     u233_21:
  6370  0F6F  2F71               	goto	i1l675
  6371  0F70                     u233_20:
  6372  0F70                     i1l2087:
  6373  0F70  1454               	bsf	___fladd@b,0
  6374  0F71                     i1l675:
  6375  0F71  1C67               	btfss	___fladd@grs,0
  6376  0F72  2F74               	goto	u234_21
  6377  0F73  2F75               	goto	u234_20
  6378  0F74                     u234_21:
  6379  0F74  2F78               	goto	i1l2091
  6380  0F75                     u234_20:
  6381  0F75                     i1l2089:
  6382  0F75  1403               	setc
  6383  0F76  0DE7               	rlf	___fladd@grs,f
  6384  0F77  2F7A               	goto	i1l2093
  6385  0F78                     i1l2091:
  6386  0F78  1003               	clrc
  6387  0F79  0DE7               	rlf	___fladd@grs,f
  6388  0F7A                     i1l2093:
  6389  0F7A  0866               	movf	___fladd@bexp,w
  6390  0F7B  1903               	btfsc	3,2
  6391  0F7C  2F7E               	goto	u235_21
  6392  0F7D  2F7F               	goto	u235_20
  6393  0F7E                     u235_21:
  6394  0F7E  2F81               	goto	i1l2097
  6395  0F7F                     u235_20:
  6396  0F7F                     i1l2095:
  6397  0F7F  3001               	movlw	1
  6398  0F80  02E6               	subwf	___fladd@bexp,f
  6399  0F81                     i1l2097:
  6400  0F81  1FD6               	btfss	___fladd@b+2,7
  6401  0F82  2F84               	goto	u236_21
  6402  0F83  2F85               	goto	u236_20
  6403  0F84                     u236_21:
  6404  0F84  2F63               	goto	i1l2083
  6405  0F85                     u236_20:
  6406  0F85                     i1l2099:
  6407  0F85  01E5               	clrf	___fladd@aexp
  6408  0F86                     i1l2101:
  6409  0F86  1FE7               	btfss	___fladd@grs,7
  6410  0F87  2F89               	goto	u237_21
  6411  0F88  2F8A               	goto	u237_20
  6412  0F89                     u237_21:
  6413  0F89  2F98               	goto	i1l2109
  6414  0F8A                     u237_20:
  6415  0F8A                     i1l2103:
  6416  0F8A  0867               	movf	___fladd@grs,w
  6417  0F8B  397F               	andlw	127
  6418  0F8C  1903               	btfsc	3,2
  6419  0F8D  2F8F               	goto	u238_21
  6420  0F8E  2F90               	goto	u238_20
  6421  0F8F                     u238_21:
  6422  0F8F  2F93               	goto	i1l681
  6423  0F90                     u238_20:
  6424  0F90                     i1l2105:
  6425  0F90  01E5               	clrf	___fladd@aexp
  6426  0F91  0AE5               	incf	___fladd@aexp,f
  6427  0F92  2F98               	goto	i1l2109
  6428  0F93                     i1l681:
  6429  0F93  1C54               	btfss	___fladd@b,0
  6430  0F94  2F96               	goto	u239_21
  6431  0F95  2F97               	goto	u239_20
  6432  0F96                     u239_21:
  6433  0F96  2F98               	goto	i1l2109
  6434  0F97                     u239_20:
  6435  0F97  2F90               	goto	i1l2105
  6436  0F98                     i1l2109:
  6437  0F98  0865               	movf	___fladd@aexp,w
  6438  0F99  1903               	btfsc	3,2
  6439  0F9A  2F9C               	goto	u240_21
  6440  0F9B  2F9D               	goto	u240_20
  6441  0F9C                     u240_21:
  6442  0F9C  2FD1               	goto	i1l684
  6443  0F9D                     u240_20:
  6444  0F9D                     i1l2111:
  6445  0F9D  3001               	movlw	1
  6446  0F9E  07D4               	addwf	___fladd@b,f
  6447  0F9F  3000               	movlw	0
  6448  0FA0  1803               	skipnc
  6449  0FA1  3001               	movlw	1
  6450  0FA2  07D5               	addwf	___fladd@b+1,f
  6451  0FA3  3000               	movlw	0
  6452  0FA4  1803               	skipnc
  6453  0FA5  3001               	movlw	1
  6454  0FA6  07D6               	addwf	___fladd@b+2,f
  6455  0FA7  3000               	movlw	0
  6456  0FA8  1803               	skipnc
  6457  0FA9  3001               	movlw	1
  6458  0FAA  07D7               	addwf	___fladd@b+3,f
  6459  0FAB                     i1l2113:
  6460  0FAB  1C57               	btfss	___fladd@b+3,0
  6461  0FAC  2FAE               	goto	u241_21
  6462  0FAD  2FAF               	goto	u241_20
  6463  0FAE                     u241_21:
  6464  0FAE  2FD1               	goto	i1l684
  6465  0FAF                     u241_20:
  6466  0FAF                     i1l2115:
  6467  0FAF  0854               	movf	___fladd@b,w
  6468  0FB0  00DC               	movwf	??___fladd
  6469  0FB1  0855               	movf	___fladd@b+1,w
  6470  0FB2  00DD               	movwf	??___fladd+1
  6471  0FB3  0856               	movf	___fladd@b+2,w
  6472  0FB4  00DE               	movwf	??___fladd+2
  6473  0FB5  0857               	movf	___fladd@b+3,w
  6474  0FB6  00DF               	movwf	??___fladd+3
  6475  0FB7  3001               	movlw	1
  6476  0FB8  00E0               	movwf	??___fladd+4
  6477  0FB9                     u242_25:
  6478  0FB9  0D5F               	rlf	??___fladd+3,w
  6479  0FBA  0CDF               	rrf	??___fladd+3,f
  6480  0FBB  0CDE               	rrf	??___fladd+2,f
  6481  0FBC  0CDD               	rrf	??___fladd+1,f
  6482  0FBD  0CDC               	rrf	??___fladd,f
  6483  0FBE                     u242_20:
  6484  0FBE  0BE0               	decfsz	??___fladd+4,f
  6485  0FBF  2FB9               	goto	u242_25
  6486  0FC0  085F               	movf	??___fladd+3,w
  6487  0FC1  00D7               	movwf	___fladd@b+3
  6488  0FC2  085E               	movf	??___fladd+2,w
  6489  0FC3  00D6               	movwf	___fladd@b+2
  6490  0FC4  085D               	movf	??___fladd+1,w
  6491  0FC5  00D5               	movwf	___fladd@b+1
  6492  0FC6  085C               	movf	??___fladd,w
  6493  0FC7  00D4               	movwf	___fladd@b
  6494  0FC8  0A66               	incf	___fladd@bexp,w
  6495  0FC9  1903               	btfsc	3,2
  6496  0FCA  2FCC               	goto	u243_21
  6497  0FCB  2FCD               	goto	u243_20
  6498  0FCC                     u243_21:
  6499  0FCC  2FD1               	goto	i1l684
  6500  0FCD                     u243_20:
  6501  0FCD                     i1l2117:
  6502  0FCD  3001               	movlw	1
  6503  0FCE  00DC               	movwf	??___fladd
  6504  0FCF  085C               	movf	??___fladd,w
  6505  0FD0  07E6               	addwf	___fladd@bexp,f
  6506  0FD1                     i1l684:
  6507  0FD1  0A66               	incf	___fladd@bexp,w
  6508  0FD2  1903               	btfsc	3,2
  6509  0FD3  2FD5               	goto	u244_21
  6510  0FD4  2FD6               	goto	u244_20
  6511  0FD5                     u244_21:
  6512  0FD5  2FDB               	goto	i1l2121
  6513  0FD6                     u244_20:
  6514  0FD6                     i1l2119:
  6515  0FD6  0866               	movf	___fladd@bexp,w
  6516  0FD7  1D03               	btfss	3,2
  6517  0FD8  2FDA               	goto	u245_21
  6518  0FD9  2FDB               	goto	u245_20
  6519  0FDA                     u245_21:
  6520  0FDA  2FE9               	goto	i1l2127
  6521  0FDB                     u245_20:
  6522  0FDB                     i1l2121:
  6523  0FDB  3000               	movlw	0
  6524  0FDC  00D7               	movwf	___fladd@b+3
  6525  0FDD  3000               	movlw	0
  6526  0FDE  00D6               	movwf	___fladd@b+2
  6527  0FDF  3000               	movlw	0
  6528  0FE0  00D5               	movwf	___fladd@b+1
  6529  0FE1  3000               	movlw	0
  6530  0FE2  00D4               	movwf	___fladd@b
  6531  0FE3                     i1l2123:
  6532  0FE3  0866               	movf	___fladd@bexp,w
  6533  0FE4  1D03               	btfss	3,2
  6534  0FE5  2FE7               	goto	u246_21
  6535  0FE6  2FE8               	goto	u246_20
  6536  0FE7                     u246_21:
  6537  0FE7  2FE9               	goto	i1l2127
  6538  0FE8                     u246_20:
  6539  0FE8                     i1l2125:
  6540  0FE8  01E4               	clrf	___fladd@signs
  6541  0FE9                     i1l2127:
  6542  0FE9  1C66               	btfss	___fladd@bexp,0
  6543  0FEA  2FEC               	goto	u247_21
  6544  0FEB  2FED               	goto	u247_20
  6545  0FEC                     u247_21:
  6546  0FEC  2FEF               	goto	i1l2131
  6547  0FED                     u247_20:
  6548  0FED                     i1l2129:
  6549  0FED  17D6               	bsf	___fladd@b+2,7
  6550  0FEE  2FF3               	goto	i1l692
  6551  0FEF                     i1l2131:
  6552  0FEF  307F               	movlw	127
  6553  0FF0  00DC               	movwf	??___fladd
  6554  0FF1  085C               	movf	??___fladd,w
  6555  0FF2  05D6               	andwf	___fladd@b+2,f
  6556  0FF3                     i1l692:
  6557  0FF3  0866               	movf	___fladd@bexp,w
  6558  0FF4  00DC               	movwf	??___fladd
  6559  0FF5  1003               	clrc
  6560  0FF6  0C5C               	rrf	??___fladd,w
  6561  0FF7  00DD               	movwf	??___fladd+1
  6562  0FF8  085D               	movf	??___fladd+1,w
  6563  0FF9  00D7               	movwf	___fladd@b+3
  6564  0FFA                     i1l2133:
  6565  0FFA  1FE4               	btfss	___fladd@signs,7
  6566  0FFB  2FFD               	goto	u248_21
  6567  0FFC  2FFE               	goto	u248_20
  6568  0FFD                     u248_21:
  6569  0FFD  2FFF               	goto	i1l693
  6570  0FFE                     u248_20:
  6571  0FFE                     i1l2135:
  6572  0FFE  17D7               	bsf	___fladd@b+3,7
  6573  0FFF                     i1l693:
  6574  0FFF                     i1l663:
  6575  0FFF  0008               	return
  6576  1000                     __end_of___fladd:
  6577  007E                     btemp	set	126	;btemp
  6578  007E                     wtemp0	set	126
  6579                           
  6580                           	psect	idloc
  6581                           
  6582                           ;Config register IDLOC0 @ 0x2000
  6583                           ;	unspecified, using default values
  6584  2000                     	org	8192
  6585  2000  3FFF               	dw	16383
  6586                           
  6587                           ;Config register IDLOC1 @ 0x2001
  6588                           ;	unspecified, using default values
  6589  2001                     	org	8193
  6590  2001  3FFF               	dw	16383
  6591                           
  6592                           ;Config register IDLOC2 @ 0x2002
  6593                           ;	unspecified, using default values
  6594  2002                     	org	8194
  6595  2002  3FFF               	dw	16383
  6596                           
  6597                           ;Config register IDLOC3 @ 0x2003
  6598                           ;	unspecified, using default values
  6599  2003                     	org	8195
  6600  2003  3FFF               	dw	16383
  6601                           
  6602                           	psect	config
  6603                           
  6604                           ;Config register CONFIG1 @ 0x2007
  6605                           ;	Oscillator Selection bits
  6606                           ;	FOSC = INTRC_NOCLKOUT, INTOSCIO oscillator: I/O function on RA6/OSC2/CLKOUT pin, I/O f
      +                          unction on RA7/OSC1/CLKIN
  6607                           ;	Watchdog Timer Enable bit
  6608                           ;	WDTE = OFF, WDT disabled and can be enabled by SWDTEN bit of the WDTCON register
  6609                           ;	Power-up Timer Enable bit
  6610                           ;	PWRTE = OFF, PWRT disabled
  6611                           ;	RE3/MCLR pin function select bit
  6612                           ;	MCLRE = OFF, RE3/MCLR pin function is digital input, MCLR internally tied to VDD
  6613                           ;	Code Protection bit
  6614                           ;	CP = OFF, Program memory code protection is disabled
  6615                           ;	Data Code Protection bit
  6616                           ;	CPD = OFF, Data memory code protection is disabled
  6617                           ;	Brown Out Reset Selection bits
  6618                           ;	BOREN = OFF, BOR disabled
  6619                           ;	Internal External Switchover bit
  6620                           ;	IESO = OFF, Internal/External Switchover mode is disabled
  6621                           ;	Fail-Safe Clock Monitor Enabled bit
  6622                           ;	FCMEN = OFF, Fail-Safe Clock Monitor is disabled
  6623                           ;	Low Voltage Programming Enable bit
  6624                           ;	LVP = OFF, RB3 pin has digital I/O, HV on MCLR must be used for programming
  6625                           ;	In-Circuit Debugger Mode bit
  6626                           ;	DEBUG = 0x1, unprogrammed default
  6627  2007                     	org	8199
  6628  2007  20D4               	dw	8404
  6629                           
  6630                           ;Config register CONFIG2 @ 0x2008
  6631                           ;	Brown-out Reset Selection bit
  6632                           ;	BOR4V = BOR40V, Brown-out Reset set to 4.0V
  6633                           ;	Flash Program Memory Self Write Enable bits
  6634                           ;	WRT = OFF, Write protection off
  6635  2008                     	org	8200
  6636  2008  3FFF               	dw	16383

Data Sizes:
    Strings     0
    Constant    0
    Data        13
    BSS         26
    Persistent  0
    Stack       0

Auto Spaces:
    Space          Size  Autos    Used
    COMMON           14     14      14
    BANK0            80     79      80
    BANK1            80     21      59
    BANK3            96      0       0
    BANK2            96      0       0

Pointer List with Targets:

    None.

Critical Paths under _main in COMMON

    None.

Critical Paths under _isr in COMMON

    _map->___xxtofl
    ___fltol->___xxtofl
    ___flmul->___xxtofl
    ___fldiv->___xxtofl
    ___fladd->___xxtofl

Critical Paths under _main in BANK0

    None.

Critical Paths under _isr in BANK0

    _isr->_map
    _map->___fltol
    ___fltol->___fladd
    ___flmul->___fldiv
    ___fladd->___flmul

Critical Paths under _main in BANK1

    _main->_write_EEPROM
    _setup->_set_ADC

Critical Paths under _isr in BANK1

    _isr->_map
    _map->___fltol

Critical Paths under _main in BANK3

    None.

Critical Paths under _isr in BANK3

    None.

Critical Paths under _main in BANK2

    None.

Critical Paths under _isr in BANK2

    None.

Call Graph Tables:

 ---------------------------------------------------------------------------------
 (Depth) Function   	        Calls       Base Space   Used Autos Params    Refs
 ---------------------------------------------------------------------------------
 (0) _main                                                 2     2      0     674
                                             19 BANK1      2     2      0
                        _read_EEPROM
                              _setup
                       _write_EEPROM
 ---------------------------------------------------------------------------------
 (1) _write_EEPROM                                         2     1      1     652
                                             17 BANK1      2     1      1
 ---------------------------------------------------------------------------------
 (1) _setup                                                0     0      0       0
                            _set_ADC
                            _set_PWM
                            _set_SPI
                           _set_UART
 ---------------------------------------------------------------------------------
 (2) _set_UART                                             0     0      0       0
 ---------------------------------------------------------------------------------
 (2) _set_SPI                                              0     0      0       0
 ---------------------------------------------------------------------------------
 (2) _set_PWM                                              0     0      0       0
 ---------------------------------------------------------------------------------
 (2) _set_ADC                                              1     1      0       0
                                             17 BANK1      1     1      0
 ---------------------------------------------------------------------------------
 (1) _read_EEPROM                                          1     1      0      22
                                             17 BANK1      1     1      0
 ---------------------------------------------------------------------------------
 Estimated maximum stack depth 2
 ---------------------------------------------------------------------------------
 (Depth) Function   	        Calls       Base Space   Used Autos Params    Refs
 ---------------------------------------------------------------------------------
 (3) _isr                                                  6     6      0   10685
                                             11 BANK1      6     6      0
                                _map
 ---------------------------------------------------------------------------------
 (4) _map                                                  7     1      6   10685
                                             78 BANK0      1     1      0
                                              5 BANK1      6     0      6
                            ___fladd
                            ___fldiv
                            ___flmul
                            ___fltol
                           ___xxtofl
 ---------------------------------------------------------------------------------
 (5) ___xxtofl                                            14    10      4     626
                                              0 COMMON    14    10      4
 ---------------------------------------------------------------------------------
 (5) ___fltol                                             11     7      4     305
                                             72 BANK0      6     2      4
                                              0 BANK1      5     5      0
                            ___fladd (ARG)
                            ___fldiv (ARG)
                            ___flmul (ARG)
                           ___xxtofl (ARG)
 ---------------------------------------------------------------------------------
 (5) ___flmul                                             26    18      8    2417
                                             26 BANK0     26    18      8
                          __Umul8_16
                            ___fldiv (ARG)
                           ___xxtofl (ARG)
 ---------------------------------------------------------------------------------
 (6) __Umul8_16                                            9     7      2     799
                                              0 COMMON     9     7      2
 ---------------------------------------------------------------------------------
 (5) ___fldiv                                             26    18      8    1273
                                              0 BANK0     26    18      8
                           ___xxtofl (ARG)
 ---------------------------------------------------------------------------------
 (5) ___fladd                                             20    12      8    2262
                                             52 BANK0     20    12      8
                            ___fldiv (ARG)
                            ___flmul (ARG)
                           ___xxtofl (ARG)
 ---------------------------------------------------------------------------------
 Estimated maximum stack depth 6
 ---------------------------------------------------------------------------------

 Call Graph Graphs:

 _main (ROOT)
   _read_EEPROM
   _setup
     _set_ADC
     _set_PWM
     _set_SPI
     _set_UART
   _write_EEPROM

 _isr (ROOT)
   _map
     ___fladd
       ___fldiv (ARG)
         ___xxtofl (ARG)
       ___flmul (ARG)
         __Umul8_16
         ___fldiv (ARG)
         ___xxtofl (ARG)
       ___xxtofl (ARG)
     ___fldiv
     ___flmul
     ___fltol
       ___fladd (ARG)
       ___fldiv (ARG)
       ___flmul (ARG)
       ___xxtofl (ARG)
     ___xxtofl

 Address spaces:
Name               Size   Autos  Total    Cost      Usage
BANK3               60      0       0       9        0.0%
BITBANK3            60      0       0       8        0.0%
SFR3                 0      0       0       4        0.0%
BITSFR3              0      0       0       4        0.0%
BANK2               60      0       0      11        0.0%
BITBANK2            60      0       0      10        0.0%
SFR2                 0      0       0       5        0.0%
BITSFR2              0      0       0       5        0.0%
BANK1               50     15      3B       7       73.8%
BITBANK1            50      0       0       6        0.0%
SFR1                 0      0       0       2        0.0%
BITSFR1              0      0       0       2        0.0%
BANK0               50     4F      50       5      100.0%
BITBANK0            50      0       0       4        0.0%
SFR0                 0      0       0       1        0.0%
BITSFR0              0      0       0       1        0.0%
COMMON               E      E       E       1      100.0%
BITCOMMON            E      0       0       0        0.0%
CODE                 0      0       0       0        0.0%
DATA                 0      0      99      12        0.0%
ABS                  0      0      99       3        0.0%
NULL                 0      0       0       0        0.0%
STACK                0      0       0       2        0.0%
EEDATA             100      0       0       0        0.0%


Microchip Technology PIC Macro Assembler V2.35 build 20211206165544 
Symbol Table                                                                                   Thu Jun 02 00:34:27 2022

           ___fldiv@aexp 0039             ___fldiv@bexp 0038                        pc 0002  
           ___fldiv@sign 0031              _SSPSTATbits 0094                       fsr 0004  
    __Umul8_16@word_mpld 0076                      l205 0B5A                      l223 0CE3  
                    l208 0B6D                      l250 0877                      l218 0CC3  
                    l235 0D6E                      l252 087D                      l253 0886  
                    l262 07E0                      l247 17EC                      l271 17FF  
                    l264 07E4                      l256 08D5                      l265 07E9  
                    l259 0838                      l268 081E                      _PR2 0092  
                    _map 070A                      _isr 038F                      indf 0000  
           ___flmul@aexp 004C             ___flmul@bexp 004D             ___flmul@sign 0047  
           ___flmul@temp 0052             ___flmul@prod 004E             ___fltol@exp1 006D  
                   l2501 08C2                     l2511 08CD                     l2503 08C3  
                   l2521 08D4                     l2513 08D0                     l2505 08C6  
                   l2515 08D1                     l2507 08C9                     l2531 0871  
                   l2541 17E9                     l1901 081A                     l2517 08D2  
                   l2509 08CC                     l2533 0876                     l2525 0863  
                   l2701 0C5B                     l2535 17E1                     l1831 0823  
                   l1903 081B                     l2519 08D3                     l2471 088C  
                   l2527 086D                     l2711 0C92                     l2703 0C60  
                   l2537 17E5                     l1833 0826                     l2481 08AA  
                   l2473 0899                     l2529 0870                     l2721 0CCB  
                   l2713 0C9D                     l2705 0C66                     l2539 17E8  
                   l1835 082B                     l1851 07CC                     l1843 07BC  
                   l2491 08B9                     l2483 08AF                     l2475 089F  
                   l2467 0887                     l2731 0CF3                     l2723 0CD7  
                   l2715 0CB3                     l2707 0C71                     l1837 082E  
                   l1829 081F                     l1861 07DA                     l1853 07D0  
                   l1845 07C0                     l2493 08BC                     l2485 08B4  
                   l2477 08A0                     l2469 088B                     l2741 0D11  
                   l2733 0CF9                     l2725 0CDD                     l2717 0CBE  
                   l2709 0C7C                     l2661 0B4F                     l1839 0831  
                   l1863 07DB                     l1855 07D4                     l1847 07C4  
                   l1871 17ED                     l2495 08BF                     l2487 08B7  
                   l2479 08A5                     l2751 0D34                     l2743 0D17  
                   l2735 0CFF                     l2727 0CE9                     l2719 0CC4  
                   l2671 0B7D                     l2663 0B54                     l1865 07DC  
                   l1857 07D6                     l1849 07C8                     l1881 17F8  
                   l1873 17F1                     l2497 08C0                     l2489 08B8  
                   l2761 0D69                     l2753 0D41                     l2737 0D05  
                   l2729 0CEE                     l2681 0BEC                     l2745 0D1C  
                   l2673 0B85                     l2665 0B60                     l1867 07DD  
                   l1859 07D8                     l1883 17FB                     l1875 17F4  
                   l1891 080E                     l2499 08C1                     l2755 0D48  
                   l2763 0D6E                     l2747 0D22                     l2739 0D0B  
                   l2691 0C0E                     l2675 0BB3                     l2683 0BF1  
                   l2667 0B73                     l1869 07DF                     l1885 17FC  
                   l1877 17F6                     l1893 0811                     l2765 0D71  
                   l2757 0D55                     l2749 0D2D                     l2693 0C19  
                   l2685 0BF7                     l2677 0BB8                     l2669 0B79  
                   ?_map 00BE                     l1879 17F7                     l1895 0813  
                   l2759 0D5C                     l2695 0C2F                     l2687 0BFB  
                   l2679 0BBE                     l1897 0816                     l1889 0807  
                   l2697 0C3A                     l2689 0C03                     l1899 0817  
                   l2699 0C50                     ?_isr 0070                     u1920 07E4  
                   u3600 0B85                     u1921 07E3                     u3601 0B84  
                   u3290 087D                     u3610 0BBE                     u3291 087C  
                   u3611 0BBD                     u3700 0D0B                     u3620 0BF7  
                   u3701 0D0A                     u3621 0BF6                     u3710 0D17  
                   u3630 0C03                     u3711 0D16                     u3631 0C02  
                   u3720 0D22                     u3640 0C66                     u3721 0D21  
                   u3641 0C65                     u3730 0D2D                     u3650 0CCB  
                   u3570 0B60                     u3731 0D2C                     u3651 0CCA  
                   u3571 0B5F                     u3740 0D41                     u3660 0CD7  
                   u3580 0B73                     u3741 0D40                     u3661 0CD6  
                   u3581 0B72                     u3750 0D55                     u3670 0CDD  
                   u3590 0B79                     u3751 0D54                     u3671 0CDC  
                   u3807 0C40                     u3591 0B78                     u3760 0D69  
                   u3680 0CF3                     u3761 0D68                     u3681 0CF2  
                   u3817 0C56                     u3690 0CFF                     u3691 0CFE  
                   u3827 0C77                     u3837 0C8D                     u3847 0CA3  
                   u3857 0CB9                     u3777 0B64                     u3867 0835  
                   u3787 0C14                     u3797 0C2A                     _main 0B4F  
                   _modo 00AC                     map@x 006E                     btemp 007E  
                   start 0010          ___fldiv@new_exp 0032             ?_read_EEPROM 0070  
                  ??_map 007E                    ??_isr 00C4            ___fltol@sign1 006C  
        __end_of___fladd 1000                    ?_main 0070          __end_of___fldiv 0B4F  
                  _EEADR 010D                    _EEDAT 010C          __end_of___flmul 038F  
        __end_of___fltol 0972                    _ANSEL 0188                    i1l244 07BB  
                  i1l172 05E9                    i1l190 0629                    i1l187 060D  
                  i1l550 095C                    i1l543 0971                    i1l199 0645  
                  i1l553 0971                    i1l650 0DDB                    i1l730 0B42  
                  i1l722 0AC0                    i1l706 09CE                    i1l803 06D3  
                  i1l708 0B4E                    i1l804 06DF                    i1l654 0E82  
                  i1l671 0F4D                    i1l663 0FFF                    i1l656 0E59  
                  i1l728 0B32                    i1l752 02FA                    i1l681 0F93  
                  i1l746 038E                    i1l675 0F71                    i1l692 0FF3  
                  i1l684 0FD1                    i1l693 0FFF                    i1l765 084D  
                  i1l758 0382                    i1l790 0672                    i1l767 085F  
                  i1l792 0709                    i1l796 06B7                    _RCREG 001A  
                  _SPBRG 0099                    _PORTA 0005                    _PORTB 0006  
                  _PORTC 0007                    _PORTD 0008                    _TRISA 0085  
                  _TRISC 0087                    _TRISD 0088                    _TXREG 0019  
                  map@x0 00BE                    map@x1 00BF          __end_of_set_ADC 0839  
                  map@y0 00C0                    map@y1 00C2                    _setup 0887  
        __end_of_set_SPI 1800          __end_of_set_PWM 07EA                    pclath 000A  
                  status 0003                    wtemp0 007E          __initialization 0013  
           __end_of_main 0D78                   ??_main 00CC             _write_EEPROM 0860  
                 _ADRESH 001E                   _CCPR1L 0015                   _CCPR2L 001B  
                 _EECON2 018D                   ?_setup 0070                   _ANSELH 0189  
                 i1l2001 0DFD                   i1l2011 0E11                   i1l2003 0E01  
                 i1l2101 0F86                   i1l2013 0E15                   i1l2005 0E05  
                 i1l2021 0E25                   i1l2111 0F9D                   i1l2103 0F8A  
                 i1l2031 0E68                   i1l2023 0E26                   i1l2015 0E19  
                 i1l2007 0E09                   i1l2121 0FDB                   i1l2113 0FAB  
                 i1l2105 0F90                   i1l2041 0E86                   i1l2033 0E6C  
                 i1l2025 0E3D                   i1l2017 0E1D                   i1l2009 0E0D  
                 i1l2201 0A29                   i1l2131 0FEF                   i1l2123 0FE3  
                 i1l2115 0FAF                   i1l2051 0EAF                   i1l2043 0E8B  
                 i1l2035 0E6D                   i1l2027 0E5D                   i1l2019 0E21  
                 i1l2203 0A2E                   i1l2211 0A4E                   i1l2133 0FFA  
                 i1l2125 0FE8                   i1l2117 0FCD                   i1l2109 0F98  
                 i1l2061 0EC3                   i1l2053 0EB3                   i1l2037 0E76  
                 i1l2029 0E66                   i1l2221 0A79                   i1l2213 0A60  
                 i1l2205 0A40                   i1l2141 097F                   i1l2301 0067  
                 i1l2135 0FFE                   i1l2127 0FE9                   i1l2119 0FD6  
                 i1l2071 0F2B                   i1l2063 0ECC                   i1l2055 0EBC  
                 i1l2047 0E94                   i1l2039 0E7A                   i1l2231 0A91  
                 i1l2223 0A81                   i1l2215 0A61                   i1l2207 0A44  
                 i1l2151 0996                   i1l2143 0983                   i1l2311 007E  
                 i1l2303 006B                   i1l2129 0FED                   i1l2073 0F30  
                 i1l2057 0EBE                   i1l2049 0EAB                   i1l2065 0ED1  
                 i1l2241 0AA9                   i1l2233 0A9A                   i1l2225 0A83  
                 i1l2217 0A6F                   i1l2209 0A45                   i1l2161 09AC  
                 i1l2153 0997                   i1l2145 0984                   i1l2137 0972  
                 i1l2401 034D                   i1l2313 0080                   i1l2305 006C  
                 i1l2091 0F78                   i1l2083 0F63                   i1l2067 0EE7  
                 i1l2075 0F3F                   i1l2059 0EC2                   i1l2251 0AD8  
                 i1l2243 0ABD                   i1l2227 0A8C                   i1l2235 0AA0  
                 i1l2219 0A73                   i1l2171 09C3                   i1l2163 09B0  
                 i1l2147 0989                   i1l2155 0999                   i1l2139 0979  
                 i1l2411 037A                   i1l2403 035C                   i1l2331 00F1  
                 i1l2323 009B                   i1l2315 0088                   i1l2307 0071  
                 i1l2093 0F7A                   i1l2085 0F6C                   i1l2077 0F55  
                 i1l2069 0F25                   i1l2261 0B16                   i1l2253 0ADC  
                 i1l2237 0AA4                   i1l2229 0A90                   i1l2181 09E6  
                 i1l2173 09C4                   i1l2165 09B1                   i1l2157 09A1  
                 i1l2149 098E                   i1l2413 037B                   i1l2405 0366  
                 i1l2341 016E                   i1l2333 011D                   i1l2325 00AB  
                 i1l2317 008D                   i1l2309 0076                   u200_25 094D  
                 i1l2421 0656                   i1l2095 0F7F                   i1l2087 0F70  
                 i1l2079 0F5A                   i1l2271 0B3C                   i1l2263 0B25  
                 i1l2255 0AF5                   i1l2247 0AC5                   i1l2239 0AA5  
                 i1l2191 09FD                   i1l2167 09B6                   i1l2175 09C6  
                 i1l2159 09A6                   i1l2415 0386                   i1l2407 0368  
                 i1l2351 01EE                   i1l2343 018B                   i1l2335 0139  
                 i1l2327 00B8                   i1l2319 0092                   i1l2431 0683  
                 i1l2423 065A                   u201_20 0961                   i1l2089 0F75  
                 i1l2097 0F81                   i1l2273 0B3E                   i1l2265 0B29  
                 i1l2249 0ACA                   i1l2257 0AFB                   i1l2193 0A0F  
                 i1l2177 09D6                   i1l2185 09EF                   i1l2169 09BB  
                 i1l2409 0376                   i1l2361 02A6                   i1l2353 021B  
                 i1l2345 019B                   i1l2337 0155                   i1l2329 00D5  
                 i1l2281 0035                   u201_21 0960                   i1l2441 06AE  
                 i1l2433 0688                   i1l2425 066A                   i1l2601 051E  
                 i1l2099 0F85                   i1l2267 0B31                   i1l2259 0B08  
                 i1l2195 0A17                   i1l2187 09F4                   i1l2179 09E2  
                 i1l2371 02CB                   i1l2363 02AF                   i1l2355 022B  
                 i1l2347 01B8                   i1l2339 015E                   i1l2291 004A  
                 i1l2283 003B                   i1l2451 06E1                   i1l2443 06BE  
                 i1l2435 0695                   i1l2427 067A                   i1l2419 0651  
                 i1l2603 0524                   i1l2611 0565                   i1l2269 0B38  
                 i1l2197 0A1F                   i1l1821 0847                   i1l2381 02E3  
                 i1l2373 02D4                   i1l2365 02BD                   i1l2357 0258  
                 i1l2349 01D1                   i1l2293 0052                   i1l2285 003F  
                 i1l2453 06F7                   i1l2445 06C9                   i1l2437 069C  
                 i1l2621 05A0                   i1l2613 0572                   i1l2605 053E  
                 i1l2199 0A27                   i1l1823 0856                   i1l1815 083A  
                 i1l2391 0312                   i1l2383 02F7                   i1l2367 02C6  
                 i1l2375 02DA                   i1l2359 027E                   i1l2295 0054  
                 i1l2287 0040                   i1l2279 002E                   i1l2455 06FC  
                 i1l2447 06CD                   i1l2439 06A0                   i1l2463 070D  
                 i1l2623 05BA                   i1l2615 0578                   i1l2607 0545  
                 i1l2551 03A8                   i1l2631 05EB                   u210_20 0DE1  
                 u202_20 0966                   u210_21 0DE0                   i1l1825 085B  
                 i1l1817 083C                   i1l2393 0316                   i1l2377 02DE  
                 i1l2369 02CA                   i1l2297 005C                   i1l2289 0045  
                 u202_21 0965                   i1l1921 0920                   i1l1913 08F0  
                 i1l2457 0700                   i1l2449 06D7                   i1l2641 0611  
                 i1l2633 05EF                   i1l2625 05C1                   i1l2617 0580  
                 i1l2609 055E                   i1l2561 03E1                   i1l2553 03B3  
                 i1l2545 038F                   i1l1819 0843                   i1l2395 032F  
                 i1l2387 02FF                   i1l2379 02DF                   i1l2299 0061  
                 i1l1923 0924                   i1l1931 0942                   i1l1915 0915  
                 i1l1907 08D6                   i1l2459 0701                   i1l2651 0635  
                 i1l2643 0619                   i1l2635 05F3                   i1l2627 05DA  
                 i1l2619 059A                   i1l2571 043A                   i1l2563 03FB  
                 i1l2555 03B9                   i1l2547 0395                   i1l2389 0304  
                 i1l2397 0335                   i1l1941 0966                   i1l1917 0916  
                 i1l1909 08E7                   i1l2653 063A                   i1l2645 061E  
                 i1l2637 05FB                   i1l2581 0489                   i1l2629 05E9  
                 i1l2565 0402                   i1l2557 03C1                   i1l2573 0454  
                 i1l2549 03A3                   i1l1951 0D8A                   i1l1943 0D78  
                 i1l2399 0342                   i1l1919 091E                   i1l2655 0640  
                 i1l2647 0624                   i1l2639 0608                   i1l2591 04D7  
                 i1l2583 048F                   i1l2575 0461                   i1l2567 041B  
                 i1l2559 03DB                   u211_20 0DE5                   u203_20 0D89  
                 u211_21 0DE4                   i1l1953 0D8F                   i1l1961 0D9F  
                 u203_21 0D88                   i1l1945 0D7F                   i1l1937 0949  
                 i1l1929 092C                   i1l2649 062D                   i1l2657 0644  
                 i1l2585 04A9                   i1l2577 0467                   i1l2593 04E9  
                 i1l2569 0429                   i1l1971 0DB9                   i1l1963 0DA7  
                 i1l1955 0D94                   i1l1947 0D85                   i1l1939 0961  
                 i1l2595 04F6                   i1l2587 04B0                   i1l2579 046F  
                 i1l1981 0DD0                   i1l1973 0DBD                   i1l1965 0DAC  
                 i1l1957 0D9C                   i1l1949 0D89                   i1l2597 04FC  
                 i1l2589 04C9                   i1l1991 0DE9                   i1l1983 0DD1  
                 i1l1975 0DBE                   i1l1967 0DB2                   i1l1959 0D9D  
                 i1l2599 0504                   u220_20 0E8B                   u212_20 0E3D  
                 u204_20 0D8F                   u220_21 0E8A                   u212_21 0E3C  
                 i1l1993 0DED                   i1l1977 0DC3                   i1l1985 0DD3  
                 i1l1969 0DB3                   u204_21 0D8E                   u300_21 0298  
                 u300_22 029F                   i1l1995 0DF1                   i1l1987 0DE1  
                 i1l1979 0DC8                   u300_23 02A6                   u212_25 0E39  
                 i1l1997 0DF5                   i1l1989 0DE5                   i1l1999 0DF9  
                 u213_20 0E48                   u205_20 0D94                   u221_21 0E9D  
                 u213_21 0E46                   u205_21 0D93                   u221_22 0EA4  
                 u221_23 0EAB                   u301_25 02A8                   u230_20 0F55  
                 u222_20 0EAF                   u214_20 0E49                   u206_20 0DB2  
                 u310_20 0316                   u230_21 0F54                   u222_21 0EAE  
                 u206_21 0DB1                   u310_21 0315                   u302_25 02BF  
                 u231_20 0F5A                   u223_20 0EB3                   u215_20 0E5D  
                 u207_20 0DBD                   u311_20 0325                   u303_20 02CA  
                 u231_21 0F59                   u223_21 0EB2                   u215_21 0E5C  
                 u207_21 0DBC                   u303_21 02C9                   u311_25 0320  
                 u240_20 0F9D                   u224_20 0EC2                   u216_20 0E6C  
                 u208_20 0DC3                   u312_20 0342                   u240_21 0F9C  
                 u224_21 0EC1                   u216_21 0E6B                   u208_21 0DC2  
                 u312_21 0341                   u232_25 0F65                   u312_25 033E  
                 u304_25 02CD                   u320_25 06AF                   u241_20 0FAF  
                 u233_20 0F70                   u209_20 0DC8                   u313_20 035C  
                 u305_20 02DE                   u321_20 06BD                   u241_21 0FAE  
                 u233_21 0F6F                   u209_21 0DC7                   u313_21 035B  
                 u305_21 02DD                   u321_21 06BC                   u225_25 0EC5  
                 u217_25 0E6F                   u313_25 0358                   u242_20 0FBE  
                 u234_20 0F75                   u226_20 0EE7                   u218_20 0E82  
                 u250_20 0989                   u314_20 037A                   u306_20 02E3  
                 u330_20 0395                   u234_21 0F74                   u226_21 0EE6  
                 u218_21 0E81                   u250_21 0988                   u314_21 0379  
                 u306_21 02E2                   u330_21 0394                   u226_23 0EE3  
                 u242_25 0FB9                   u322_25 06C2                   u243_20 0FCD  
                 u235_20 0F7F                   u219_20 0E86                   u251_20 098E  
                 u307_20 02F7                   u323_20 06CD                   u315_20 0656  
                 u331_20 03A8                   u243_21 0FCC                   u235_21 0F7E  
                 u227_21 0EFE                   u219_21 0E85                   u251_21 098D  
                 u307_21 02F6                   u323_21 06CC                   u315_21 0655  
                 u331_21 03A7                   u227_22 0EFF                   u227_23 0F04  
                 u227_24 0F05                   u227_25 0F0A                   u227_26 0F0B  
                 u244_20 0FD6                   u236_20 0F85                   u228_20 0F12  
                 u260_20 0A44                   u252_20 09B0                   u308_20 02FE  
                 u324_20 06D3                   u316_20 065A                   u340_20 04F6  
                 u332_20 03B3                   u244_21 0FD5                   u236_21 0F84  
                 u228_21 0F13                   u260_21 0A43                   u252_21 09AF  
                 u308_21 02FD                   u324_21 06D2                   u316_21 0659  
                 u340_21 04F5                   u332_21 03B2                   u228_22 0F18  
                 u228_23 0F19                   u245_20 0FDB                   u237_20 0F8A  
                 u229_20 0F30                   u253_20 09B6                   u309_20 0304  
                 u325_20 06D7                   u317_20 067A                   u341_20 04FC  
                 u333_20 03B9                   u245_21 0FDA                   u237_21 0F89  
                 u229_21 0F2F                   u253_21 09B5                   u309_21 0303  
                 u325_21 06D6                   u317_21 0679                   u341_21 04FB  
                 u333_21 03B8                   u261_25 0A47                   u246_20 0FE8  
                 u238_20 0F90                   u270_20 0ABD                   u262_20 0A60  
                 u254_20 09BB                   u326_20 06EC                   u350_20 0608  
                 u342_20 0524                   u334_20 03E1                   u246_21 0FE7  
                 u238_21 0F8F                   u270_21 0ABC                   u262_21 0A5F  
                 u254_21 09BA                   u350_21 0607                   u342_21 0523  
                 u334_21 03E0                   u262_25 0A5C                   u190_25 084E  
                 u326_25 06E7                   u318_25 068D                   u350_25 0604  
                 u247_20 0FED                   u239_20 0F97                   u271_20 0AC4  
                 u263_20 0A79                   u255_20 09D6                   u191_20 085B  
                 u327_20 06FC                   u319_20 069B                   u351_20 0611  
                 u343_20 0545                   u335_20 0402                   u247_21 0FEC  
                 u239_21 0F96                   u271_21 0AC3                   u263_21 0A78  
                 u255_21 09D5                   u191_21 085A                   u327_21 06FB  
                 u319_21 069A                   u351_21 0610                   u343_21 0544  
                 u335_21 0401                   u248_20 0FFE                   u272_20 0ACA  
                 u264_20 0A81                   u256_20 09F4                   u280_20 004A  
                 u328_20 0700                   u352_20 0619                   u344_20 0572  
                 u336_20 0461                   u248_21 0FFD                   u272_21 0AC9  
                 u264_21 0A80                   u256_21 09F3                   u280_21 0049  
                 u328_21 06FF                   u352_21 0618                   u344_21 0571  
                 u336_21 0460                   u273_20 0ADC                   u257_20 0A2E  
                 u249_20 0983                   u281_20 006B                   u193_20 08E7  
                 u353_20 0624                   u345_20 0578                   u337_20 0467  
                 u273_21 0ADB                   u257_21 0A2D                   u249_21 0982  
                 u281_21 006A                   u193_21 08E6                   u353_21 0623  
                 u345_21 0577                   u337_21 0466                   u265_25 0A85  
                 u274_20 0AEB                   u266_20 0A90                   u282_20 0071  
                 u194_20 090C                   u354_20 062D                   u346_20 05A0  
                 u338_20 048F                   u266_21 0A8F                   u282_21 0070  
                 u354_21 062C                   u346_21 059F                   u338_21 048E  
                 u274_25 0AE6                   u258_25 0A30                   u290_25 0157  
                 u194_25 0907                   u275_20 0B08                   u283_20 0076  
                 u195_20 0924                   u355_20 0635                   u347_20 05C1  
                 u339_20 04B0                   u275_21 0B07                   u291_21 017D  
                 u283_21 0075                   u195_21 0923                   u355_21 0634  
                 u347_21 05C0                   u339_21 04AF                   u291_22 0184  
                 u291_23 018B                   u275_25 0B04                   u267_25 0A93  
                 u259_25 0A39                   u276_20 0B25                   u268_20 0AA4  
                 u284_20 008D                   u196_20 092B                   u356_20 0640  
                 u348_20 05EF                   u276_21 0B24                   u268_21 0AA3  
                 u292_21 01AA                   u284_21 008C                   u196_21 092A  
                 u356_21 063F                   u348_21 05EE                   u292_22 01B1  
                 u292_23 01B8                   u276_25 0B21                   u277_20 0B3C  
                 u269_20 0AA9                   u189_20 0847                   u285_20 0092  
                 u349_20 05F3                   u277_21 0B3B                   u269_21 0AA8  
                 u189_21 0846                   u285_21 0091                   u349_21 05F2  
                 u293_25 01BA                   u197_25 092D                   u278_20 003F  
                 u198_20 0941                   u294_21 01E0                   u286_21 00E3  
                 u278_21 003E                   u198_21 0940                   u294_22 01E7  
                 u286_22 00EA                   u294_23 01EE                   u286_23 00F1  
                 u279_20 0045                   u199_20 0948                   u295_21 020D  
                 u287_21 00FF                   u279_21 0044                   u199_21 0947  
                 u295_22 0214                   u287_22 0106                   u295_23 021B  
                 u287_23 010D                   u296_21 023A                   u288_21 012B  
                 u296_22 0241                   u288_22 0132                   u296_23 0248  
                 u288_23 0139                   u297_20 0264                   u289_21 0147  
                 u289_22 014E                   u289_23 0155                   u297_25 025F  
                 u298_21 0270                   u298_22 0277                   u298_23 027E  
                 u299_20 028C                   u299_25 0287                   _SPBRGH 009A  
                 _SSPBUF 0013         __end_of___xxtofl 070A                ??___fladd 005C  
              ??___fldiv 0028                ??___flmul 0042                ??___fltol 00B9  
                 _indice 006F                   _servo1 00B8                   _servo2 00B7  
                 _servo3 00B6                   _servo4 00B5         __end_of_set_UART 081F  
              ??_set_ADC 00CA                ??_set_SPI 00CA                ??_set_PWM 00CA  
                 saved_w 007E             ___xxtofl@arg 007A             ___xxtofl@exp 0079  
           ___xxtofl@val 0070  __end_of__initialization 002A               ___fltol@f1 0068  
         __pcstackCOMMON 0070             __pidataBANK1 17D1            __end_of_setup 08D6  
     read_EEPROM@address 00CA           _OPTION_REGbits 0081         write_EEPROM@data 00CA  
                ??_setup 00CB               __pbssBANK0 006F               __pbssBANK1 00A0  
      __end_of__Umul8_16 0860               __pmaintext 0B4F               __pintentry 0004  
                _CCP1CON 0017                  _CCP2CON 001D                  _CCPR_S1 00A2  
                _CCPR_S2 00A0                  _CCPR_S3 00D9                  _CCPR_S4 00D7  
              ?___xxtofl 0070                ?_set_UART 0070                  ___fladd 0D78  
                ___fldiv 0972                  ___flmul 002E                  ___fltol 08D6  
                _flag_r1 00A6                  _flag_r2 00A4                  _flag_w1 00AA  
                _flag_w2 00A8                  __ptext1 0860                  __ptext2 0887  
                __ptext3 0807                  __ptext4 17ED                  __ptext5 07BC  
                __ptext6 081F                  __ptext7 17DE                  __ptext8 038F  
                __ptext9 070A                _T2CONbits 0012                  _mensaje 00CE  
             ??___xxtofl 0074                  _set_ADC 081F                  _set_SPI 17ED  
                _set_PWM 07BC                  _servo11 00B4                  _servo22 00B3  
                _servo33 00B2                  _servo44 00B1                  clrloop0 17CA  
   end_of_initialization 002A      write_EEPROM@address 00CB               ??_set_UART 00CA  
              _RCSTAbits 0018                _PORTBbits 0006              ___fladd@grs 0067  
          ___xxtofl@sign 0078                _TRISBbits 0086                _TRISCbits 0087  
            ___fldiv@grs 0034              ___fldiv@rem 002D              ___flmul@grs 0048  
            _CCP1CONbits 0017              _CCP2CONbits 001D                _TXSTAbits 0098  
            _BAUDCTLbits 0187      start_initialization 0013              __end_of_map 07BC  
            __end_of_isr 0650            ??_read_EEPROM 00CA               init_fetch0 07EA  
              __Umul8_16 0839              __pdataBANK1 00CE                ___fladd@a 0058  
              ___fladd@b 0054                ___fldiv@a 0020                ___fldiv@b 0024  
              ___flmul@a 003E                ___flmul@b 003A                ___latbits 0002  
          __pcstackBANK0 0020            __pcstackBANK1 00B9                 ?___fladd 0054  
               ?___fldiv 0020                 ?___flmul 003A                 ?___fltol 0068  
             ?__Umul8_16 0070      __end_of_read_EEPROM 17ED            ?_write_EEPROM 00CA  
               ?_set_ADC 0070                 ?_set_SPI 0070                 ?_set_PWM 0070  
      interrupt_function 0004                 _IOCBbits 0096                clear_ram0 17C9  
               _PIE1bits 008C                 _PIR1bits 000C                 _PIR2bits 000D  
              _valor_old 00AE               _ADCON0bits 001F               _ADCON1bits 009F  
         ??_write_EEPROM 00CB                 _WPUBbits 0095               _EECON1bits 018C  
            _read_EEPROM 17DE              ??__Umul8_16 0072            _flag_terminal 00AF  
               ___xxtofl 0650                 __ptext10 0650                 __ptext11 08D6  
               __ptext12 002E                 __ptext13 0839                 __ptext14 0972  
               __ptext15 0D78             _val_terminal 00B0                 _set_UART 0807  
             _INTCONbits 000B                 init_ram0 07EE                 intlevel1 0000  
   __end_of_write_EEPROM 0887               _OSCCONbits 008F   __Umul8_16@multiplicand 0070  
          ___fladd@signs 0064             ___fladd@aexp 0065             ___fladd@bexp 0066  
   __Umul8_16@multiplier 0078               _SSPCONbits 0014        __Umul8_16@product 0074  
