

Microchip MPLAB XC8 Assembler V2.36 build 20220127204148 
                                                                                               Wed Jun 01 21:00:56 2022

Microchip MPLAB XC8 C Compiler v2.36 (Free license) build 20220127204148 Og1 
     1                           	processor	16F887
     2                           	pagewidth 120
     3                           	opt	flic
     4                           	psect	idataBANK1,global,class=CODE,delta=2,noexec
     5                           	psect	cinit,global,class=CODE,merge=1,delta=2
     6                           	psect	bssBANK0,global,class=BANK0,space=1,delta=1,noexec
     7                           	psect	bssBANK1,global,class=BANK1,space=1,delta=1,noexec
     8                           	psect	dataBANK1,global,class=BANK1,space=1,delta=1,noexec
     9                           	psect	inittext,global,class=CODE,delta=2
    10                           	psect	clrtext,global,class=CODE,delta=2
    11                           	psect	cstackBANK3,global,class=BANK3,space=1,delta=1,noexec
    12                           	psect	cstackBANK1,global,class=BANK1,space=1,delta=1,noexec
    13                           	psect	cstackCOMMON,global,class=COMMON,space=1,delta=1,noexec
    14                           	psect	cstackBANK0,global,class=BANK0,space=1,delta=1,noexec
    15                           	psect	maintext,global,class=CODE,split=1,delta=2
    16                           	psect	text1,local,class=CODE,merge=1,delta=2
    17                           	psect	text2,local,class=CODE,merge=1,delta=2
    18                           	psect	text3,local,class=CODE,merge=1,delta=2
    19                           	psect	text4,local,class=CODE,merge=1,delta=2
    20                           	psect	text5,local,class=CODE,merge=1,delta=2
    21                           	psect	text6,local,class=CODE,merge=1,delta=2
    22                           	psect	text7,local,class=CODE,merge=1,delta=2
    23                           	psect	text8,local,class=CODE,merge=1,delta=2
    24                           	psect	intentry,global,class=CODE,delta=2
    25                           	psect	text9,local,class=CODE,merge=1,delta=2
    26                           	psect	text10,local,class=CODE,merge=1,delta=2,group=1
    27                           	psect	text11,local,class=CODE,merge=1,delta=2,group=1
    28                           	psect	text12,local,class=CODE,merge=1,delta=2,group=1
    29                           	psect	text13,local,class=CODE,merge=1,delta=2,group=1
    30                           	psect	text14,local,class=CODE,merge=1,delta=2,group=1
    31                           	psect	text15,local,class=CODE,merge=1,delta=2,group=1
    32                           	psect	idloc,global,abs,ovrld,class=IDLOC,space=5,delta=2,noexec
    33                           	psect	config,global,abs,ovrld,class=CONFIG,space=4,delta=2,noexec
    34                           	dabs	1,0x7E,2
    35  0000                     
    36                           ; Version 2.40
    37                           ; Generated 17/11/2021 GMT
    38                           ; 
    39                           ; Copyright © 2021, Microchip Technology Inc. and its subsidiaries ("Microchip")
    40                           ; All rights reserved.
    41                           ; 
    42                           ; This software is developed by Microchip Technology Inc. and its subsidiaries ("Microch
      +                          ip").
    43                           ; 
    44                           ; Redistribution and use in source and binary forms, with or without modification, are
    45                           ; permitted provided that the following conditions are met:
    46                           ; 
    47                           ;     1. Redistributions of source code must retain the above copyright notice, this lis
      +                          t of
    48                           ;        conditions and the following disclaimer.
    49                           ; 
    50                           ;     2. Redistributions in binary form must reproduce the above copyright notice, this 
      +                          list
    51                           ;        of conditions and the following disclaimer in the documentation and/or other
    52                           ;        materials provided with the distribution. Publication is not required when
    53                           ;        this file is used in an embedded application.
    54                           ; 
    55                           ;     3. Microchip's name may not be used to endorse or promote products derived from th
      +                          is
    56                           ;        software without specific prior written permission.
    57                           ; 
    58                           ; THIS SOFTWARE IS PROVIDED BY MICROCHIP "AS IS" AND ANY EXPRESS OR IMPLIED WARRANTIES,
    59                           ; INCLUDING, BUT NOT LIMITED TO, THE IMPLIED WARRANTIES OF MERCHANTABILITY AND FITNESS F
      +                          OR
    60                           ; PURPOSE ARE DISCLAIMED.  IN NO EVENT SHALL MICROCHIP BE LIABLE FOR ANY DIRECT, INDIREC
      +                          T,
    61                           ; INCIDENTAL, SPECIAL, EXEMPLARY, OR CONSEQUENTIAL DAMAGES (INCLUDING BUT NOT LIMITED TO
    62                           ; PROCUREMENT OF SUBSTITUTE GOODS OR SERVICES; LOSS OF USE, DATA OR PROFITS; OR BUSINESS
    63                           ; INTERRUPTION) HOWSOEVER CAUSED AND ON ANY THEORY OF LIABILITY, WHETHER IN CONTRACT, ST
      +                          RICT
    64                           ; LIABILITY, OR TORT (INCLUDING NEGLIGENCE OR OTHERWISE) ARISING IN ANY WAY OUT OF THE U
      +                          SE OF
    65                           ; THIS SOFTWARE, EVEN IF ADVISED OF THE POSSIBILITY OF SUCH DAMAGE.
    66                           ; 
    67                           ; 
    68                           ; Code-generator required, PIC16F887 Definitions
    69                           ; 
    70                           ; SFR Addresses
    71  0000                     	;# 
    72  0001                     	;# 
    73  0002                     	;# 
    74  0003                     	;# 
    75  0004                     	;# 
    76  0005                     	;# 
    77  0006                     	;# 
    78  0007                     	;# 
    79  0008                     	;# 
    80  0009                     	;# 
    81  000A                     	;# 
    82  000B                     	;# 
    83  000C                     	;# 
    84  000D                     	;# 
    85  000E                     	;# 
    86  000E                     	;# 
    87  000F                     	;# 
    88  0010                     	;# 
    89  0011                     	;# 
    90  0012                     	;# 
    91  0013                     	;# 
    92  0014                     	;# 
    93  0015                     	;# 
    94  0015                     	;# 
    95  0016                     	;# 
    96  0017                     	;# 
    97  0018                     	;# 
    98  0019                     	;# 
    99  001A                     	;# 
   100  001B                     	;# 
   101  001B                     	;# 
   102  001C                     	;# 
   103  001D                     	;# 
   104  001E                     	;# 
   105  001F                     	;# 
   106  0081                     	;# 
   107  0085                     	;# 
   108  0086                     	;# 
   109  0087                     	;# 
   110  0088                     	;# 
   111  0089                     	;# 
   112  008C                     	;# 
   113  008D                     	;# 
   114  008E                     	;# 
   115  008F                     	;# 
   116  0090                     	;# 
   117  0091                     	;# 
   118  0092                     	;# 
   119  0093                     	;# 
   120  0093                     	;# 
   121  0093                     	;# 
   122  0094                     	;# 
   123  0095                     	;# 
   124  0096                     	;# 
   125  0097                     	;# 
   126  0098                     	;# 
   127  0099                     	;# 
   128  009A                     	;# 
   129  009B                     	;# 
   130  009C                     	;# 
   131  009D                     	;# 
   132  009E                     	;# 
   133  009F                     	;# 
   134  0105                     	;# 
   135  0107                     	;# 
   136  0108                     	;# 
   137  0109                     	;# 
   138  010C                     	;# 
   139  010C                     	;# 
   140  010D                     	;# 
   141  010E                     	;# 
   142  010F                     	;# 
   143  0185                     	;# 
   144  0187                     	;# 
   145  0188                     	;# 
   146  0189                     	;# 
   147  018C                     	;# 
   148  018D                     	;# 
   149  0000                     	;# 
   150  0001                     	;# 
   151  0002                     	;# 
   152  0003                     	;# 
   153  0004                     	;# 
   154  0005                     	;# 
   155  0006                     	;# 
   156  0007                     	;# 
   157  0008                     	;# 
   158  0009                     	;# 
   159  000A                     	;# 
   160  000B                     	;# 
   161  000C                     	;# 
   162  000D                     	;# 
   163  000E                     	;# 
   164  000E                     	;# 
   165  000F                     	;# 
   166  0010                     	;# 
   167  0011                     	;# 
   168  0012                     	;# 
   169  0013                     	;# 
   170  0014                     	;# 
   171  0015                     	;# 
   172  0015                     	;# 
   173  0016                     	;# 
   174  0017                     	;# 
   175  0018                     	;# 
   176  0019                     	;# 
   177  001A                     	;# 
   178  001B                     	;# 
   179  001B                     	;# 
   180  001C                     	;# 
   181  001D                     	;# 
   182  001E                     	;# 
   183  001F                     	;# 
   184  0081                     	;# 
   185  0085                     	;# 
   186  0086                     	;# 
   187  0087                     	;# 
   188  0088                     	;# 
   189  0089                     	;# 
   190  008C                     	;# 
   191  008D                     	;# 
   192  008E                     	;# 
   193  008F                     	;# 
   194  0090                     	;# 
   195  0091                     	;# 
   196  0092                     	;# 
   197  0093                     	;# 
   198  0093                     	;# 
   199  0093                     	;# 
   200  0094                     	;# 
   201  0095                     	;# 
   202  0096                     	;# 
   203  0097                     	;# 
   204  0098                     	;# 
   205  0099                     	;# 
   206  009A                     	;# 
   207  009B                     	;# 
   208  009C                     	;# 
   209  009D                     	;# 
   210  009E                     	;# 
   211  009F                     	;# 
   212  0105                     	;# 
   213  0107                     	;# 
   214  0108                     	;# 
   215  0109                     	;# 
   216  010C                     	;# 
   217  010C                     	;# 
   218  010D                     	;# 
   219  010E                     	;# 
   220  010F                     	;# 
   221  0185                     	;# 
   222  0187                     	;# 
   223  0188                     	;# 
   224  0189                     	;# 
   225  018C                     	;# 
   226  018D                     	;# 
   227                           
   228                           	psect	idataBANK1
   229  179D                     __pidataBANK1:
   230                           
   231                           ;initializer for _mensaje
   232  179D  344D               	retlw	77
   233  179E  346F               	retlw	111
   234  179F  3476               	retlw	118
   235  17A0  3465               	retlw	101
   236  17A1  3472               	retlw	114
   237  17A2  3420               	retlw	32
   238  17A3  3420               	retlw	32
   239  17A4  340D               	retlw	13
   240  17A5  340A               	retlw	10
   241                           
   242                           ;initializer for _CCPR_S4
   243  17A6  348C               	retlw	140
   244  17A7  3400               	retlw	0
   245                           
   246                           ;initializer for _CCPR_S3
   247  17A8  340C               	retlw	12
   248  17A9  3400               	retlw	0
   249  0014                     _SSPCONbits	set	20
   250  0007                     _PORTC	set	7
   251  0018                     _RCSTAbits	set	24
   252  0012                     _T2CONbits	set	18
   253  001D                     _CCP2CON	set	29
   254  0017                     _CCP1CON	set	23
   255  0006                     _PORTB	set	6
   256  0005                     _PORTA	set	5
   257  000D                     _PIR2bits	set	13
   258  0019                     _TXREG	set	25
   259  0008                     _PORTD	set	8
   260  0013                     _SSPBUF	set	19
   261  0006                     _PORTBbits	set	6
   262  000B                     _INTCONbits	set	11
   263  0017                     _CCP1CONbits	set	23
   264  0015                     _CCPR1L	set	21
   265  001D                     _CCP2CONbits	set	29
   266  001B                     _CCPR2L	set	27
   267  001E                     _ADRESH	set	30
   268  001F                     _ADCON0bits	set	31
   269  001A                     _RCREG	set	26
   270  000C                     _PIR1bits	set	12
   271  0087                     _TRISC	set	135
   272  0099                     _SPBRG	set	153
   273  009A                     _SPBRGH	set	154
   274  0098                     _TXSTAbits	set	152
   275  0092                     _PR2	set	146
   276  0087                     _TRISCbits	set	135
   277  009F                     _ADCON1bits	set	159
   278  0096                     _IOCBbits	set	150
   279  008C                     _PIE1bits	set	140
   280  0095                     _WPUBbits	set	149
   281  0081                     _OPTION_REGbits	set	129
   282  0086                     _TRISBbits	set	134
   283  008F                     _OSCCONbits	set	143
   284  0088                     _TRISD	set	136
   285  0085                     _TRISA	set	133
   286  0094                     _SSPSTATbits	set	148
   287  010C                     _EEDAT	set	268
   288  010D                     _EEADR	set	269
   289  0187                     _BAUDCTLbits	set	391
   290  0189                     _ANSELH	set	393
   291  0188                     _ANSEL	set	392
   292  018D                     _EECON2	set	397
   293  018C                     _EECON1bits	set	396
   294                           
   295                           	psect	cinit
   296  0013                     start_initialization:	
   297                           ; #config settings
   298                           
   299  0013                     __initialization:
   300                           
   301                           ; Initialize objects allocated to BANK1
   302  0013  1383               	bcf	3,7	;select IRP bank0
   303  0014  30DF               	movlw	low (__pdataBANK1+13)
   304  0015  00FD               	movwf	btemp+-1
   305  0016  3017               	movlw	high __pidataBANK1
   306  0017  00FE               	movwf	btemp
   307  0018  309D               	movlw	low __pidataBANK1
   308  0019  00FF               	movwf	btemp+1
   309  001A  30D2               	movlw	low __pdataBANK1
   310  001B  0084               	movwf	4
   311  001C  120A  118A  27EE  120A  118A  	fcall	init_ram0
   312                           
   313                           ; Clear objects allocated to BANK1
   314  0021  30A0               	movlw	low __pbssBANK1
   315  0022  0084               	movwf	4
   316  0023  30C1               	movlw	low (__pbssBANK1+33)
   317  0024  160A  118A  2795  120A  118A  	fcall	clear_ram0
   318                           
   319                           ; Clear objects allocated to BANK0
   320  0029  01EF               	clrf	__pbssBANK0& (0+127)
   321  002A                     end_of_initialization:	
   322                           ;End of C runtime variable initialization code
   323                           
   324  002A                     __end_of__initialization:
   325  002A  0183               	clrf	3
   326  002B  120A  158A  2B17   	ljmp	_main	;jump to C main() function
   327                           
   328                           	psect	bssBANK0
   329  006F                     __pbssBANK0:
   330  006F                     _indice:
   331  006F                     	ds	1
   332                           
   333                           	psect	bssBANK1
   334  00A0                     __pbssBANK1:
   335  00A0                     _old_CCPR_S4:
   336  00A0                     	ds	2
   337  00A2                     _old_CCPR_S3:
   338  00A2                     	ds	2
   339  00A4                     _old_CCPR_S2:
   340  00A4                     	ds	2
   341  00A6                     _old_CCPR_S1:
   342  00A6                     	ds	2
   343  00A8                     _CCPR_S2:
   344  00A8                     	ds	2
   345  00AA                     _CCPR_S1:
   346  00AA                     	ds	2
   347  00AC                     _flag_r2:
   348  00AC                     	ds	2
   349  00AE                     _flag_r1:
   350  00AE                     	ds	2
   351  00B0                     _flag_w2:
   352  00B0                     	ds	2
   353  00B2                     _flag_w1:
   354  00B2                     	ds	2
   355  00B4                     _modo:
   356  00B4                     	ds	2
   357  00B6                     _flag_terminal:
   358  00B6                     	ds	1
   359  00B7                     _val_terminal:
   360  00B7                     	ds	1
   361  00B8                     _valor_old:
   362  00B8                     	ds	1
   363  00B9                     _servo44:
   364  00B9                     	ds	1
   365  00BA                     _servo33:
   366  00BA                     	ds	1
   367  00BB                     _servo22:
   368  00BB                     	ds	1
   369  00BC                     _servo11:
   370  00BC                     	ds	1
   371  00BD                     _servo4:
   372  00BD                     	ds	1
   373  00BE                     _servo3:
   374  00BE                     	ds	1
   375  00BF                     _servo2:
   376  00BF                     	ds	1
   377  00C0                     _servo1:
   378  00C0                     	ds	1
   379                           
   380                           	psect	dataBANK1
   381  00D2                     __pdataBANK1:
   382  00D2                     _mensaje:
   383  00D2                     	ds	9
   384  00DB                     _CCPR_S4:
   385  00DB                     	ds	2
   386  00DD                     _CCPR_S3:
   387  00DD                     	ds	2
   388                           
   389                           	psect	inittext
   390  07EA                     init_fetch0:	
   391                           ;	Called with low address in FSR and high address in W
   392                           
   393  07EA  087E               	movf	btemp,w
   394  07EB  008A               	movwf	10
   395  07EC  087F               	movf	btemp+1,w
   396  07ED  0082               	movwf	2
   397  07EE                     init_ram0:	
   398                           ;Called with:
   399                           ;	high address of idata address in btemp 
   400                           ;	low address of idata address in btemp+1 
   401                           ;	low address of data in FSR
   402                           ;	high address + 1 of data in btemp-1
   403                           
   404  07EE  120A  118A  27EA  120A  118A  	fcall	init_fetch0
   405  07F3  0080               	movwf	0
   406  07F4  0A84               	incf	4,f
   407  07F5  0804               	movf	4,w
   408  07F6  067D               	xorwf	btemp+-1,w
   409  07F7  1903               	btfsc	3,2
   410  07F8  3400               	retlw	0
   411  07F9  0AFF               	incf	btemp+1,f
   412  07FA  1903               	btfsc	3,2
   413  07FB  0AFE               	incf	btemp,f
   414  07FC  2FEE               	goto	init_ram0
   415                           
   416                           	psect	clrtext
   417  1795                     clear_ram0:	
   418                           ;	Called with FSR containing the base address, and
   419                           ;	W with the last address+1
   420                           
   421  1795  0064               	clrwdt	;clear the watchdog before getting into this loop
   422  1796                     clrloop0:
   423  1796  0180               	clrf	0	;clear RAM location pointed to by FSR
   424  1797  0A84               	incf	4,f	;increment pointer
   425  1798  0604               	xorwf	4,w	;XOR with final address
   426  1799  1903               	btfsc	3,2	;have we reached the end yet?
   427  179A  3400               	retlw	0	;all done for this memory range, return
   428  179B  0604               	xorwf	4,w	;XOR again to restore value
   429  179C  2F96               	goto	clrloop0	;do the next byte
   430                           
   431                           	psect	cstackBANK3
   432  0190                     __pcstackBANK3:
   433  0190                     ?_write_EEPROM:
   434  0190                     ??_set_ADC:	
   435                           ; 1 bytes @ 0x0
   436                           
   437  0190                     read_EEPROM@address:	
   438                           ; 1 bytes @ 0x0
   439                           
   440  0190                     write_EEPROM@data:	
   441                           ; 1 bytes @ 0x0
   442                           
   443                           
   444                           ; 1 bytes @ 0x0
   445  0190                     	ds	1
   446  0191                     write_EEPROM@address:
   447                           
   448                           ; 1 bytes @ 0x1
   449  0191                     	ds	1
   450  0192                     ??_main:
   451                           
   452                           ; 1 bytes @ 0x2
   453  0192                     	ds	2
   454                           
   455                           	psect	cstackBANK1
   456  00C1                     __pcstackBANK1:
   457  00C1                     ??___fltol:
   458                           
   459                           ; 1 bytes @ 0x0
   460  00C1                     	ds	5
   461  00C6                     ?_map:
   462  00C6                     map@x0:	
   463                           ; 2 bytes @ 0x5
   464                           
   465                           
   466                           ; 1 bytes @ 0x5
   467  00C6                     	ds	1
   468  00C7                     map@x1:
   469                           
   470                           ; 1 bytes @ 0x6
   471  00C7                     	ds	1
   472  00C8                     map@y0:
   473                           
   474                           ; 2 bytes @ 0x7
   475  00C8                     	ds	2
   476  00CA                     map@y1:
   477                           
   478                           ; 2 bytes @ 0x9
   479  00CA                     	ds	2
   480  00CC                     ??_isr:
   481                           
   482                           ; 1 bytes @ 0xB
   483  00CC                     	ds	6
   484  00D2                     ??_setup:
   485  00D2                     ??_write_EEPROM:	
   486                           ; 1 bytes @ 0x11
   487                           
   488  00D2                     ??_read_EEPROM:	
   489                           ; 1 bytes @ 0x11
   490                           
   491  00D2                     ??_set_PWM:	
   492                           ; 1 bytes @ 0x11
   493                           
   494  00D2                     ??_set_SPI:	
   495                           ; 1 bytes @ 0x11
   496                           
   497  00D2                     ??_set_UART:	
   498                           ; 1 bytes @ 0x11
   499                           
   500                           
   501                           	psect	cstackCOMMON
   502  0070                     __pcstackCOMMON:	
   503                           ; 1 bytes @ 0x11
   504                           
   505  0070                     ?_setup:
   506  0070                     ?_read_EEPROM:	
   507                           ; 1 bytes @ 0x0
   508                           
   509  0070                     ?_set_ADC:	
   510                           ; 1 bytes @ 0x0
   511                           
   512  0070                     ?_set_PWM:	
   513                           ; 1 bytes @ 0x0
   514                           
   515  0070                     ?_set_SPI:	
   516                           ; 1 bytes @ 0x0
   517                           
   518  0070                     ?_set_UART:	
   519                           ; 1 bytes @ 0x0
   520                           
   521  0070                     ?_isr:	
   522                           ; 1 bytes @ 0x0
   523                           
   524  0070                     ?_main:	
   525                           ; 1 bytes @ 0x0
   526                           
   527  0070                     ?__Umul8_16:	
   528                           ; 1 bytes @ 0x0
   529                           
   530  0070                     ?___xxtofl:	
   531                           ; 2 bytes @ 0x0
   532                           
   533  0070                     __Umul8_16@multiplicand:	
   534                           ; 4 bytes @ 0x0
   535                           
   536  0070                     ___xxtofl@val:	
   537                           ; 1 bytes @ 0x0
   538                           
   539                           
   540                           ; 4 bytes @ 0x0
   541  0070                     	ds	2
   542  0072                     ??__Umul8_16:
   543                           
   544                           ; 1 bytes @ 0x2
   545  0072                     	ds	2
   546  0074                     ??___xxtofl:
   547  0074                     __Umul8_16@product:	
   548                           ; 1 bytes @ 0x4
   549                           
   550                           
   551                           ; 2 bytes @ 0x4
   552  0074                     	ds	2
   553  0076                     __Umul8_16@word_mpld:
   554                           
   555                           ; 2 bytes @ 0x6
   556  0076                     	ds	2
   557  0078                     __Umul8_16@multiplier:
   558  0078                     ___xxtofl@sign:	
   559                           ; 1 bytes @ 0x8
   560                           
   561                           
   562                           ; 1 bytes @ 0x8
   563  0078                     	ds	1
   564  0079                     ___xxtofl@exp:
   565                           
   566                           ; 1 bytes @ 0x9
   567  0079                     	ds	1
   568  007A                     ___xxtofl@arg:
   569                           
   570                           ; 4 bytes @ 0xA
   571  007A                     	ds	4
   572  007E                     ??_map:
   573                           
   574                           	psect	cstackBANK0
   575  0020                     __pcstackBANK0:	
   576                           ; 1 bytes @ 0xE
   577                           
   578  0020                     ?___fldiv:
   579  0020                     ___fldiv@a:	
   580                           ; 4 bytes @ 0x0
   581                           
   582                           
   583                           ; 4 bytes @ 0x0
   584  0020                     	ds	4
   585  0024                     ___fldiv@b:
   586                           
   587                           ; 4 bytes @ 0x4
   588  0024                     	ds	4
   589  0028                     ??___fldiv:
   590                           
   591                           ; 1 bytes @ 0x8
   592  0028                     	ds	5
   593  002D                     ___fldiv@rem:
   594                           
   595                           ; 4 bytes @ 0xD
   596  002D                     	ds	4
   597  0031                     ___fldiv@sign:
   598                           
   599                           ; 1 bytes @ 0x11
   600  0031                     	ds	1
   601  0032                     ___fldiv@new_exp:
   602                           
   603                           ; 2 bytes @ 0x12
   604  0032                     	ds	2
   605  0034                     ___fldiv@grs:
   606                           
   607                           ; 4 bytes @ 0x14
   608  0034                     	ds	4
   609  0038                     ___fldiv@bexp:
   610                           
   611                           ; 1 bytes @ 0x18
   612  0038                     	ds	1
   613  0039                     ___fldiv@aexp:
   614                           
   615                           ; 1 bytes @ 0x19
   616  0039                     	ds	1
   617  003A                     ?___flmul:
   618  003A                     ___flmul@b:	
   619                           ; 4 bytes @ 0x1A
   620                           
   621                           
   622                           ; 4 bytes @ 0x1A
   623  003A                     	ds	4
   624  003E                     ___flmul@a:
   625                           
   626                           ; 4 bytes @ 0x1E
   627  003E                     	ds	4
   628  0042                     ??___flmul:
   629                           
   630                           ; 1 bytes @ 0x22
   631  0042                     	ds	5
   632  0047                     ___flmul@sign:
   633                           
   634                           ; 1 bytes @ 0x27
   635  0047                     	ds	1
   636  0048                     ___flmul@grs:
   637                           
   638                           ; 4 bytes @ 0x28
   639  0048                     	ds	4
   640  004C                     ___flmul@aexp:
   641                           
   642                           ; 1 bytes @ 0x2C
   643  004C                     	ds	1
   644  004D                     ___flmul@bexp:
   645                           
   646                           ; 1 bytes @ 0x2D
   647  004D                     	ds	1
   648  004E                     ___flmul@prod:
   649                           
   650                           ; 4 bytes @ 0x2E
   651  004E                     	ds	4
   652  0052                     ___flmul@temp:
   653                           
   654                           ; 2 bytes @ 0x32
   655  0052                     	ds	2
   656  0054                     ?___fladd:
   657  0054                     ___fladd@b:	
   658                           ; 4 bytes @ 0x34
   659                           
   660                           
   661                           ; 4 bytes @ 0x34
   662  0054                     	ds	4
   663  0058                     ___fladd@a:
   664                           
   665                           ; 4 bytes @ 0x38
   666  0058                     	ds	4
   667  005C                     ??___fladd:
   668                           
   669                           ; 1 bytes @ 0x3C
   670  005C                     	ds	8
   671  0064                     ___fladd@signs:
   672                           
   673                           ; 1 bytes @ 0x44
   674  0064                     	ds	1
   675  0065                     ___fladd@aexp:
   676                           
   677                           ; 1 bytes @ 0x45
   678  0065                     	ds	1
   679  0066                     ___fladd@bexp:
   680                           
   681                           ; 1 bytes @ 0x46
   682  0066                     	ds	1
   683  0067                     ___fladd@grs:
   684                           
   685                           ; 1 bytes @ 0x47
   686  0067                     	ds	1
   687  0068                     ?___fltol:
   688  0068                     ___fltol@f1:	
   689                           ; 4 bytes @ 0x48
   690                           
   691                           
   692                           ; 4 bytes @ 0x48
   693  0068                     	ds	4
   694  006C                     ___fltol@sign1:
   695                           
   696                           ; 1 bytes @ 0x4C
   697  006C                     	ds	1
   698  006D                     ___fltol@exp1:
   699                           
   700                           ; 1 bytes @ 0x4D
   701  006D                     	ds	1
   702  006E                     map@x:
   703                           
   704                           ; 1 bytes @ 0x4E
   705  006E                     	ds	1
   706                           
   707                           	psect	maintext
   708  0B17                     __pmaintext:	
   709 ;;
   710 ;;Main: autosize = 0, tempsize = 2, incstack = 0, save=0
   711 ;;
   712 ;; *************** function _main *****************
   713 ;; Defined at:
   714 ;;		line 220 in file "main.c"
   715 ;; Parameters:    Size  Location     Type
   716 ;;		None
   717 ;; Auto vars:     Size  Location     Type
   718 ;;		None
   719 ;; Return value:  Size  Location     Type
   720 ;;                  1    wreg      void 
   721 ;; Registers used:
   722 ;;		wreg, status,2, status,0, pclath, cstack
   723 ;; Tracked objects:
   724 ;;		On entry : B00/0
   725 ;;		On exit  : 0/0
   726 ;;		Unchanged: 0/0
   727 ;; Data sizes:     COMMON   BANK0   BANK1   BANK3   BANK2
   728 ;;      Params:         0       0       0       0       0
   729 ;;      Locals:         0       0       0       0       0
   730 ;;      Temps:          0       0       0       2       0
   731 ;;      Totals:         0       0       0       2       0
   732 ;;Total ram usage:        2 bytes
   733 ;; Hardware stack levels required when called: 6
   734 ;; This function calls:
   735 ;;		_read_EEPROM
   736 ;;		_setup
   737 ;;		_write_EEPROM
   738 ;; This function is called by:
   739 ;;		Startup code after reset
   740 ;; This function uses a non-reentrant model
   741 ;;
   742                           
   743  0B17                     _main:	
   744                           ;psect for function _main
   745                           
   746  0B17                     l2861:	
   747                           ;incstack = 0
   748                           ; Regs used in _main: [wreg+status,2+status,0+pclath+cstack]
   749                           
   750                           
   751                           ;main.c: 221:     setup();
   752  0B17  120A  158A  2050  120A  158A  	fcall	_setup
   753  0B1C                     l2863:
   754                           
   755                           ;main.c: 225:         SSPBUF = (uint8_t) CCPR_S3;
   756  0B1C  1683               	bsf	3,5	;RP0=1, select bank1
   757  0B1D  1303               	bcf	3,6	;RP1=0, select bank1
   758  0B1E  085D               	movf	_CCPR_S3^(0+128),w
   759  0B1F  1283               	bcf	3,5	;RP0=0, select bank0
   760  0B20  1303               	bcf	3,6	;RP1=0, select bank0
   761  0B21  0093               	movwf	19	;volatile
   762  0B22                     l213:	
   763                           ;main.c: 226:         while(!SSPSTATbits.BF);
   764                           
   765  0B22  1683               	bsf	3,5	;RP0=1, select bank1
   766  0B23  1303               	bcf	3,6	;RP1=0, select bank1
   767  0B24  1C14               	btfss	20,0	;volatile
   768  0B25  2B27               	goto	u3781
   769  0B26  2B28               	goto	u3780
   770  0B27                     u3781:
   771  0B27  2B22               	goto	l213
   772  0B28                     u3780:
   773  0B28                     l2865:
   774                           
   775                           ;main.c: 227:         _delay((unsigned long)((2)*(500000/4000.0)));
   776  0B28  3052               	movlw	82
   777  0B29  1683               	bsf	3,5	;RP0=1, select bank3
   778  0B2A  1703               	bsf	3,6	;RP1=1, select bank3
   779  0B2B  0092               	movwf	??_main^(0+384)
   780  0B2C                     u3987:
   781  0B2C  0B92               	decfsz	??_main^(0+384),f
   782  0B2D  2B2C               	goto	u3987
   783  0B2E  0000               	nop
   784                           
   785                           ;main.c: 228:         SSPBUF = (uint8_t) CCPR_S4;
   786  0B2F  1683               	bsf	3,5	;RP0=1, select bank1
   787  0B30  1303               	bcf	3,6	;RP1=0, select bank1
   788  0B31  085B               	movf	_CCPR_S4^(0+128),w
   789  0B32  1283               	bcf	3,5	;RP0=0, select bank0
   790  0B33  1303               	bcf	3,6	;RP1=0, select bank0
   791  0B34  0093               	movwf	19	;volatile
   792  0B35                     l216:	
   793                           ;main.c: 229:         while(!SSPSTATbits.BF);
   794                           
   795  0B35  1683               	bsf	3,5	;RP0=1, select bank1
   796  0B36  1303               	bcf	3,6	;RP1=0, select bank1
   797  0B37  1C14               	btfss	20,0	;volatile
   798  0B38  2B3A               	goto	u3791
   799  0B39  2B3B               	goto	u3790
   800  0B3A                     u3791:
   801  0B3A  2B35               	goto	l216
   802  0B3B                     u3790:
   803  0B3B                     l2867:
   804                           
   805                           ;main.c: 231:         if(modo == 0){
   806  0B3B  0834               	movf	_modo^(0+128),w
   807  0B3C  0435               	iorwf	(_modo+1)^(0+128),w
   808  0B3D  1D03               	btfss	3,2
   809  0B3E  2B40               	goto	u3801
   810  0B3F  2B41               	goto	u3800
   811  0B40                     u3801:
   812  0B40  2BC9               	goto	l2883
   813  0B41                     u3800:
   814  0B41                     l2869:
   815                           
   816                           ;main.c: 232:             PORTD = 1;
   817  0B41  3001               	movlw	1
   818  0B42  1283               	bcf	3,5	;RP0=0, select bank0
   819  0B43  1303               	bcf	3,6	;RP1=0, select bank0
   820  0B44  0088               	movwf	8	;volatile
   821  0B45                     l2871:
   822                           
   823                           ;main.c: 234:             if(flag_w1 == 1){
   824  0B45  1683               	bsf	3,5	;RP0=1, select bank1
   825  0B46  1303               	bcf	3,6	;RP1=0, select bank1
   826  0B47  0332               	decf	_flag_w1^(0+128),w
   827  0B48  0433               	iorwf	(_flag_w1+1)^(0+128),w
   828  0B49  1D03               	btfss	3,2
   829  0B4A  2B4C               	goto	u3811
   830  0B4B  2B4D               	goto	u3810
   831  0B4C                     u3811:
   832  0B4C  2B88               	goto	l2877
   833  0B4D                     u3810:
   834  0B4D                     l2873:
   835                           
   836                           ;main.c: 235:                 write_EEPROM(1, servo1);
   837  0B4D  0840               	movf	_servo1^(0+128),w
   838  0B4E  1683               	bsf	3,5	;RP0=1, select bank3
   839  0B4F  1703               	bsf	3,6	;RP1=1, select bank3
   840  0B50  0092               	movwf	??_main^(0+384)
   841  0B51  0812               	movf	??_main^(0+384),w
   842  0B52  0090               	movwf	write_EEPROM@data^(0+384)
   843  0B53  3001               	movlw	1
   844  0B54  120A  158A  2029  120A  158A  	fcall	_write_EEPROM
   845                           
   846                           ;main.c: 236:                 write_EEPROM(2, servo2);
   847  0B59  1683               	bsf	3,5	;RP0=1, select bank1
   848  0B5A  1303               	bcf	3,6	;RP1=0, select bank1
   849  0B5B  083F               	movf	_servo2^(0+128),w
   850  0B5C  1683               	bsf	3,5	;RP0=1, select bank3
   851  0B5D  1703               	bsf	3,6	;RP1=1, select bank3
   852  0B5E  0092               	movwf	??_main^(0+384)
   853  0B5F  0812               	movf	??_main^(0+384),w
   854  0B60  0090               	movwf	write_EEPROM@data^(0+384)
   855  0B61  3002               	movlw	2
   856  0B62  120A  158A  2029  120A  158A  	fcall	_write_EEPROM
   857                           
   858                           ;main.c: 237:                 write_EEPROM(3, servo3);
   859  0B67  1683               	bsf	3,5	;RP0=1, select bank1
   860  0B68  1303               	bcf	3,6	;RP1=0, select bank1
   861  0B69  083E               	movf	_servo3^(0+128),w
   862  0B6A  1683               	bsf	3,5	;RP0=1, select bank3
   863  0B6B  1703               	bsf	3,6	;RP1=1, select bank3
   864  0B6C  0092               	movwf	??_main^(0+384)
   865  0B6D  0812               	movf	??_main^(0+384),w
   866  0B6E  0090               	movwf	write_EEPROM@data^(0+384)
   867  0B6F  3003               	movlw	3
   868  0B70  120A  158A  2029  120A  158A  	fcall	_write_EEPROM
   869                           
   870                           ;main.c: 238:                 write_EEPROM(4, servo4);
   871  0B75  1683               	bsf	3,5	;RP0=1, select bank1
   872  0B76  1303               	bcf	3,6	;RP1=0, select bank1
   873  0B77  083D               	movf	_servo4^(0+128),w
   874  0B78  1683               	bsf	3,5	;RP0=1, select bank3
   875  0B79  1703               	bsf	3,6	;RP1=1, select bank3
   876  0B7A  0092               	movwf	??_main^(0+384)
   877  0B7B  0812               	movf	??_main^(0+384),w
   878  0B7C  0090               	movwf	write_EEPROM@data^(0+384)
   879  0B7D  3004               	movlw	4
   880  0B7E  120A  158A  2029  120A  158A  	fcall	_write_EEPROM
   881  0B83                     l2875:
   882                           
   883                           ;main.c: 240:                 flag_w1 = 0;
   884  0B83  1683               	bsf	3,5	;RP0=1, select bank1
   885  0B84  1303               	bcf	3,6	;RP1=0, select bank1
   886  0B85  01B2               	clrf	_flag_w1^(0+128)
   887  0B86  01B3               	clrf	(_flag_w1+1)^(0+128)
   888                           
   889                           ;main.c: 241:             }
   890  0B87  2D1C               	goto	l2945
   891  0B88                     l2877:
   892  0B88  0330               	decf	_flag_w2^(0+128),w
   893  0B89  0431               	iorwf	(_flag_w2+1)^(0+128),w
   894  0B8A  1D03               	btfss	3,2
   895  0B8B  2B8D               	goto	u3821
   896  0B8C  2B8E               	goto	u3820
   897  0B8D                     u3821:
   898  0B8D  2D1C               	goto	l2945
   899  0B8E                     u3820:
   900  0B8E                     l2879:
   901                           
   902                           ;main.c: 243:                 write_EEPROM(5, servo1);
   903  0B8E  0840               	movf	_servo1^(0+128),w
   904  0B8F  1683               	bsf	3,5	;RP0=1, select bank3
   905  0B90  1703               	bsf	3,6	;RP1=1, select bank3
   906  0B91  0092               	movwf	??_main^(0+384)
   907  0B92  0812               	movf	??_main^(0+384),w
   908  0B93  0090               	movwf	write_EEPROM@data^(0+384)
   909  0B94  3005               	movlw	5
   910  0B95  120A  158A  2029  120A  158A  	fcall	_write_EEPROM
   911                           
   912                           ;main.c: 244:                 write_EEPROM(6, servo2);
   913  0B9A  1683               	bsf	3,5	;RP0=1, select bank1
   914  0B9B  1303               	bcf	3,6	;RP1=0, select bank1
   915  0B9C  083F               	movf	_servo2^(0+128),w
   916  0B9D  1683               	bsf	3,5	;RP0=1, select bank3
   917  0B9E  1703               	bsf	3,6	;RP1=1, select bank3
   918  0B9F  0092               	movwf	??_main^(0+384)
   919  0BA0  0812               	movf	??_main^(0+384),w
   920  0BA1  0090               	movwf	write_EEPROM@data^(0+384)
   921  0BA2  3006               	movlw	6
   922  0BA3  120A  158A  2029  120A  158A  	fcall	_write_EEPROM
   923                           
   924                           ;main.c: 245:                 write_EEPROM(7, servo3);
   925  0BA8  1683               	bsf	3,5	;RP0=1, select bank1
   926  0BA9  1303               	bcf	3,6	;RP1=0, select bank1
   927  0BAA  083E               	movf	_servo3^(0+128),w
   928  0BAB  1683               	bsf	3,5	;RP0=1, select bank3
   929  0BAC  1703               	bsf	3,6	;RP1=1, select bank3
   930  0BAD  0092               	movwf	??_main^(0+384)
   931  0BAE  0812               	movf	??_main^(0+384),w
   932  0BAF  0090               	movwf	write_EEPROM@data^(0+384)
   933  0BB0  3007               	movlw	7
   934  0BB1  120A  158A  2029  120A  158A  	fcall	_write_EEPROM
   935                           
   936                           ;main.c: 246:                 write_EEPROM(8, servo4);
   937  0BB6  1683               	bsf	3,5	;RP0=1, select bank1
   938  0BB7  1303               	bcf	3,6	;RP1=0, select bank1
   939  0BB8  083D               	movf	_servo4^(0+128),w
   940  0BB9  1683               	bsf	3,5	;RP0=1, select bank3
   941  0BBA  1703               	bsf	3,6	;RP1=1, select bank3
   942  0BBB  0092               	movwf	??_main^(0+384)
   943  0BBC  0812               	movf	??_main^(0+384),w
   944  0BBD  0090               	movwf	write_EEPROM@data^(0+384)
   945  0BBE  3008               	movlw	8
   946  0BBF  120A  158A  2029  120A  158A  	fcall	_write_EEPROM
   947  0BC4                     l2881:
   948                           
   949                           ;main.c: 248:                 flag_w2 = 0;
   950  0BC4  1683               	bsf	3,5	;RP0=1, select bank1
   951  0BC5  1303               	bcf	3,6	;RP1=0, select bank1
   952  0BC6  01B0               	clrf	_flag_w2^(0+128)
   953  0BC7  01B1               	clrf	(_flag_w2+1)^(0+128)
   954  0BC8  2D1C               	goto	l2945
   955  0BC9                     l2883:
   956  0BC9  0334               	decf	_modo^(0+128),w
   957  0BCA  0435               	iorwf	(_modo+1)^(0+128),w
   958  0BCB  1D03               	btfss	3,2
   959  0BCC  2BCE               	goto	u3831
   960  0BCD  2BCF               	goto	u3830
   961  0BCE                     u3831:
   962  0BCE  2CAC               	goto	l2919
   963  0BCF                     u3830:
   964  0BCF                     l2885:
   965                           
   966                           ;main.c: 253:             PORTD = 2;
   967  0BCF  3002               	movlw	2
   968  0BD0  1283               	bcf	3,5	;RP0=0, select bank0
   969  0BD1  1303               	bcf	3,6	;RP1=0, select bank0
   970  0BD2  0088               	movwf	8	;volatile
   971  0BD3                     l2887:
   972                           
   973                           ;main.c: 255:             if(flag_r1 == 1){
   974  0BD3  1683               	bsf	3,5	;RP0=1, select bank1
   975  0BD4  1303               	bcf	3,6	;RP1=0, select bank1
   976  0BD5  032E               	decf	_flag_r1^(0+128),w
   977  0BD6  042F               	iorwf	(_flag_r1+1)^(0+128),w
   978  0BD7  1D03               	btfss	3,2
   979  0BD8  2BDA               	goto	u3841
   980  0BD9  2BDB               	goto	u3840
   981  0BDA                     u3841:
   982  0BDA  2C40               	goto	l2903
   983  0BDB                     u3840:
   984  0BDB                     l2889:
   985                           
   986                           ;main.c: 256:                 servo1 = read_EEPROM(1);
   987  0BDB  3001               	movlw	1
   988  0BDC  160A  118A  27AA  120A  158A  	fcall	_read_EEPROM
   989  0BE1  1683               	bsf	3,5	;RP0=1, select bank3
   990  0BE2  1703               	bsf	3,6	;RP1=1, select bank3
   991  0BE3  0092               	movwf	??_main^(0+384)
   992  0BE4  0812               	movf	??_main^(0+384),w
   993  0BE5  1683               	bsf	3,5	;RP0=1, select bank1
   994  0BE6  1303               	bcf	3,6	;RP1=0, select bank1
   995  0BE7  00C0               	movwf	_servo1^(0+128)
   996  0BE8                     l2891:
   997                           
   998                           ;main.c: 257:                 _delay((unsigned long)((250)*(500000/4000.0)));
   999  0BE8  3029               	movlw	41
  1000  0BE9  1683               	bsf	3,5	;RP0=1, select bank3
  1001  0BEA  1703               	bsf	3,6	;RP1=1, select bank3
  1002  0BEB  0093               	movwf	(??_main^(0+384)+1)
  1003  0BEC  3093               	movlw	147
  1004  0BED  0092               	movwf	??_main^(0+384)
  1005  0BEE                     u3997:
  1006  0BEE  0B92               	decfsz	??_main^(0+384),f
  1007  0BEF  2BEE               	goto	u3997
  1008  0BF0  0B93               	decfsz	(??_main^(0+384)+1),f
  1009  0BF1  2BEE               	goto	u3997
  1010  0BF2  2BF3               	nop2
  1011  0BF3                     l2893:
  1012                           
  1013                           ;main.c: 258:                 servo2 = read_EEPROM(2);
  1014  0BF3  3002               	movlw	2
  1015  0BF4  160A  118A  27AA  120A  158A  	fcall	_read_EEPROM
  1016  0BF9  1683               	bsf	3,5	;RP0=1, select bank3
  1017  0BFA  1703               	bsf	3,6	;RP1=1, select bank3
  1018  0BFB  0092               	movwf	??_main^(0+384)
  1019  0BFC  0812               	movf	??_main^(0+384),w
  1020  0BFD  1683               	bsf	3,5	;RP0=1, select bank1
  1021  0BFE  1303               	bcf	3,6	;RP1=0, select bank1
  1022  0BFF  00BF               	movwf	_servo2^(0+128)
  1023                           
  1024                           ;main.c: 259:                 _delay((unsigned long)((250)*(500000/4000.0)));
  1025  0C00  3029               	movlw	41
  1026  0C01  1683               	bsf	3,5	;RP0=1, select bank3
  1027  0C02  1703               	bsf	3,6	;RP1=1, select bank3
  1028  0C03  0093               	movwf	(??_main^(0+384)+1)
  1029  0C04  3093               	movlw	147
  1030  0C05  0092               	movwf	??_main^(0+384)
  1031  0C06                     u4007:
  1032  0C06  0B92               	decfsz	??_main^(0+384),f
  1033  0C07  2C06               	goto	u4007
  1034  0C08  0B93               	decfsz	(??_main^(0+384)+1),f
  1035  0C09  2C06               	goto	u4007
  1036  0C0A  2C0B               	nop2
  1037  0C0B                     l2895:
  1038                           
  1039                           ;main.c: 260:                 servo3 = read_EEPROM(3);
  1040  0C0B  3003               	movlw	3
  1041  0C0C  160A  118A  27AA  120A  158A  	fcall	_read_EEPROM
  1042  0C11  1683               	bsf	3,5	;RP0=1, select bank3
  1043  0C12  1703               	bsf	3,6	;RP1=1, select bank3
  1044  0C13  0092               	movwf	??_main^(0+384)
  1045  0C14  0812               	movf	??_main^(0+384),w
  1046  0C15  1683               	bsf	3,5	;RP0=1, select bank1
  1047  0C16  1303               	bcf	3,6	;RP1=0, select bank1
  1048  0C17  00BE               	movwf	_servo3^(0+128)
  1049  0C18                     l2897:
  1050                           
  1051                           ;main.c: 261:                 _delay((unsigned long)((250)*(500000/4000.0)));
  1052  0C18  3029               	movlw	41
  1053  0C19  1683               	bsf	3,5	;RP0=1, select bank3
  1054  0C1A  1703               	bsf	3,6	;RP1=1, select bank3
  1055  0C1B  0093               	movwf	(??_main^(0+384)+1)
  1056  0C1C  3093               	movlw	147
  1057  0C1D  0092               	movwf	??_main^(0+384)
  1058  0C1E                     u4017:
  1059  0C1E  0B92               	decfsz	??_main^(0+384),f
  1060  0C1F  2C1E               	goto	u4017
  1061  0C20  0B93               	decfsz	(??_main^(0+384)+1),f
  1062  0C21  2C1E               	goto	u4017
  1063  0C22  2C23               	nop2
  1064                           
  1065                           ;main.c: 262:                 servo4 = read_EEPROM(4);
  1066  0C23  3004               	movlw	4
  1067  0C24  160A  118A  27AA  120A  158A  	fcall	_read_EEPROM
  1068  0C29  1683               	bsf	3,5	;RP0=1, select bank3
  1069  0C2A  1703               	bsf	3,6	;RP1=1, select bank3
  1070  0C2B  0092               	movwf	??_main^(0+384)
  1071  0C2C  0812               	movf	??_main^(0+384),w
  1072  0C2D  1683               	bsf	3,5	;RP0=1, select bank1
  1073  0C2E  1303               	bcf	3,6	;RP1=0, select bank1
  1074  0C2F  00BD               	movwf	_servo4^(0+128)
  1075  0C30                     l2899:
  1076                           
  1077                           ;main.c: 263:                 _delay((unsigned long)((250)*(500000/4000.0)));
  1078  0C30  3029               	movlw	41
  1079  0C31  1683               	bsf	3,5	;RP0=1, select bank3
  1080  0C32  1703               	bsf	3,6	;RP1=1, select bank3
  1081  0C33  0093               	movwf	(??_main^(0+384)+1)
  1082  0C34  3093               	movlw	147
  1083  0C35  0092               	movwf	??_main^(0+384)
  1084  0C36                     u4027:
  1085  0C36  0B92               	decfsz	??_main^(0+384),f
  1086  0C37  2C36               	goto	u4027
  1087  0C38  0B93               	decfsz	(??_main^(0+384)+1),f
  1088  0C39  2C36               	goto	u4027
  1089  0C3A  2C3B               	nop2
  1090  0C3B                     l2901:
  1091                           
  1092                           ;main.c: 265:                 flag_r1 = 0;
  1093  0C3B  1683               	bsf	3,5	;RP0=1, select bank1
  1094  0C3C  1303               	bcf	3,6	;RP1=0, select bank1
  1095  0C3D  01AE               	clrf	_flag_r1^(0+128)
  1096  0C3E  01AF               	clrf	(_flag_r1+1)^(0+128)
  1097                           
  1098                           ;main.c: 266:             }
  1099  0C3F  2D1C               	goto	l2945
  1100  0C40                     l2903:
  1101  0C40  032C               	decf	_flag_r2^(0+128),w
  1102  0C41  042D               	iorwf	(_flag_r2+1)^(0+128),w
  1103  0C42  1D03               	btfss	3,2
  1104  0C43  2C45               	goto	u3851
  1105  0C44  2C46               	goto	u3850
  1106  0C45                     u3851:
  1107  0C45  2D1C               	goto	l2945
  1108  0C46                     u3850:
  1109  0C46                     l2905:
  1110                           
  1111                           ;main.c: 268:                 servo1 = read_EEPROM(5);
  1112  0C46  3005               	movlw	5
  1113  0C47  160A  118A  27AA  120A  158A  	fcall	_read_EEPROM
  1114  0C4C  1683               	bsf	3,5	;RP0=1, select bank3
  1115  0C4D  1703               	bsf	3,6	;RP1=1, select bank3
  1116  0C4E  0092               	movwf	??_main^(0+384)
  1117  0C4F  0812               	movf	??_main^(0+384),w
  1118  0C50  1683               	bsf	3,5	;RP0=1, select bank1
  1119  0C51  1303               	bcf	3,6	;RP1=0, select bank1
  1120  0C52  00C0               	movwf	_servo1^(0+128)
  1121  0C53                     l2907:
  1122                           
  1123                           ;main.c: 269:                 _delay((unsigned long)((250)*(500000/4000.0)));
  1124  0C53  3029               	movlw	41
  1125  0C54  1683               	bsf	3,5	;RP0=1, select bank3
  1126  0C55  1703               	bsf	3,6	;RP1=1, select bank3
  1127  0C56  0093               	movwf	(??_main^(0+384)+1)
  1128  0C57  3093               	movlw	147
  1129  0C58  0092               	movwf	??_main^(0+384)
  1130  0C59                     u4037:
  1131  0C59  0B92               	decfsz	??_main^(0+384),f
  1132  0C5A  2C59               	goto	u4037
  1133  0C5B  0B93               	decfsz	(??_main^(0+384)+1),f
  1134  0C5C  2C59               	goto	u4037
  1135  0C5D  2C5E               	nop2
  1136  0C5E                     l2909:
  1137                           
  1138                           ;main.c: 270:                 servo2 = read_EEPROM(6);
  1139  0C5E  3006               	movlw	6
  1140  0C5F  160A  118A  27AA  120A  158A  	fcall	_read_EEPROM
  1141  0C64  1683               	bsf	3,5	;RP0=1, select bank3
  1142  0C65  1703               	bsf	3,6	;RP1=1, select bank3
  1143  0C66  0092               	movwf	??_main^(0+384)
  1144  0C67  0812               	movf	??_main^(0+384),w
  1145  0C68  1683               	bsf	3,5	;RP0=1, select bank1
  1146  0C69  1303               	bcf	3,6	;RP1=0, select bank1
  1147  0C6A  00BF               	movwf	_servo2^(0+128)
  1148                           
  1149                           ;main.c: 271:                 _delay((unsigned long)((250)*(500000/4000.0)));
  1150  0C6B  3029               	movlw	41
  1151  0C6C  1683               	bsf	3,5	;RP0=1, select bank3
  1152  0C6D  1703               	bsf	3,6	;RP1=1, select bank3
  1153  0C6E  0093               	movwf	(??_main^(0+384)+1)
  1154  0C6F  3093               	movlw	147
  1155  0C70  0092               	movwf	??_main^(0+384)
  1156  0C71                     u4047:
  1157  0C71  0B92               	decfsz	??_main^(0+384),f
  1158  0C72  2C71               	goto	u4047
  1159  0C73  0B93               	decfsz	(??_main^(0+384)+1),f
  1160  0C74  2C71               	goto	u4047
  1161  0C75  2C76               	nop2
  1162  0C76                     l2911:
  1163                           
  1164                           ;main.c: 272:                 servo3 = read_EEPROM(7);
  1165  0C76  3007               	movlw	7
  1166  0C77  160A  118A  27AA  120A  158A  	fcall	_read_EEPROM
  1167  0C7C  1683               	bsf	3,5	;RP0=1, select bank3
  1168  0C7D  1703               	bsf	3,6	;RP1=1, select bank3
  1169  0C7E  0092               	movwf	??_main^(0+384)
  1170  0C7F  0812               	movf	??_main^(0+384),w
  1171  0C80  1683               	bsf	3,5	;RP0=1, select bank1
  1172  0C81  1303               	bcf	3,6	;RP1=0, select bank1
  1173  0C82  00BE               	movwf	_servo3^(0+128)
  1174  0C83                     l2913:
  1175                           
  1176                           ;main.c: 273:                 _delay((unsigned long)((250)*(500000/4000.0)));
  1177  0C83  3029               	movlw	41
  1178  0C84  1683               	bsf	3,5	;RP0=1, select bank3
  1179  0C85  1703               	bsf	3,6	;RP1=1, select bank3
  1180  0C86  0093               	movwf	(??_main^(0+384)+1)
  1181  0C87  3093               	movlw	147
  1182  0C88  0092               	movwf	??_main^(0+384)
  1183  0C89                     u4057:
  1184  0C89  0B92               	decfsz	??_main^(0+384),f
  1185  0C8A  2C89               	goto	u4057
  1186  0C8B  0B93               	decfsz	(??_main^(0+384)+1),f
  1187  0C8C  2C89               	goto	u4057
  1188  0C8D  2C8E               	nop2
  1189                           
  1190                           ;main.c: 274:                 servo4 = read_EEPROM(8);
  1191  0C8E  3008               	movlw	8
  1192  0C8F  160A  118A  27AA  120A  158A  	fcall	_read_EEPROM
  1193  0C94  1683               	bsf	3,5	;RP0=1, select bank3
  1194  0C95  1703               	bsf	3,6	;RP1=1, select bank3
  1195  0C96  0092               	movwf	??_main^(0+384)
  1196  0C97  0812               	movf	??_main^(0+384),w
  1197  0C98  1683               	bsf	3,5	;RP0=1, select bank1
  1198  0C99  1303               	bcf	3,6	;RP1=0, select bank1
  1199  0C9A  00BD               	movwf	_servo4^(0+128)
  1200  0C9B                     l2915:
  1201                           
  1202                           ;main.c: 275:                 _delay((unsigned long)((250)*(500000/4000.0)));
  1203  0C9B  3029               	movlw	41
  1204  0C9C  1683               	bsf	3,5	;RP0=1, select bank3
  1205  0C9D  1703               	bsf	3,6	;RP1=1, select bank3
  1206  0C9E  0093               	movwf	(??_main^(0+384)+1)
  1207  0C9F  3093               	movlw	147
  1208  0CA0  0092               	movwf	??_main^(0+384)
  1209  0CA1                     u4067:
  1210  0CA1  0B92               	decfsz	??_main^(0+384),f
  1211  0CA2  2CA1               	goto	u4067
  1212  0CA3  0B93               	decfsz	(??_main^(0+384)+1),f
  1213  0CA4  2CA1               	goto	u4067
  1214  0CA5  2CA6               	nop2
  1215  0CA6                     l2917:
  1216                           
  1217                           ;main.c: 277:                 flag_r2 = 0;
  1218  0CA6  1683               	bsf	3,5	;RP0=1, select bank1
  1219  0CA7  1303               	bcf	3,6	;RP1=0, select bank1
  1220  0CA8  01AC               	clrf	_flag_r2^(0+128)
  1221  0CA9  01AD               	clrf	(_flag_r2+1)^(0+128)
  1222  0CAA  2D1C               	goto	l2945
  1223  0CAB                     l226:
  1224                           
  1225                           ;main.c: 279:         }
  1226  0CAB  2D1C               	goto	l2945
  1227  0CAC                     l2919:
  1228  0CAC  3002               	movlw	2
  1229  0CAD  0634               	xorwf	_modo^(0+128),w
  1230  0CAE  0435               	iorwf	(_modo+1)^(0+128),w
  1231  0CAF  1D03               	btfss	3,2
  1232  0CB0  2CB2               	goto	u3861
  1233  0CB1  2CB3               	goto	u3860
  1234  0CB2                     u3861:
  1235  0CB2  2D1C               	goto	l2945
  1236  0CB3                     u3860:
  1237  0CB3                     l2921:
  1238                           
  1239                           ;main.c: 281:            PORTD = 4;
  1240  0CB3  3004               	movlw	4
  1241  0CB4  1283               	bcf	3,5	;RP0=0, select bank0
  1242  0CB5  1303               	bcf	3,6	;RP1=0, select bank0
  1243  0CB6  0088               	movwf	8	;volatile
  1244                           
  1245                           ;main.c: 283:            if (valor_old != mensaje[6]){
  1246  0CB7  1683               	bsf	3,5	;RP0=1, select bank1
  1247  0CB8  1303               	bcf	3,6	;RP1=0, select bank1
  1248  0CB9  0858               	movf	(_mensaje^(0+128)+6),w
  1249  0CBA  0638               	xorwf	_valor_old^(0+128),w
  1250  0CBB  1903               	skipnz
  1251  0CBC  2CBE               	goto	u3871
  1252  0CBD  2CBF               	goto	u3870
  1253  0CBE                     u3871:
  1254  0CBE  2CD5               	goto	l2927
  1255  0CBF                     u3870:
  1256  0CBF                     l2923:
  1257                           
  1258                           ;main.c: 284:                if (PIR1bits.TXIF){
  1259  0CBF  1283               	bcf	3,5	;RP0=0, select bank0
  1260  0CC0  1303               	bcf	3,6	;RP1=0, select bank0
  1261  0CC1  1E0C               	btfss	12,4	;volatile
  1262  0CC2  2CC4               	goto	u3881
  1263  0CC3  2CC5               	goto	u3880
  1264  0CC4                     u3881:
  1265  0CC4  2CCB               	goto	l231
  1266  0CC5                     u3880:
  1267  0CC5                     l2925:
  1268                           
  1269                           ;main.c: 285:                         TXREG = mensaje[6];
  1270  0CC5  1683               	bsf	3,5	;RP0=1, select bank1
  1271  0CC6  1303               	bcf	3,6	;RP1=0, select bank1
  1272  0CC7  0858               	movf	(_mensaje^(0+128)+6),w
  1273  0CC8  1283               	bcf	3,5	;RP0=0, select bank0
  1274  0CC9  1303               	bcf	3,6	;RP1=0, select bank0
  1275  0CCA  0099               	movwf	25	;volatile
  1276  0CCB                     l231:	
  1277                           ;main.c: 286:                     }
  1278                           
  1279                           
  1280                           ;main.c: 287:                 valor_old = mensaje[6];
  1281  0CCB  1683               	bsf	3,5	;RP0=1, select bank1
  1282  0CCC  1303               	bcf	3,6	;RP1=0, select bank1
  1283  0CCD  0858               	movf	(_mensaje^(0+128)+6),w
  1284  0CCE  1683               	bsf	3,5	;RP0=1, select bank3
  1285  0CCF  1703               	bsf	3,6	;RP1=1, select bank3
  1286  0CD0  0092               	movwf	??_main^(0+384)
  1287  0CD1  0812               	movf	??_main^(0+384),w
  1288  0CD2  1683               	bsf	3,5	;RP0=1, select bank1
  1289  0CD3  1303               	bcf	3,6	;RP1=0, select bank1
  1290  0CD4  00B8               	movwf	_valor_old^(0+128)
  1291  0CD5                     l2927:
  1292                           
  1293                           ;main.c: 290:            flag_terminal = (val_terminal & 0b01100000);
  1294  0CD5  0837               	movf	_val_terminal^(0+128),w
  1295  0CD6  3960               	andlw	96
  1296  0CD7  1683               	bsf	3,5	;RP0=1, select bank3
  1297  0CD8  1703               	bsf	3,6	;RP1=1, select bank3
  1298  0CD9  0092               	movwf	??_main^(0+384)
  1299  0CDA  0812               	movf	??_main^(0+384),w
  1300  0CDB  1683               	bsf	3,5	;RP0=1, select bank1
  1301  0CDC  1303               	bcf	3,6	;RP1=0, select bank1
  1302  0CDD  00B6               	movwf	_flag_terminal^(0+128)
  1303  0CDE                     l2929:
  1304                           
  1305                           ;main.c: 291:             if(flag_terminal == 0){
  1306  0CDE  0836               	movf	_flag_terminal^(0+128),w
  1307  0CDF  1D03               	btfss	3,2
  1308  0CE0  2CE2               	goto	u3891
  1309  0CE1  2CE3               	goto	u3890
  1310  0CE2                     u3891:
  1311  0CE2  2CED               	goto	l2933
  1312  0CE3                     u3890:
  1313  0CE3                     l2931:
  1314                           
  1315                           ;main.c: 293:                 servo11 = val_terminal & 0b00011111;
  1316  0CE3  0837               	movf	_val_terminal^(0+128),w
  1317  0CE4  391F               	andlw	31
  1318  0CE5  1683               	bsf	3,5	;RP0=1, select bank3
  1319  0CE6  1703               	bsf	3,6	;RP1=1, select bank3
  1320  0CE7  0092               	movwf	??_main^(0+384)
  1321  0CE8  0812               	movf	??_main^(0+384),w
  1322  0CE9  1683               	bsf	3,5	;RP0=1, select bank1
  1323  0CEA  1303               	bcf	3,6	;RP1=0, select bank1
  1324  0CEB  00BC               	movwf	_servo11^(0+128)
  1325                           
  1326                           ;main.c: 294:             }
  1327  0CEC  2D1C               	goto	l2945
  1328  0CED                     l2933:
  1329  0CED  3020               	movlw	32
  1330  0CEE  0636               	xorwf	_flag_terminal^(0+128),w
  1331  0CEF  1D03               	btfss	3,2
  1332  0CF0  2CF2               	goto	u3901
  1333  0CF1  2CF3               	goto	u3900
  1334  0CF2                     u3901:
  1335  0CF2  2CFD               	goto	l2937
  1336  0CF3                     u3900:
  1337  0CF3                     l2935:
  1338                           
  1339                           ;main.c: 297:                 servo22 = val_terminal & 0b00011111;
  1340  0CF3  0837               	movf	_val_terminal^(0+128),w
  1341  0CF4  391F               	andlw	31
  1342  0CF5  1683               	bsf	3,5	;RP0=1, select bank3
  1343  0CF6  1703               	bsf	3,6	;RP1=1, select bank3
  1344  0CF7  0092               	movwf	??_main^(0+384)
  1345  0CF8  0812               	movf	??_main^(0+384),w
  1346  0CF9  1683               	bsf	3,5	;RP0=1, select bank1
  1347  0CFA  1303               	bcf	3,6	;RP1=0, select bank1
  1348  0CFB  00BB               	movwf	_servo22^(0+128)
  1349                           
  1350                           ;main.c: 298:             }
  1351  0CFC  2D1C               	goto	l2945
  1352  0CFD                     l2937:
  1353  0CFD  3040               	movlw	64
  1354  0CFE  0636               	xorwf	_flag_terminal^(0+128),w
  1355  0CFF  1D03               	btfss	3,2
  1356  0D00  2D02               	goto	u3911
  1357  0D01  2D03               	goto	u3910
  1358  0D02                     u3911:
  1359  0D02  2D0D               	goto	l2941
  1360  0D03                     u3910:
  1361  0D03                     l2939:
  1362                           
  1363                           ;main.c: 301:                 servo33 = val_terminal & 0b00011111;
  1364  0D03  0837               	movf	_val_terminal^(0+128),w
  1365  0D04  391F               	andlw	31
  1366  0D05  1683               	bsf	3,5	;RP0=1, select bank3
  1367  0D06  1703               	bsf	3,6	;RP1=1, select bank3
  1368  0D07  0092               	movwf	??_main^(0+384)
  1369  0D08  0812               	movf	??_main^(0+384),w
  1370  0D09  1683               	bsf	3,5	;RP0=1, select bank1
  1371  0D0A  1303               	bcf	3,6	;RP1=0, select bank1
  1372  0D0B  00BA               	movwf	_servo33^(0+128)
  1373                           
  1374                           ;main.c: 302:             }
  1375  0D0C  2D1C               	goto	l2945
  1376  0D0D                     l2941:
  1377  0D0D  3060               	movlw	96
  1378  0D0E  0636               	xorwf	_flag_terminal^(0+128),w
  1379  0D0F  1D03               	btfss	3,2
  1380  0D10  2D12               	goto	u3921
  1381  0D11  2D13               	goto	u3920
  1382  0D12                     u3921:
  1383  0D12  2CAB               	goto	l226
  1384  0D13                     u3920:
  1385  0D13                     l2943:
  1386                           
  1387                           ;main.c: 305:                 servo44 = val_terminal & 0b00011111;
  1388  0D13  0837               	movf	_val_terminal^(0+128),w
  1389  0D14  391F               	andlw	31
  1390  0D15  1683               	bsf	3,5	;RP0=1, select bank3
  1391  0D16  1703               	bsf	3,6	;RP1=1, select bank3
  1392  0D17  0092               	movwf	??_main^(0+384)
  1393  0D18  0812               	movf	??_main^(0+384),w
  1394  0D19  1683               	bsf	3,5	;RP0=1, select bank1
  1395  0D1A  1303               	bcf	3,6	;RP1=0, select bank1
  1396  0D1B  00B9               	movwf	_servo44^(0+128)
  1397  0D1C                     l2945:
  1398                           
  1399                           ;main.c: 309:         if(ADCON0bits.GO == 0){
  1400  0D1C  1283               	bcf	3,5	;RP0=0, select bank0
  1401  0D1D  1303               	bcf	3,6	;RP1=0, select bank0
  1402  0D1E  189F               	btfsc	31,1	;volatile
  1403  0D1F  2D21               	goto	u3931
  1404  0D20  2D22               	goto	u3930
  1405  0D21                     u3931:
  1406  0D21  2B1C               	goto	l2863
  1407  0D22                     u3930:
  1408  0D22                     l2947:
  1409                           
  1410                           ;main.c: 310:                 if(ADCON0bits.CHS == 0)
  1411  0D22  0C1F               	rrf	31,w	;volatile
  1412  0D23  1683               	bsf	3,5	;RP0=1, select bank3
  1413  0D24  1703               	bsf	3,6	;RP1=1, select bank3
  1414  0D25  0092               	movwf	??_main^(0+384)
  1415  0D26  0C12               	rrf	??_main^(0+384),w
  1416  0D27  390F               	andlw	15
  1417  0D28  3A00               	xorlw	0
  1418  0D29  1D03               	skipz
  1419  0D2A  2D2C               	goto	u3941
  1420  0D2B  2D2D               	goto	u3940
  1421  0D2C                     u3941:
  1422  0D2C  2D34               	goto	l2951
  1423  0D2D                     u3940:
  1424  0D2D                     l2949:
  1425                           
  1426                           ;main.c: 311:                      ADCON0bits.CHS = 1;
  1427  0D2D  1283               	bcf	3,5	;RP0=0, select bank0
  1428  0D2E  1303               	bcf	3,6	;RP1=0, select bank0
  1429  0D2F  081F               	movf	31,w	;volatile
  1430  0D30  39C3               	andlw	-61
  1431  0D31  3804               	iorlw	4
  1432  0D32  009F               	movwf	31	;volatile
  1433  0D33  2D6E               	goto	l2963
  1434  0D34                     l2951:
  1435  0D34  1283               	bcf	3,5	;RP0=0, select bank0
  1436  0D35  1303               	bcf	3,6	;RP1=0, select bank0
  1437  0D36  0C1F               	rrf	31,w	;volatile
  1438  0D37  1683               	bsf	3,5	;RP0=1, select bank3
  1439  0D38  1703               	bsf	3,6	;RP1=1, select bank3
  1440  0D39  0092               	movwf	??_main^(0+384)
  1441  0D3A  0C12               	rrf	??_main^(0+384),w
  1442  0D3B  390F               	andlw	15
  1443  0D3C  3A01               	xorlw	1
  1444  0D3D  1D03               	skipz
  1445  0D3E  2D40               	goto	u3951
  1446  0D3F  2D41               	goto	u3950
  1447  0D40                     u3951:
  1448  0D40  2D48               	goto	l2955
  1449  0D41                     u3950:
  1450  0D41                     l2953:
  1451                           
  1452                           ;main.c: 313:                      ADCON0bits.CHS = 2;
  1453  0D41  1283               	bcf	3,5	;RP0=0, select bank0
  1454  0D42  1303               	bcf	3,6	;RP1=0, select bank0
  1455  0D43  081F               	movf	31,w	;volatile
  1456  0D44  39C3               	andlw	-61
  1457  0D45  3808               	iorlw	8
  1458  0D46  009F               	movwf	31	;volatile
  1459  0D47  2D6E               	goto	l2963
  1460  0D48                     l2955:
  1461  0D48  1283               	bcf	3,5	;RP0=0, select bank0
  1462  0D49  1303               	bcf	3,6	;RP1=0, select bank0
  1463  0D4A  0C1F               	rrf	31,w	;volatile
  1464  0D4B  1683               	bsf	3,5	;RP0=1, select bank3
  1465  0D4C  1703               	bsf	3,6	;RP1=1, select bank3
  1466  0D4D  0092               	movwf	??_main^(0+384)
  1467  0D4E  0C12               	rrf	??_main^(0+384),w
  1468  0D4F  390F               	andlw	15
  1469  0D50  3A02               	xorlw	2
  1470  0D51  1D03               	skipz
  1471  0D52  2D54               	goto	u3961
  1472  0D53  2D55               	goto	u3960
  1473  0D54                     u3961:
  1474  0D54  2D5C               	goto	l2959
  1475  0D55                     u3960:
  1476  0D55                     l2957:
  1477                           
  1478                           ;main.c: 315:                      ADCON0bits.CHS = 3;
  1479  0D55  1283               	bcf	3,5	;RP0=0, select bank0
  1480  0D56  1303               	bcf	3,6	;RP1=0, select bank0
  1481  0D57  081F               	movf	31,w	;volatile
  1482  0D58  39C3               	andlw	-61
  1483  0D59  380C               	iorlw	12
  1484  0D5A  009F               	movwf	31	;volatile
  1485  0D5B  2D6E               	goto	l2963
  1486  0D5C                     l2959:
  1487  0D5C  1283               	bcf	3,5	;RP0=0, select bank0
  1488  0D5D  1303               	bcf	3,6	;RP1=0, select bank0
  1489  0D5E  0C1F               	rrf	31,w	;volatile
  1490  0D5F  1683               	bsf	3,5	;RP0=1, select bank3
  1491  0D60  1703               	bsf	3,6	;RP1=1, select bank3
  1492  0D61  0092               	movwf	??_main^(0+384)
  1493  0D62  0C12               	rrf	??_main^(0+384),w
  1494  0D63  390F               	andlw	15
  1495  0D64  3A03               	xorlw	3
  1496  0D65  1D03               	skipz
  1497  0D66  2D68               	goto	u3971
  1498  0D67  2D69               	goto	u3970
  1499  0D68                     u3971:
  1500  0D68  2D6E               	goto	l243
  1501  0D69                     u3970:
  1502  0D69                     l2961:
  1503                           
  1504                           ;main.c: 317:                      ADCON0bits.CHS = 0;
  1505  0D69  30C3               	movlw	-61
  1506  0D6A  1283               	bcf	3,5	;RP0=0, select bank0
  1507  0D6B  1303               	bcf	3,6	;RP1=0, select bank0
  1508  0D6C  059F               	andwf	31,f	;volatile
  1509  0D6D  2D6E               	goto	l2963
  1510  0D6E                     l243:
  1511  0D6E                     l2963:
  1512                           
  1513                           ;main.c: 318:                 _delay((unsigned long)((40)*(500000/4000000.0)));
  1514  0D6E  2D6F               	nop2	;2 cycle nop
  1515  0D6F  2D70               	nop2	;2 cycle nop
  1516  0D70  0000               	nop
  1517  0D71                     l2965:
  1518                           
  1519                           ;main.c: 319:                 ADCON0bits.GO = 1;
  1520  0D71  1283               	bcf	3,5	;RP0=0, select bank0
  1521  0D72  1303               	bcf	3,6	;RP1=0, select bank0
  1522  0D73  149F               	bsf	31,1	;volatile
  1523  0D74  2B1C               	goto	l2863
  1524  0D75  120A  118A  2810   	ljmp	start
  1525  0D78                     __end_of_main:
  1526                           
  1527                           	psect	text1
  1528  0829                     __ptext1:	
  1529 ;; *************** function _write_EEPROM *****************
  1530 ;; Defined at:
  1531 ;;		line 352 in file "main.c"
  1532 ;; Parameters:    Size  Location     Type
  1533 ;;  address         1    wreg     unsigned char 
  1534 ;;  data            1    0[BANK3 ] unsigned char 
  1535 ;; Auto vars:     Size  Location     Type
  1536 ;;  address         1    1[BANK3 ] unsigned char 
  1537 ;; Return value:  Size  Location     Type
  1538 ;;                  1    wreg      void 
  1539 ;; Registers used:
  1540 ;;		wreg
  1541 ;; Tracked objects:
  1542 ;;		On entry : 0/0
  1543 ;;		On exit  : 0/0
  1544 ;;		Unchanged: 0/0
  1545 ;; Data sizes:     COMMON   BANK0   BANK1   BANK3   BANK2
  1546 ;;      Params:         0       0       0       1       0
  1547 ;;      Locals:         0       0       0       1       0
  1548 ;;      Temps:          0       0       0       0       0
  1549 ;;      Totals:         0       0       0       2       0
  1550 ;;Total ram usage:        2 bytes
  1551 ;; Hardware stack levels used: 1
  1552 ;; Hardware stack levels required when called: 4
  1553 ;; This function calls:
  1554 ;;		Nothing
  1555 ;; This function is called by:
  1556 ;;		_main
  1557 ;; This function uses a non-reentrant model
  1558 ;;
  1559                           
  1560  0829                     _write_EEPROM:	
  1561                           ;psect for function _write_EEPROM
  1562                           
  1563                           
  1564                           ;incstack = 0
  1565                           ; Regs used in _write_EEPROM: [wreg]
  1566                           ;write_EEPROM@address stored from wreg
  1567  0829  1683               	bsf	3,5	;RP0=1, select bank3
  1568  082A  1703               	bsf	3,6	;RP1=1, select bank3
  1569  082B  0091               	movwf	write_EEPROM@address^(0+384)
  1570  082C                     l2841:
  1571                           
  1572                           ;main.c: 353:     EEADR = address;
  1573  082C  0811               	movf	write_EEPROM@address^(0+384),w
  1574  082D  1283               	bcf	3,5	;RP0=0, select bank2
  1575  082E  1703               	bsf	3,6	;RP1=1, select bank2
  1576  082F  008D               	movwf	13	;volatile
  1577                           
  1578                           ;main.c: 354:     EEDAT = data;
  1579  0830  1683               	bsf	3,5	;RP0=1, select bank3
  1580  0831  1703               	bsf	3,6	;RP1=1, select bank3
  1581  0832  0810               	movf	write_EEPROM@data^(0+384),w
  1582  0833  1283               	bcf	3,5	;RP0=0, select bank2
  1583  0834  1703               	bsf	3,6	;RP1=1, select bank2
  1584  0835  008C               	movwf	12	;volatile
  1585  0836                     l2843:
  1586                           
  1587                           ;main.c: 356:     EECON1bits.EEPGD = 0;
  1588  0836  1683               	bsf	3,5	;RP0=1, select bank3
  1589  0837  1703               	bsf	3,6	;RP1=1, select bank3
  1590  0838  138C               	bcf	12,7	;volsfr
  1591  0839                     l2845:
  1592                           
  1593                           ;main.c: 357:     EECON1bits.WREN = 1;
  1594  0839  150C               	bsf	12,2	;volsfr
  1595  083A                     l2847:
  1596                           
  1597                           ;main.c: 359:     INTCONbits.GIE = 0;
  1598  083A  138B               	bcf	11,7	;volatile
  1599                           
  1600                           ;main.c: 362:     EECON2 = 0x55;
  1601  083B  3055               	movlw	85
  1602  083C  008D               	movwf	13	;volsfr
  1603                           
  1604                           ;main.c: 363:     EECON2 = 0xAA;
  1605  083D  30AA               	movlw	170
  1606  083E  008D               	movwf	13	;volsfr
  1607  083F                     l2849:
  1608                           
  1609                           ;main.c: 365:     EECON1bits.WR = 1;
  1610  083F  148C               	bsf	12,1	;volsfr
  1611  0840                     l258:	
  1612                           ;main.c: 367:     while(!PIR2bits.EEIF);
  1613                           
  1614  0840  1283               	bcf	3,5	;RP0=0, select bank0
  1615  0841  1303               	bcf	3,6	;RP1=0, select bank0
  1616  0842  1E0D               	btfss	13,4	;volatile
  1617  0843  2845               	goto	u3771
  1618  0844  2846               	goto	u3770
  1619  0845                     u3771:
  1620  0845  2840               	goto	l258
  1621  0846                     u3770:
  1622  0846                     l260:
  1623                           
  1624                           ;main.c: 369:     PIR2bits.EEIF = 0;
  1625  0846  120D               	bcf	13,4	;volatile
  1626                           
  1627                           ;main.c: 370:     EECON1bits.WREN = 0;
  1628  0847  1683               	bsf	3,5	;RP0=1, select bank3
  1629  0848  1703               	bsf	3,6	;RP1=1, select bank3
  1630  0849  110C               	bcf	12,2	;volsfr
  1631                           
  1632                           ;main.c: 371:     INTCONbits.RBIF = 0;
  1633  084A  100B               	bcf	11,0	;volatile
  1634                           
  1635                           ;main.c: 372:     PIR1bits.ADIF = 0;
  1636  084B  1283               	bcf	3,5	;RP0=0, select bank0
  1637  084C  1303               	bcf	3,6	;RP1=0, select bank0
  1638  084D  130C               	bcf	12,6	;volatile
  1639                           
  1640                           ;main.c: 373:     INTCONbits.GIE = 1;
  1641  084E  178B               	bsf	11,7	;volatile
  1642  084F                     l261:	
  1643                           ;main.c: 375:     return;
  1644                           
  1645  084F  0008               	return
  1646  0850                     __end_of_write_EEPROM:
  1647                           
  1648                           	psect	text2
  1649  0850                     __ptext2:	
  1650 ;; *************** function _setup *****************
  1651 ;; Defined at:
  1652 ;;		line 381 in file "main.c"
  1653 ;; Parameters:    Size  Location     Type
  1654 ;;		None
  1655 ;; Auto vars:     Size  Location     Type
  1656 ;;		None
  1657 ;; Return value:  Size  Location     Type
  1658 ;;                  1    wreg      void 
  1659 ;; Registers used:
  1660 ;;		wreg, status,2, status,0, pclath, cstack
  1661 ;; Tracked objects:
  1662 ;;		On entry : 0/0
  1663 ;;		On exit  : 0/0
  1664 ;;		Unchanged: 0/0
  1665 ;; Data sizes:     COMMON   BANK0   BANK1   BANK3   BANK2
  1666 ;;      Params:         0       0       0       0       0
  1667 ;;      Locals:         0       0       0       0       0
  1668 ;;      Temps:          0       0       0       0       0
  1669 ;;      Totals:         0       0       0       0       0
  1670 ;;Total ram usage:        0 bytes
  1671 ;; Hardware stack levels used: 1
  1672 ;; Hardware stack levels required when called: 5
  1673 ;; This function calls:
  1674 ;;		_set_ADC
  1675 ;;		_set_PWM
  1676 ;;		_set_SPI
  1677 ;;		_set_UART
  1678 ;; This function is called by:
  1679 ;;		_main
  1680 ;; This function uses a non-reentrant model
  1681 ;;
  1682                           
  1683  0850                     _setup:	
  1684                           ;psect for function _setup
  1685                           
  1686  0850                     l2785:	
  1687                           ;incstack = 0
  1688                           ; Regs used in _setup: [wreg+status,2+status,0+pclath+cstack]
  1689                           
  1690                           
  1691                           ;main.c: 383:     ANSEL = 0b00001111;
  1692  0850  300F               	movlw	15
  1693  0851  1683               	bsf	3,5	;RP0=1, select bank3
  1694  0852  1703               	bsf	3,6	;RP1=1, select bank3
  1695  0853  0088               	movwf	8	;volatile
  1696  0854                     l2787:
  1697                           
  1698                           ;main.c: 384:     ANSELH = 0;
  1699  0854  0189               	clrf	9	;volatile
  1700  0855                     l2789:
  1701                           
  1702                           ;main.c: 386:     TRISA = 0b00001111;
  1703  0855  300F               	movlw	15
  1704  0856  1683               	bsf	3,5	;RP0=1, select bank1
  1705  0857  1303               	bcf	3,6	;RP1=0, select bank1
  1706  0858  0085               	movwf	5	;volatile
  1707                           
  1708                           ;main.c: 387:     PORTA = 0;
  1709  0859  1283               	bcf	3,5	;RP0=0, select bank0
  1710  085A  1303               	bcf	3,6	;RP1=0, select bank0
  1711  085B  0185               	clrf	5	;volatile
  1712                           
  1713                           ;main.c: 389:     TRISD = 0;
  1714  085C  1683               	bsf	3,5	;RP0=1, select bank1
  1715  085D  1303               	bcf	3,6	;RP1=0, select bank1
  1716  085E  0188               	clrf	8	;volatile
  1717                           
  1718                           ;main.c: 390:     PORTD = 0;
  1719  085F  1283               	bcf	3,5	;RP0=0, select bank0
  1720  0860  1303               	bcf	3,6	;RP1=0, select bank0
  1721  0861  0188               	clrf	8	;volatile
  1722  0862                     l2791:
  1723                           
  1724                           ;main.c: 393:     OSCCONbits.IRCF = 0b011;
  1725  0862  1683               	bsf	3,5	;RP0=1, select bank1
  1726  0863  1303               	bcf	3,6	;RP1=0, select bank1
  1727  0864  080F               	movf	15,w	;volatile
  1728  0865  398F               	andlw	-113
  1729  0866  3830               	iorlw	48
  1730  0867  008F               	movwf	15	;volatile
  1731  0868                     l2793:
  1732                           
  1733                           ;main.c: 394:     OSCCONbits.SCS = 1;
  1734  0868  140F               	bsf	15,0	;volatile
  1735  0869                     l2795:
  1736                           
  1737                           ;main.c: 396:     set_ADC();
  1738  0869  160A  118A  27CC  120A  158A  	fcall	_set_ADC
  1739  086E                     l2797:
  1740                           
  1741                           ;main.c: 397:     set_PWM();
  1742  086E  120A  118A  27BC  120A  158A  	fcall	_set_PWM
  1743  0873                     l2799:
  1744                           
  1745                           ;main.c: 398:     set_SPI();
  1746  0873  160A  118A  27B9  120A  158A  	fcall	_set_SPI
  1747  0878                     l2801:
  1748                           
  1749                           ;main.c: 399:     set_UART();
  1750  0878  160A  118A  27E6  120A  158A  	fcall	_set_UART
  1751  087D                     l2803:
  1752                           
  1753                           ;main.c: 402:     TRISBbits.TRISB0 = 1;
  1754  087D  1683               	bsf	3,5	;RP0=1, select bank1
  1755  087E  1303               	bcf	3,6	;RP1=0, select bank1
  1756  087F  1406               	bsf	6,0	;volatile
  1757  0880                     l2805:
  1758                           
  1759                           ;main.c: 403:     TRISBbits.TRISB1 = 1;
  1760  0880  1486               	bsf	6,1	;volatile
  1761  0881                     l2807:
  1762                           
  1763                           ;main.c: 404:     TRISBbits.TRISB2 = 1;
  1764  0881  1506               	bsf	6,2	;volatile
  1765  0882                     l2809:
  1766                           
  1767                           ;main.c: 405:     PORTB = 0;
  1768  0882  1283               	bcf	3,5	;RP0=0, select bank0
  1769  0883  1303               	bcf	3,6	;RP1=0, select bank0
  1770  0884  0186               	clrf	6	;volatile
  1771  0885                     l2811:
  1772                           
  1773                           ;main.c: 406:     OPTION_REGbits.nRBPU = 0;
  1774  0885  1683               	bsf	3,5	;RP0=1, select bank1
  1775  0886  1303               	bcf	3,6	;RP1=0, select bank1
  1776  0887  1381               	bcf	1,7	;volatile
  1777  0888                     l2813:
  1778                           
  1779                           ;main.c: 407:     WPUBbits.WPUB0 = 1;
  1780  0888  1415               	bsf	21,0	;volatile
  1781  0889                     l2815:
  1782                           
  1783                           ;main.c: 408:     WPUBbits.WPUB1 = 1;
  1784  0889  1495               	bsf	21,1	;volatile
  1785  088A                     l2817:
  1786                           
  1787                           ;main.c: 409:     WPUBbits.WPUB2 = 1;
  1788  088A  1515               	bsf	21,2	;volatile
  1789  088B                     l2819:
  1790                           
  1791                           ;main.c: 412:     INTCONbits.GIE = 1;
  1792  088B  178B               	bsf	11,7	;volatile
  1793  088C                     l2821:
  1794                           
  1795                           ;main.c: 413:     PIR2bits.EEIF = 0;
  1796  088C  1283               	bcf	3,5	;RP0=0, select bank0
  1797  088D  1303               	bcf	3,6	;RP1=0, select bank0
  1798  088E  120D               	bcf	13,4	;volatile
  1799  088F                     l2823:
  1800                           
  1801                           ;main.c: 414:     PIE1bits.ADIE = 1;
  1802  088F  1683               	bsf	3,5	;RP0=1, select bank1
  1803  0890  1303               	bcf	3,6	;RP1=0, select bank1
  1804  0891  170C               	bsf	12,6	;volatile
  1805  0892                     l2825:
  1806                           
  1807                           ;main.c: 415:     PIR1bits.ADIF = 0;
  1808  0892  1283               	bcf	3,5	;RP0=0, select bank0
  1809  0893  1303               	bcf	3,6	;RP1=0, select bank0
  1810  0894  130C               	bcf	12,6	;volatile
  1811  0895                     l2827:
  1812                           
  1813                           ;main.c: 416:     INTCONbits.RBIE = 1;
  1814  0895  158B               	bsf	11,3	;volatile
  1815  0896                     l2829:
  1816                           
  1817                           ;main.c: 417:     IOCBbits.IOCB0 = 1;
  1818  0896  1683               	bsf	3,5	;RP0=1, select bank1
  1819  0897  1303               	bcf	3,6	;RP1=0, select bank1
  1820  0898  1416               	bsf	22,0	;volatile
  1821  0899                     l2831:
  1822                           
  1823                           ;main.c: 418:     IOCBbits.IOCB1 = 1;
  1824  0899  1496               	bsf	22,1	;volatile
  1825  089A                     l2833:
  1826                           
  1827                           ;main.c: 419:     IOCBbits.IOCB2 = 1;
  1828  089A  1516               	bsf	22,2	;volatile
  1829  089B                     l2835:
  1830                           
  1831                           ;main.c: 420:     INTCONbits.RBIF = 0;
  1832  089B  100B               	bcf	11,0	;volatile
  1833  089C                     l2837:
  1834                           
  1835                           ;main.c: 421:     INTCONbits.PEIE = 1;
  1836  089C  170B               	bsf	11,6	;volatile
  1837  089D                     l264:
  1838  089D  0008               	return
  1839  089E                     __end_of_setup:
  1840                           
  1841                           	psect	text3
  1842  17E6                     __ptext3:	
  1843 ;; *************** function _set_UART *****************
  1844 ;; Defined at:
  1845 ;;		line 475 in file "main.c"
  1846 ;; Parameters:    Size  Location     Type
  1847 ;;		None
  1848 ;; Auto vars:     Size  Location     Type
  1849 ;;		None
  1850 ;; Return value:  Size  Location     Type
  1851 ;;                  1    wreg      void 
  1852 ;; Registers used:
  1853 ;;		wreg, status,2
  1854 ;; Tracked objects:
  1855 ;;		On entry : 0/0
  1856 ;;		On exit  : 0/0
  1857 ;;		Unchanged: 0/0
  1858 ;; Data sizes:     COMMON   BANK0   BANK1   BANK3   BANK2
  1859 ;;      Params:         0       0       0       0       0
  1860 ;;      Locals:         0       0       0       0       0
  1861 ;;      Temps:          0       0       0       0       0
  1862 ;;      Totals:         0       0       0       0       0
  1863 ;;Total ram usage:        0 bytes
  1864 ;; Hardware stack levels used: 1
  1865 ;; Hardware stack levels required when called: 4
  1866 ;; This function calls:
  1867 ;;		Nothing
  1868 ;; This function is called by:
  1869 ;;		_setup
  1870 ;; This function uses a non-reentrant model
  1871 ;;
  1872                           
  1873  17E6                     _set_UART:	
  1874                           ;psect for function _set_UART
  1875                           
  1876  17E6                     l1895:	
  1877                           ;incstack = 0
  1878                           ; Regs used in _set_UART: [wreg+status,2]
  1879                           
  1880                           
  1881                           ;main.c: 478:     TXSTAbits.SYNC = 0;
  1882  17E6  1683               	bsf	3,5	;RP0=1, select bank1
  1883  17E7  1303               	bcf	3,6	;RP1=0, select bank1
  1884  17E8  1218               	bcf	24,4	;volatile
  1885                           
  1886                           ;main.c: 479:     TXSTAbits.BRGH = 1;
  1887  17E9  1518               	bsf	24,2	;volatile
  1888                           
  1889                           ;main.c: 480:     BAUDCTLbits.BRG16 = 1;
  1890  17EA  1683               	bsf	3,5	;RP0=1, select bank3
  1891  17EB  1703               	bsf	3,6	;RP1=1, select bank3
  1892  17EC  1587               	bsf	7,3	;volatile
  1893  17ED                     l1897:
  1894                           
  1895                           ;main.c: 481:     SPBRGH = 0;
  1896  17ED  1683               	bsf	3,5	;RP0=1, select bank1
  1897  17EE  1303               	bcf	3,6	;RP1=0, select bank1
  1898  17EF  019A               	clrf	26	;volatile
  1899  17F0                     l1899:
  1900                           
  1901                           ;main.c: 482:     SPBRG = 12;
  1902  17F0  300C               	movlw	12
  1903  17F1  0099               	movwf	25	;volatile
  1904  17F2                     l1901:
  1905                           
  1906                           ;main.c: 484:     RCSTAbits.SPEN = 1;
  1907  17F2  1283               	bcf	3,5	;RP0=0, select bank0
  1908  17F3  1303               	bcf	3,6	;RP1=0, select bank0
  1909  17F4  1798               	bsf	24,7	;volatile
  1910  17F5                     l1903:
  1911                           
  1912                           ;main.c: 485:     RCSTAbits.RX9 = 0;
  1913  17F5  1318               	bcf	24,6	;volatile
  1914  17F6                     l1905:
  1915                           
  1916                           ;main.c: 487:     TXSTAbits.TXEN = 1;
  1917  17F6  1683               	bsf	3,5	;RP0=1, select bank1
  1918  17F7  1303               	bcf	3,6	;RP1=0, select bank1
  1919  17F8  1698               	bsf	24,5	;volatile
  1920  17F9                     l1907:
  1921                           
  1922                           ;main.c: 488:     RCSTAbits.CREN = 1;
  1923  17F9  1283               	bcf	3,5	;RP0=0, select bank0
  1924  17FA  1303               	bcf	3,6	;RP1=0, select bank0
  1925  17FB  1618               	bsf	24,4	;volatile
  1926  17FC                     l1909:
  1927                           
  1928                           ;main.c: 489:     PIE1bits.RCIE = 1;
  1929  17FC  1683               	bsf	3,5	;RP0=1, select bank1
  1930  17FD  1303               	bcf	3,6	;RP1=0, select bank1
  1931  17FE  168C               	bsf	12,5	;volatile
  1932  17FF                     l276:
  1933  17FF  0008               	return
  1934  1800                     __end_of_set_UART:
  1935                           
  1936                           	psect	text4
  1937  17B9                     __ptext4:	
  1938 ;; *************** function _set_SPI *****************
  1939 ;; Defined at:
  1940 ;;		line 493 in file "main.c"
  1941 ;; Parameters:    Size  Location     Type
  1942 ;;		None
  1943 ;; Auto vars:     Size  Location     Type
  1944 ;;		None
  1945 ;; Return value:  Size  Location     Type
  1946 ;;                  1    wreg      void 
  1947 ;; Registers used:
  1948 ;;		wreg, status,2, status,0
  1949 ;; Tracked objects:
  1950 ;;		On entry : 0/0
  1951 ;;		On exit  : 0/0
  1952 ;;		Unchanged: 0/0
  1953 ;; Data sizes:     COMMON   BANK0   BANK1   BANK3   BANK2
  1954 ;;      Params:         0       0       0       0       0
  1955 ;;      Locals:         0       0       0       0       0
  1956 ;;      Temps:          0       0       0       0       0
  1957 ;;      Totals:         0       0       0       0       0
  1958 ;;Total ram usage:        0 bytes
  1959 ;; Hardware stack levels used: 1
  1960 ;; Hardware stack levels required when called: 4
  1961 ;; This function calls:
  1962 ;;		Nothing
  1963 ;; This function is called by:
  1964 ;;		_setup
  1965 ;; This function uses a non-reentrant model
  1966 ;;
  1967                           
  1968  17B9                     _set_SPI:	
  1969                           ;psect for function _set_SPI
  1970                           
  1971  17B9                     l1877:	
  1972                           ;incstack = 0
  1973                           ; Regs used in _set_SPI: [wreg+status,2+status,0]
  1974                           
  1975                           
  1976                           ;main.c: 497:     TRISC = 0b10010000;
  1977  17B9  3090               	movlw	144
  1978  17BA  1683               	bsf	3,5	;RP0=1, select bank1
  1979  17BB  1303               	bcf	3,6	;RP1=0, select bank1
  1980  17BC  0087               	movwf	7	;volatile
  1981  17BD                     l1879:
  1982                           
  1983                           ;main.c: 498:     PORTC = 0;
  1984  17BD  1283               	bcf	3,5	;RP0=0, select bank0
  1985  17BE  1303               	bcf	3,6	;RP1=0, select bank0
  1986  17BF  0187               	clrf	7	;volatile
  1987  17C0                     l1881:
  1988                           
  1989                           ;main.c: 501:     SSPCONbits.SSPM = 0b0000;
  1990  17C0  30F0               	movlw	-16
  1991  17C1  0594               	andwf	20,f	;volatile
  1992  17C2                     l1883:
  1993                           
  1994                           ;main.c: 502:     SSPCONbits.CKP = 0;
  1995  17C2  1214               	bcf	20,4	;volatile
  1996  17C3                     l1885:
  1997                           
  1998                           ;main.c: 503:     SSPCONbits.SSPEN = 1;
  1999  17C3  1694               	bsf	20,5	;volatile
  2000  17C4                     l1887:
  2001                           
  2002                           ;main.c: 505:     SSPSTATbits.CKE = 1;
  2003  17C4  1683               	bsf	3,5	;RP0=1, select bank1
  2004  17C5  1303               	bcf	3,6	;RP1=0, select bank1
  2005  17C6  1714               	bsf	20,6	;volatile
  2006  17C7                     l1889:
  2007                           
  2008                           ;main.c: 506:     SSPSTATbits.SMP = 1;
  2009  17C7  1794               	bsf	20,7	;volatile
  2010  17C8                     l1891:
  2011                           
  2012                           ;main.c: 507:     SSPBUF = 0;
  2013  17C8  1283               	bcf	3,5	;RP0=0, select bank0
  2014  17C9  1303               	bcf	3,6	;RP1=0, select bank0
  2015  17CA  0193               	clrf	19	;volatile
  2016  17CB                     l279:
  2017  17CB  0008               	return
  2018  17CC                     __end_of_set_SPI:
  2019                           
  2020                           	psect	text5
  2021  07BC                     __ptext5:	
  2022 ;; *************** function _set_PWM *****************
  2023 ;; Defined at:
  2024 ;;		line 439 in file "main.c"
  2025 ;; Parameters:    Size  Location     Type
  2026 ;;		None
  2027 ;; Auto vars:     Size  Location     Type
  2028 ;;		None
  2029 ;; Return value:  Size  Location     Type
  2030 ;;                  1    wreg      void 
  2031 ;; Registers used:
  2032 ;;		wreg, status,2, status,0
  2033 ;; Tracked objects:
  2034 ;;		On entry : 0/0
  2035 ;;		On exit  : 0/0
  2036 ;;		Unchanged: 0/0
  2037 ;; Data sizes:     COMMON   BANK0   BANK1   BANK3   BANK2
  2038 ;;      Params:         0       0       0       0       0
  2039 ;;      Locals:         0       0       0       0       0
  2040 ;;      Temps:          0       0       0       0       0
  2041 ;;      Totals:         0       0       0       0       0
  2042 ;;Total ram usage:        0 bytes
  2043 ;; Hardware stack levels used: 1
  2044 ;; Hardware stack levels required when called: 4
  2045 ;; This function calls:
  2046 ;;		Nothing
  2047 ;; This function is called by:
  2048 ;;		_setup
  2049 ;; This function uses a non-reentrant model
  2050 ;;
  2051                           
  2052  07BC                     _set_PWM:	
  2053                           ;psect for function _set_PWM
  2054                           
  2055  07BC                     l1849:	
  2056                           ;incstack = 0
  2057                           ; Regs used in _set_PWM: [wreg+status,2+status,0]
  2058                           
  2059                           
  2060                           ;main.c: 441:     TRISCbits.TRISC2 = 1;
  2061  07BC  1683               	bsf	3,5	;RP0=1, select bank1
  2062  07BD  1303               	bcf	3,6	;RP1=0, select bank1
  2063  07BE  1507               	bsf	7,2	;volatile
  2064                           
  2065                           ;main.c: 442:     TRISCbits.TRISC1 = 1;
  2066  07BF  1487               	bsf	7,1	;volatile
  2067  07C0                     l1851:
  2068                           
  2069                           ;main.c: 443:     CCP1CON = 0;
  2070  07C0  1283               	bcf	3,5	;RP0=0, select bank0
  2071  07C1  1303               	bcf	3,6	;RP1=0, select bank0
  2072  07C2  0197               	clrf	23	;volatile
  2073                           
  2074                           ;main.c: 444:     CCP2CON = 0;
  2075  07C3  019D               	clrf	29	;volatile
  2076  07C4                     l1853:
  2077                           
  2078                           ;main.c: 445:     PR2 = 156;
  2079  07C4  309C               	movlw	156
  2080  07C5  1683               	bsf	3,5	;RP0=1, select bank1
  2081  07C6  1303               	bcf	3,6	;RP1=0, select bank1
  2082  07C7  0092               	movwf	18	;volatile
  2083  07C8                     l1855:
  2084                           
  2085                           ;main.c: 448:     CCP1CONbits.P1M = 0;
  2086  07C8  303F               	movlw	-193
  2087  07C9  1283               	bcf	3,5	;RP0=0, select bank0
  2088  07CA  1303               	bcf	3,6	;RP1=0, select bank0
  2089  07CB  0597               	andwf	23,f	;volatile
  2090  07CC                     l1857:
  2091                           
  2092                           ;main.c: 449:     CCP1CONbits.CCP1M = 0b1100;
  2093  07CC  0817               	movf	23,w	;volatile
  2094  07CD  39F0               	andlw	-16
  2095  07CE  380C               	iorlw	12
  2096  07CF  0097               	movwf	23	;volatile
  2097  07D0                     l1859:
  2098                           
  2099                           ;main.c: 450:     CCP2CONbits.CCP2M = 0b1100;
  2100  07D0  081D               	movf	29,w	;volatile
  2101  07D1  39F0               	andlw	-16
  2102  07D2  380C               	iorlw	12
  2103  07D3  009D               	movwf	29	;volatile
  2104  07D4                     l1861:
  2105                           
  2106                           ;main.c: 452:     CCPR1L = 47>>2;
  2107  07D4  300B               	movlw	11
  2108  07D5  0095               	movwf	21	;volatile
  2109  07D6                     l1863:
  2110                           
  2111                           ;main.c: 453:     CCP1CONbits.DC1B = 47 & 0b11;
  2112  07D6  3030               	movlw	48
  2113  07D7  0497               	iorwf	23,f	;volatile
  2114  07D8                     l1865:
  2115                           
  2116                           ;main.c: 456:     CCPR2L = 47>>2;
  2117  07D8  300B               	movlw	11
  2118  07D9  009B               	movwf	27	;volatile
  2119  07DA                     l1867:
  2120                           
  2121                           ;main.c: 459:     CCP2CONbits.DC2B0 = 47 & 1;
  2122  07DA  161D               	bsf	29,4	;volatile
  2123  07DB                     l1869:
  2124                           
  2125                           ;main.c: 460:     CCP2CONbits.DC2B1 = (47>> 1) & 1;
  2126  07DB  169D               	bsf	29,5	;volatile
  2127  07DC                     l1871:
  2128                           
  2129                           ;main.c: 463:     PIR1bits.TMR2IF = 0;
  2130  07DC  108C               	bcf	12,1	;volatile
  2131  07DD                     l1873:
  2132                           
  2133                           ;main.c: 464:     T2CONbits.T2CKPS = 0b11;
  2134  07DD  3003               	movlw	3
  2135  07DE  0492               	iorwf	18,f	;volatile
  2136  07DF                     l1875:
  2137                           
  2138                           ;main.c: 465:     T2CONbits.TMR2ON = 1;
  2139  07DF  1512               	bsf	18,2	;volatile
  2140  07E0                     l270:	
  2141                           ;main.c: 466:     while(!PIR1bits.TMR2IF);
  2142                           
  2143  07E0  1C8C               	btfss	12,1	;volatile
  2144  07E1  2FE3               	goto	u1921
  2145  07E2  2FE4               	goto	u1920
  2146  07E3                     u1921:
  2147  07E3  2FE0               	goto	l270
  2148  07E4                     u1920:
  2149  07E4                     l272:
  2150                           
  2151                           ;main.c: 467:     PIR1bits.TMR2IF = 0;
  2152  07E4  108C               	bcf	12,1	;volatile
  2153                           
  2154                           ;main.c: 469:     TRISCbits.TRISC2 = 0;
  2155  07E5  1683               	bsf	3,5	;RP0=1, select bank1
  2156  07E6  1303               	bcf	3,6	;RP1=0, select bank1
  2157  07E7  1107               	bcf	7,2	;volatile
  2158                           
  2159                           ;main.c: 470:     TRISCbits.TRISC1 = 0;
  2160  07E8  1087               	bcf	7,1	;volatile
  2161  07E9                     l273:	
  2162                           ;main.c: 472:     return;
  2163                           
  2164  07E9  0008               	return
  2165  07EA                     __end_of_set_PWM:
  2166                           
  2167                           	psect	text6
  2168  17CC                     __ptext6:	
  2169 ;; *************** function _set_ADC *****************
  2170 ;; Defined at:
  2171 ;;		line 426 in file "main.c"
  2172 ;; Parameters:    Size  Location     Type
  2173 ;;		None
  2174 ;; Auto vars:     Size  Location     Type
  2175 ;;		None
  2176 ;; Return value:  Size  Location     Type
  2177 ;;                  1    wreg      void 
  2178 ;; Registers used:
  2179 ;;		wreg, status,2, status,0
  2180 ;; Tracked objects:
  2181 ;;		On entry : 0/0
  2182 ;;		On exit  : 0/0
  2183 ;;		Unchanged: 0/0
  2184 ;; Data sizes:     COMMON   BANK0   BANK1   BANK3   BANK2
  2185 ;;      Params:         0       0       0       0       0
  2186 ;;      Locals:         0       0       0       0       0
  2187 ;;      Temps:          0       0       0       1       0
  2188 ;;      Totals:         0       0       0       1       0
  2189 ;;Total ram usage:        1 bytes
  2190 ;; Hardware stack levels used: 1
  2191 ;; Hardware stack levels required when called: 4
  2192 ;; This function calls:
  2193 ;;		Nothing
  2194 ;; This function is called by:
  2195 ;;		_setup
  2196 ;; This function uses a non-reentrant model
  2197 ;;
  2198                           
  2199  17CC                     _set_ADC:	
  2200                           ;psect for function _set_ADC
  2201                           
  2202  17CC                     l2771:	
  2203                           ;incstack = 0
  2204                           ; Regs used in _set_ADC: [wreg+status,2+status,0]
  2205                           
  2206                           
  2207                           ;main.c: 428:     ADCON0bits.ADCS = 0b11;
  2208  17CC  30C0               	movlw	192
  2209  17CD  1283               	bcf	3,5	;RP0=0, select bank0
  2210  17CE  1303               	bcf	3,6	;RP1=0, select bank0
  2211  17CF  049F               	iorwf	31,f	;volatile
  2212  17D0                     l2773:
  2213                           
  2214                           ;main.c: 429:     ADCON1bits.VCFG0 = 0;
  2215  17D0  1683               	bsf	3,5	;RP0=1, select bank1
  2216  17D1  1303               	bcf	3,6	;RP1=0, select bank1
  2217  17D2  121F               	bcf	31,4	;volatile
  2218  17D3                     l2775:
  2219                           
  2220                           ;main.c: 430:     ADCON1bits.VCFG1 = 0;
  2221  17D3  129F               	bcf	31,5	;volatile
  2222                           
  2223                           ;main.c: 431:     ADCON0bits.CHS = 0;
  2224  17D4  30C3               	movlw	-61
  2225  17D5  1283               	bcf	3,5	;RP0=0, select bank0
  2226  17D6  1303               	bcf	3,6	;RP1=0, select bank0
  2227  17D7  059F               	andwf	31,f	;volatile
  2228  17D8                     l2777:
  2229                           
  2230                           ;main.c: 432:     ADCON1bits.ADFM = 0;
  2231  17D8  1683               	bsf	3,5	;RP0=1, select bank1
  2232  17D9  1303               	bcf	3,6	;RP1=0, select bank1
  2233  17DA  139F               	bcf	31,7	;volatile
  2234  17DB                     l2779:
  2235                           
  2236                           ;main.c: 433:     ADCON0bits.ADON = 1;
  2237  17DB  1283               	bcf	3,5	;RP0=0, select bank0
  2238  17DC  1303               	bcf	3,6	;RP1=0, select bank0
  2239  17DD  141F               	bsf	31,0	;volatile
  2240  17DE                     l2781:
  2241                           
  2242                           ;main.c: 434:     _delay((unsigned long)((420)*(500000/4000000.0)));
  2243  17DE  3010               	movlw	16
  2244  17DF  1683               	bsf	3,5	;RP0=1, select bank3
  2245  17E0  1703               	bsf	3,6	;RP1=1, select bank3
  2246  17E1  0090               	movwf	??_set_ADC^(0+384)
  2247  17E2                     u4077:
  2248  17E2  0B90               	decfsz	??_set_ADC^(0+384),f
  2249  17E3  2FE2               	goto	u4077
  2250  17E4  0000               	nop
  2251  17E5                     l267:
  2252  17E5  0008               	return
  2253  17E6                     __end_of_set_ADC:
  2254                           
  2255                           	psect	text7
  2256  17AA                     __ptext7:	
  2257 ;; *************** function _read_EEPROM *****************
  2258 ;; Defined at:
  2259 ;;		line 345 in file "main.c"
  2260 ;; Parameters:    Size  Location     Type
  2261 ;;  address         1    wreg     unsigned char 
  2262 ;; Auto vars:     Size  Location     Type
  2263 ;;  address         1    0[BANK3 ] unsigned char 
  2264 ;; Return value:  Size  Location     Type
  2265 ;;                  1    wreg      unsigned char 
  2266 ;; Registers used:
  2267 ;;		wreg
  2268 ;; Tracked objects:
  2269 ;;		On entry : 0/0
  2270 ;;		On exit  : 0/0
  2271 ;;		Unchanged: 0/0
  2272 ;; Data sizes:     COMMON   BANK0   BANK1   BANK3   BANK2
  2273 ;;      Params:         0       0       0       0       0
  2274 ;;      Locals:         0       0       0       1       0
  2275 ;;      Temps:          0       0       0       0       0
  2276 ;;      Totals:         0       0       0       1       0
  2277 ;;Total ram usage:        1 bytes
  2278 ;; Hardware stack levels used: 1
  2279 ;; Hardware stack levels required when called: 4
  2280 ;; This function calls:
  2281 ;;		Nothing
  2282 ;; This function is called by:
  2283 ;;		_main
  2284 ;; This function uses a non-reentrant model
  2285 ;;
  2286                           
  2287  17AA                     _read_EEPROM:	
  2288                           ;psect for function _read_EEPROM
  2289                           
  2290                           
  2291                           ;incstack = 0
  2292                           ; Regs used in _read_EEPROM: [wreg]
  2293                           ;read_EEPROM@address stored from wreg
  2294  17AA  1683               	bsf	3,5	;RP0=1, select bank3
  2295  17AB  1703               	bsf	3,6	;RP1=1, select bank3
  2296  17AC  0090               	movwf	read_EEPROM@address^(0+384)
  2297  17AD                     l2851:
  2298                           
  2299                           ;main.c: 346:     EEADR = address;
  2300  17AD  0810               	movf	read_EEPROM@address^(0+384),w
  2301  17AE  1283               	bcf	3,5	;RP0=0, select bank2
  2302  17AF  1703               	bsf	3,6	;RP1=1, select bank2
  2303  17B0  008D               	movwf	13	;volatile
  2304  17B1                     l2853:
  2305                           
  2306                           ;main.c: 347:     EECON1bits.EEPGD = 0;
  2307  17B1  1683               	bsf	3,5	;RP0=1, select bank3
  2308  17B2  1703               	bsf	3,6	;RP1=1, select bank3
  2309  17B3  138C               	bcf	12,7	;volsfr
  2310  17B4                     l2855:
  2311                           
  2312                           ;main.c: 348:     EECON1bits.RD = 1;
  2313  17B4  140C               	bsf	12,0	;volsfr
  2314  17B5                     l2857:
  2315                           
  2316                           ;main.c: 349:     _delay((unsigned long)((1)*(500000/4000000.0)));
  2317                           ;main.c: 350:     return EEDAT;
  2318  17B5  1283               	bcf	3,5	;RP0=0, select bank2
  2319  17B6  1703               	bsf	3,6	;RP1=1, select bank2
  2320  17B7  080C               	movf	12,w	;volatile
  2321  17B8                     l255:
  2322  17B8  0008               	return
  2323  17B9                     __end_of_read_EEPROM:
  2324                           
  2325                           	psect	text8
  2326  038F                     __ptext8:	
  2327 ;; *************** function _isr *****************
  2328 ;; Defined at:
  2329 ;;		line 100 in file "main.c"
  2330 ;; Parameters:    Size  Location     Type
  2331 ;;		None
  2332 ;; Auto vars:     Size  Location     Type
  2333 ;;		None
  2334 ;; Return value:  Size  Location     Type
  2335 ;;                  1    wreg      void 
  2336 ;; Registers used:
  2337 ;;		wreg, status,2, status,0, btemp+1, pclath, cstack
  2338 ;; Tracked objects:
  2339 ;;		On entry : 0/0
  2340 ;;		On exit  : 0/0
  2341 ;;		Unchanged: 0/0
  2342 ;; Data sizes:     COMMON   BANK0   BANK1   BANK3   BANK2
  2343 ;;      Params:         0       0       0       0       0
  2344 ;;      Locals:         0       0       0       0       0
  2345 ;;      Temps:          0       0       6       0       0
  2346 ;;      Totals:         0       0       6       0       0
  2347 ;;Total ram usage:        6 bytes
  2348 ;; Hardware stack levels used: 1
  2349 ;; Hardware stack levels required when called: 3
  2350 ;; This function calls:
  2351 ;;		_map
  2352 ;; This function is called by:
  2353 ;;		Interrupt level 1
  2354 ;; This function uses a non-reentrant model
  2355 ;;
  2356                           
  2357  038F                     _isr:	
  2358                           ;psect for function _isr
  2359                           
  2360  038F                     i1l2549:
  2361                           
  2362                           ;main.c: 102:     if(PIR1bits.RCIF){
  2363  038F  1283               	bcf	3,5	;RP0=0, select bank0
  2364  0390  1303               	bcf	3,6	;RP1=0, select bank0
  2365  0391  1E8C               	btfss	12,5	;volatile
  2366  0392  2B94               	goto	u330_21
  2367  0393  2B95               	goto	u330_20
  2368  0394                     u330_21:
  2369  0394  2BA3               	goto	i1l2553
  2370  0395                     u330_20:
  2371  0395                     i1l2551:
  2372                           
  2373                           ;main.c: 103:         mensaje[6] = RCREG;
  2374  0395  081A               	movf	26,w	;volatile
  2375  0396  1683               	bsf	3,5	;RP0=1, select bank1
  2376  0397  1303               	bcf	3,6	;RP1=0, select bank1
  2377  0398  00CC               	movwf	??_isr^(0+128)
  2378  0399  084C               	movf	??_isr^(0+128),w
  2379  039A  00D8               	movwf	(_mensaje^(0+128)+6)
  2380                           
  2381                           ;main.c: 104:         val_terminal = RCREG;
  2382  039B  1283               	bcf	3,5	;RP0=0, select bank0
  2383  039C  1303               	bcf	3,6	;RP1=0, select bank0
  2384  039D  081A               	movf	26,w	;volatile
  2385  039E  1683               	bsf	3,5	;RP0=1, select bank1
  2386  039F  1303               	bcf	3,6	;RP1=0, select bank1
  2387  03A0  00CC               	movwf	??_isr^(0+128)
  2388  03A1  084C               	movf	??_isr^(0+128),w
  2389  03A2  00B7               	movwf	_val_terminal^(0+128)
  2390  03A3                     i1l2553:
  2391                           
  2392                           ;main.c: 108:     if (PIR1bits.ADIF){
  2393  03A3  1283               	bcf	3,5	;RP0=0, select bank0
  2394  03A4  1F0C               	btfss	12,6	;volatile
  2395  03A5  2BA7               	goto	u331_21
  2396  03A6  2BA8               	goto	u331_20
  2397  03A7                     u331_21:
  2398  03A7  2DEB               	goto	i1l2635
  2399  03A8                     u331_20:
  2400  03A8                     i1l2555:
  2401                           
  2402                           ;main.c: 109:         if (ADCON0bits.CHS == 0){
  2403  03A8  0C1F               	rrf	31,w	;volatile
  2404  03A9  1683               	bsf	3,5	;RP0=1, select bank1
  2405  03AA  1303               	bcf	3,6	;RP1=0, select bank1
  2406  03AB  00CC               	movwf	??_isr^(0+128)
  2407  03AC  0C4C               	rrf	??_isr^(0+128),w
  2408  03AD  390F               	andlw	15
  2409  03AE  3A00               	xorlw	0
  2410  03AF  1D03               	skipz
  2411  03B0  2BB2               	goto	u332_21
  2412  03B1  2BB3               	goto	u332_20
  2413  03B2                     u332_21:
  2414  03B2  2C54               	goto	i1l2577
  2415  03B3                     u332_20:
  2416  03B3                     i1l2557:
  2417                           
  2418                           ;main.c: 110:             if(modo == 0){
  2419  03B3  0834               	movf	_modo^(0+128),w
  2420  03B4  0435               	iorwf	(_modo+1)^(0+128),w
  2421  03B5  1D03               	btfss	3,2
  2422  03B6  2BB8               	goto	u333_21
  2423  03B7  2BB9               	goto	u333_20
  2424  03B8                     u333_21:
  2425  03B8  2BDB               	goto	i1l2563
  2426  03B9                     u333_20:
  2427  03B9                     i1l2559:
  2428                           
  2429                           ;main.c: 111:                 servo1 = ADRESH;
  2430  03B9  1283               	bcf	3,5	;RP0=0, select bank0
  2431  03BA  1303               	bcf	3,6	;RP1=0, select bank0
  2432  03BB  081E               	movf	30,w	;volatile
  2433  03BC  1683               	bsf	3,5	;RP0=1, select bank1
  2434  03BD  1303               	bcf	3,6	;RP1=0, select bank1
  2435  03BE  00CC               	movwf	??_isr^(0+128)
  2436  03BF  084C               	movf	??_isr^(0+128),w
  2437  03C0  00C0               	movwf	_servo1^(0+128)
  2438  03C1                     i1l2561:
  2439                           
  2440                           ;main.c: 113:                 CCPR_S1 = map(servo1, 0, 255, 15, 75);
  2441  03C1  01C6               	clrf	map@x0^(0+128)
  2442  03C2  30FF               	movlw	255
  2443  03C3  00CC               	movwf	??_isr^(0+128)
  2444  03C4  084C               	movf	??_isr^(0+128),w
  2445  03C5  00C7               	movwf	map@x1^(0+128)
  2446  03C6  300F               	movlw	15
  2447  03C7  00C8               	movwf	map@y0^(0+128)
  2448  03C8  3000               	movlw	0
  2449  03C9  00C9               	movwf	(map@y0^(0+128)+1)
  2450  03CA  304B               	movlw	75
  2451  03CB  00CA               	movwf	map@y1^(0+128)
  2452  03CC  3000               	movlw	0
  2453  03CD  00CB               	movwf	(map@y1^(0+128)+1)
  2454  03CE  0840               	movf	_servo1^(0+128),w
  2455  03CF  120A  118A  270A  120A  118A  	fcall	_map
  2456  03D4  1683               	bsf	3,5	;RP0=1, select bank1
  2457  03D5  1303               	bcf	3,6	;RP1=0, select bank1
  2458  03D6  0847               	movf	(?_map+1)^(0+128),w
  2459  03D7  00AB               	movwf	(_CCPR_S1+1)^(0+128)
  2460  03D8  0846               	movf	?_map^(0+128),w
  2461  03D9  00AA               	movwf	_CCPR_S1^(0+128)
  2462                           
  2463                           ;main.c: 114:             }
  2464  03DA  2C1B               	goto	i1l2571
  2465  03DB                     i1l2563:
  2466  03DB  0334               	decf	_modo^(0+128),w
  2467  03DC  0435               	iorwf	(_modo+1)^(0+128),w
  2468  03DD  1D03               	btfss	3,2
  2469  03DE  2BE0               	goto	u334_21
  2470  03DF  2BE1               	goto	u334_20
  2471  03E0                     u334_21:
  2472  03E0  2BFB               	goto	i1l2567
  2473  03E1                     u334_20:
  2474  03E1                     i1l2565:
  2475                           
  2476                           ;main.c: 117:                 CCPR_S1 = map(servo1, 0, 255, 15, 75);
  2477  03E1  01C6               	clrf	map@x0^(0+128)
  2478  03E2  30FF               	movlw	255
  2479  03E3  00CC               	movwf	??_isr^(0+128)
  2480  03E4  084C               	movf	??_isr^(0+128),w
  2481  03E5  00C7               	movwf	map@x1^(0+128)
  2482  03E6  300F               	movlw	15
  2483  03E7  00C8               	movwf	map@y0^(0+128)
  2484  03E8  3000               	movlw	0
  2485  03E9  00C9               	movwf	(map@y0^(0+128)+1)
  2486  03EA  304B               	movlw	75
  2487  03EB  00CA               	movwf	map@y1^(0+128)
  2488  03EC  3000               	movlw	0
  2489  03ED  00CB               	movwf	(map@y1^(0+128)+1)
  2490  03EE  0840               	movf	_servo1^(0+128),w
  2491  03EF  120A  118A  270A  120A  118A  	fcall	_map
  2492  03F4  1683               	bsf	3,5	;RP0=1, select bank1
  2493  03F5  1303               	bcf	3,6	;RP1=0, select bank1
  2494  03F6  0847               	movf	(?_map+1)^(0+128),w
  2495  03F7  00AB               	movwf	(_CCPR_S1+1)^(0+128)
  2496  03F8  0846               	movf	?_map^(0+128),w
  2497  03F9  00AA               	movwf	_CCPR_S1^(0+128)
  2498                           
  2499                           ;main.c: 118:             }
  2500  03FA  2C1B               	goto	i1l2571
  2501  03FB                     i1l2567:
  2502  03FB  3002               	movlw	2
  2503  03FC  0634               	xorwf	_modo^(0+128),w
  2504  03FD  0435               	iorwf	(_modo+1)^(0+128),w
  2505  03FE  1D03               	btfss	3,2
  2506  03FF  2C01               	goto	u335_21
  2507  0400  2C02               	goto	u335_20
  2508  0401                     u335_21:
  2509  0401  2C1B               	goto	i1l2571
  2510  0402                     u335_20:
  2511  0402                     i1l2569:
  2512                           
  2513                           ;main.c: 121:                 CCPR_S1 = map(servo11, 0, 31, 15, 75);
  2514  0402  01C6               	clrf	map@x0^(0+128)
  2515  0403  301F               	movlw	31
  2516  0404  00CC               	movwf	??_isr^(0+128)
  2517  0405  084C               	movf	??_isr^(0+128),w
  2518  0406  00C7               	movwf	map@x1^(0+128)
  2519  0407  300F               	movlw	15
  2520  0408  00C8               	movwf	map@y0^(0+128)
  2521  0409  3000               	movlw	0
  2522  040A  00C9               	movwf	(map@y0^(0+128)+1)
  2523  040B  304B               	movlw	75
  2524  040C  00CA               	movwf	map@y1^(0+128)
  2525  040D  3000               	movlw	0
  2526  040E  00CB               	movwf	(map@y1^(0+128)+1)
  2527  040F  083C               	movf	_servo11^(0+128),w
  2528  0410  120A  118A  270A  120A  118A  	fcall	_map
  2529  0415  1683               	bsf	3,5	;RP0=1, select bank1
  2530  0416  1303               	bcf	3,6	;RP1=0, select bank1
  2531  0417  0847               	movf	(?_map+1)^(0+128),w
  2532  0418  00AB               	movwf	(_CCPR_S1+1)^(0+128)
  2533  0419  0846               	movf	?_map^(0+128),w
  2534  041A  00AA               	movwf	_CCPR_S1^(0+128)
  2535  041B                     i1l2571:
  2536                           
  2537                           ;main.c: 124:             CCPR2L = (uint8_t)(CCPR_S1>>2);
  2538  041B  082B               	movf	(_CCPR_S1+1)^(0+128),w
  2539  041C  00CD               	movwf	(??_isr^(0+128)+1)
  2540  041D  082A               	movf	_CCPR_S1^(0+128),w
  2541  041E  00CC               	movwf	??_isr^(0+128)
  2542  041F  1003               	clrc
  2543  0420  0CCD               	rrf	(??_isr^(0+128)+1),f
  2544  0421  0CCC               	rrf	??_isr^(0+128),f
  2545  0422  1003               	clrc
  2546  0423  0CCD               	rrf	(??_isr^(0+128)+1),f
  2547  0424  0CCC               	rrf	??_isr^(0+128),f
  2548  0425  084C               	movf	??_isr^(0+128),w
  2549  0426  1283               	bcf	3,5	;RP0=0, select bank0
  2550  0427  1303               	bcf	3,6	;RP1=0, select bank0
  2551  0428  009B               	movwf	27	;volatile
  2552  0429                     i1l2573:
  2553                           
  2554                           ;main.c: 127:             CCP2CONbits.DC2B0 = CCPR_S1 & 1;
  2555  0429  1683               	bsf	3,5	;RP0=1, select bank1
  2556  042A  1303               	bcf	3,6	;RP1=0, select bank1
  2557  042B  082A               	movf	_CCPR_S1^(0+128),w
  2558  042C  3901               	andlw	1
  2559  042D  00CC               	movwf	??_isr^(0+128)
  2560  042E  0ECC               	swapf	??_isr^(0+128),f
  2561  042F  1283               	bcf	3,5	;RP0=0, select bank0
  2562  0430  1303               	bcf	3,6	;RP1=0, select bank0
  2563  0431  081D               	movf	29,w	;volatile
  2564  0432  1683               	bsf	3,5	;RP0=1, select bank1
  2565  0433  1303               	bcf	3,6	;RP1=0, select bank1
  2566  0434  064C               	xorwf	??_isr^(0+128),w
  2567  0435  39EF               	andlw	-17
  2568  0436  064C               	xorwf	??_isr^(0+128),w
  2569  0437  1283               	bcf	3,5	;RP0=0, select bank0
  2570  0438  1303               	bcf	3,6	;RP1=0, select bank0
  2571  0439  009D               	movwf	29	;volatile
  2572  043A                     i1l2575:
  2573                           
  2574                           ;main.c: 128:             CCP2CONbits.DC2B1 = (CCPR_S1 >> 1) & 1;
  2575  043A  1683               	bsf	3,5	;RP0=1, select bank1
  2576  043B  1303               	bcf	3,6	;RP1=0, select bank1
  2577  043C  082B               	movf	(_CCPR_S1+1)^(0+128),w
  2578  043D  00CD               	movwf	(??_isr^(0+128)+1)
  2579  043E  082A               	movf	_CCPR_S1^(0+128),w
  2580  043F  00CC               	movwf	??_isr^(0+128)
  2581  0440  1003               	clrc
  2582  0441  0CCD               	rrf	(??_isr^(0+128)+1),f
  2583  0442  0CCC               	rrf	??_isr^(0+128),f
  2584  0443  084C               	movf	??_isr^(0+128),w
  2585  0444  3901               	andlw	1
  2586  0445  00CE               	movwf	(??_isr+2)^(0+128)
  2587  0446  0ECE               	swapf	(??_isr+2)^(0+128),f
  2588  0447  0DCE               	rlf	(??_isr+2)^(0+128),f
  2589  0448  1283               	bcf	3,5	;RP0=0, select bank0
  2590  0449  1303               	bcf	3,6	;RP1=0, select bank0
  2591  044A  081D               	movf	29,w	;volatile
  2592  044B  1683               	bsf	3,5	;RP0=1, select bank1
  2593  044C  1303               	bcf	3,6	;RP1=0, select bank1
  2594  044D  064E               	xorwf	(??_isr+2)^(0+128),w
  2595  044E  39DF               	andlw	-33
  2596  044F  064E               	xorwf	(??_isr+2)^(0+128),w
  2597  0450  1283               	bcf	3,5	;RP0=0, select bank0
  2598  0451  1303               	bcf	3,6	;RP1=0, select bank0
  2599  0452  009D               	movwf	29	;volatile
  2600                           
  2601                           ;main.c: 129:         }
  2602  0453  2DE9               	goto	i1l2633
  2603  0454                     i1l2577:
  2604  0454  1283               	bcf	3,5	;RP0=0, select bank0
  2605  0455  1303               	bcf	3,6	;RP1=0, select bank0
  2606  0456  0C1F               	rrf	31,w	;volatile
  2607  0457  1683               	bsf	3,5	;RP0=1, select bank1
  2608  0458  1303               	bcf	3,6	;RP1=0, select bank1
  2609  0459  00CC               	movwf	??_isr^(0+128)
  2610  045A  0C4C               	rrf	??_isr^(0+128),w
  2611  045B  390F               	andlw	15
  2612  045C  3A01               	xorlw	1
  2613  045D  1D03               	skipz
  2614  045E  2C60               	goto	u336_21
  2615  045F  2C61               	goto	u336_20
  2616  0460                     u336_21:
  2617  0460  2CE9               	goto	i1l2597
  2618  0461                     u336_20:
  2619  0461                     i1l2579:
  2620                           
  2621                           ;main.c: 131:             if(modo == 0){
  2622  0461  0834               	movf	_modo^(0+128),w
  2623  0462  0435               	iorwf	(_modo+1)^(0+128),w
  2624  0463  1D03               	btfss	3,2
  2625  0464  2C66               	goto	u337_21
  2626  0465  2C67               	goto	u337_20
  2627  0466                     u337_21:
  2628  0466  2C89               	goto	i1l2585
  2629  0467                     u337_20:
  2630  0467                     i1l2581:
  2631                           
  2632                           ;main.c: 132:                 servo2 = ADRESH;
  2633  0467  1283               	bcf	3,5	;RP0=0, select bank0
  2634  0468  1303               	bcf	3,6	;RP1=0, select bank0
  2635  0469  081E               	movf	30,w	;volatile
  2636  046A  1683               	bsf	3,5	;RP0=1, select bank1
  2637  046B  1303               	bcf	3,6	;RP1=0, select bank1
  2638  046C  00CC               	movwf	??_isr^(0+128)
  2639  046D  084C               	movf	??_isr^(0+128),w
  2640  046E  00BF               	movwf	_servo2^(0+128)
  2641  046F                     i1l2583:
  2642                           
  2643                           ;main.c: 134:                 CCPR_S2 = map(servo2, 0, 255, 15, 75);
  2644  046F  01C6               	clrf	map@x0^(0+128)
  2645  0470  30FF               	movlw	255
  2646  0471  00CC               	movwf	??_isr^(0+128)
  2647  0472  084C               	movf	??_isr^(0+128),w
  2648  0473  00C7               	movwf	map@x1^(0+128)
  2649  0474  300F               	movlw	15
  2650  0475  00C8               	movwf	map@y0^(0+128)
  2651  0476  3000               	movlw	0
  2652  0477  00C9               	movwf	(map@y0^(0+128)+1)
  2653  0478  304B               	movlw	75
  2654  0479  00CA               	movwf	map@y1^(0+128)
  2655  047A  3000               	movlw	0
  2656  047B  00CB               	movwf	(map@y1^(0+128)+1)
  2657  047C  083F               	movf	_servo2^(0+128),w
  2658  047D  120A  118A  270A  120A  118A  	fcall	_map
  2659  0482  1683               	bsf	3,5	;RP0=1, select bank1
  2660  0483  1303               	bcf	3,6	;RP1=0, select bank1
  2661  0484  0847               	movf	(?_map+1)^(0+128),w
  2662  0485  00A9               	movwf	(_CCPR_S2+1)^(0+128)
  2663  0486  0846               	movf	?_map^(0+128),w
  2664  0487  00A8               	movwf	_CCPR_S2^(0+128)
  2665                           
  2666                           ;main.c: 135:             }
  2667  0488  2CC9               	goto	i1l2593
  2668  0489                     i1l2585:
  2669  0489  0334               	decf	_modo^(0+128),w
  2670  048A  0435               	iorwf	(_modo+1)^(0+128),w
  2671  048B  1D03               	btfss	3,2
  2672  048C  2C8E               	goto	u338_21
  2673  048D  2C8F               	goto	u338_20
  2674  048E                     u338_21:
  2675  048E  2CA9               	goto	i1l2589
  2676  048F                     u338_20:
  2677  048F                     i1l2587:
  2678                           
  2679                           ;main.c: 138:                 CCPR_S2 = map(servo2, 0, 255, 15, 75);
  2680  048F  01C6               	clrf	map@x0^(0+128)
  2681  0490  30FF               	movlw	255
  2682  0491  00CC               	movwf	??_isr^(0+128)
  2683  0492  084C               	movf	??_isr^(0+128),w
  2684  0493  00C7               	movwf	map@x1^(0+128)
  2685  0494  300F               	movlw	15
  2686  0495  00C8               	movwf	map@y0^(0+128)
  2687  0496  3000               	movlw	0
  2688  0497  00C9               	movwf	(map@y0^(0+128)+1)
  2689  0498  304B               	movlw	75
  2690  0499  00CA               	movwf	map@y1^(0+128)
  2691  049A  3000               	movlw	0
  2692  049B  00CB               	movwf	(map@y1^(0+128)+1)
  2693  049C  083F               	movf	_servo2^(0+128),w
  2694  049D  120A  118A  270A  120A  118A  	fcall	_map
  2695  04A2  1683               	bsf	3,5	;RP0=1, select bank1
  2696  04A3  1303               	bcf	3,6	;RP1=0, select bank1
  2697  04A4  0847               	movf	(?_map+1)^(0+128),w
  2698  04A5  00A9               	movwf	(_CCPR_S2+1)^(0+128)
  2699  04A6  0846               	movf	?_map^(0+128),w
  2700  04A7  00A8               	movwf	_CCPR_S2^(0+128)
  2701                           
  2702                           ;main.c: 139:             }
  2703  04A8  2CC9               	goto	i1l2593
  2704  04A9                     i1l2589:
  2705  04A9  3002               	movlw	2
  2706  04AA  0634               	xorwf	_modo^(0+128),w
  2707  04AB  0435               	iorwf	(_modo+1)^(0+128),w
  2708  04AC  1D03               	btfss	3,2
  2709  04AD  2CAF               	goto	u339_21
  2710  04AE  2CB0               	goto	u339_20
  2711  04AF                     u339_21:
  2712  04AF  2CC9               	goto	i1l2593
  2713  04B0                     u339_20:
  2714  04B0                     i1l2591:
  2715                           
  2716                           ;main.c: 142:                 CCPR_S2 = map(servo22, 0, 31, 15, 75);
  2717  04B0  01C6               	clrf	map@x0^(0+128)
  2718  04B1  301F               	movlw	31
  2719  04B2  00CC               	movwf	??_isr^(0+128)
  2720  04B3  084C               	movf	??_isr^(0+128),w
  2721  04B4  00C7               	movwf	map@x1^(0+128)
  2722  04B5  300F               	movlw	15
  2723  04B6  00C8               	movwf	map@y0^(0+128)
  2724  04B7  3000               	movlw	0
  2725  04B8  00C9               	movwf	(map@y0^(0+128)+1)
  2726  04B9  304B               	movlw	75
  2727  04BA  00CA               	movwf	map@y1^(0+128)
  2728  04BB  3000               	movlw	0
  2729  04BC  00CB               	movwf	(map@y1^(0+128)+1)
  2730  04BD  083B               	movf	_servo22^(0+128),w
  2731  04BE  120A  118A  270A  120A  118A  	fcall	_map
  2732  04C3  1683               	bsf	3,5	;RP0=1, select bank1
  2733  04C4  1303               	bcf	3,6	;RP1=0, select bank1
  2734  04C5  0847               	movf	(?_map+1)^(0+128),w
  2735  04C6  00A9               	movwf	(_CCPR_S2+1)^(0+128)
  2736  04C7  0846               	movf	?_map^(0+128),w
  2737  04C8  00A8               	movwf	_CCPR_S2^(0+128)
  2738  04C9                     i1l2593:
  2739                           
  2740                           ;main.c: 146:             CCPR1L = (uint8_t)(CCPR_S2>>2);
  2741  04C9  0829               	movf	(_CCPR_S2+1)^(0+128),w
  2742  04CA  00CD               	movwf	(??_isr^(0+128)+1)
  2743  04CB  0828               	movf	_CCPR_S2^(0+128),w
  2744  04CC  00CC               	movwf	??_isr^(0+128)
  2745  04CD  1003               	clrc
  2746  04CE  0CCD               	rrf	(??_isr^(0+128)+1),f
  2747  04CF  0CCC               	rrf	??_isr^(0+128),f
  2748  04D0  1003               	clrc
  2749  04D1  0CCD               	rrf	(??_isr^(0+128)+1),f
  2750  04D2  0CCC               	rrf	??_isr^(0+128),f
  2751  04D3  084C               	movf	??_isr^(0+128),w
  2752  04D4  1283               	bcf	3,5	;RP0=0, select bank0
  2753  04D5  1303               	bcf	3,6	;RP1=0, select bank0
  2754  04D6  0095               	movwf	21	;volatile
  2755  04D7                     i1l2595:
  2756                           
  2757                           ;main.c: 148:             CCP1CONbits.DC1B = CCPR_S2 & 0b11;
  2758  04D7  1683               	bsf	3,5	;RP0=1, select bank1
  2759  04D8  1303               	bcf	3,6	;RP1=0, select bank1
  2760  04D9  0828               	movf	_CCPR_S2^(0+128),w
  2761  04DA  3903               	andlw	3
  2762  04DB  00CC               	movwf	??_isr^(0+128)
  2763  04DC  0ECC               	swapf	??_isr^(0+128),f
  2764  04DD  1283               	bcf	3,5	;RP0=0, select bank0
  2765  04DE  1303               	bcf	3,6	;RP1=0, select bank0
  2766  04DF  0817               	movf	23,w	;volatile
  2767  04E0  1683               	bsf	3,5	;RP0=1, select bank1
  2768  04E1  1303               	bcf	3,6	;RP1=0, select bank1
  2769  04E2  064C               	xorwf	??_isr^(0+128),w
  2770  04E3  39CF               	andlw	-49
  2771  04E4  064C               	xorwf	??_isr^(0+128),w
  2772  04E5  1283               	bcf	3,5	;RP0=0, select bank0
  2773  04E6  1303               	bcf	3,6	;RP1=0, select bank0
  2774  04E7  0097               	movwf	23	;volatile
  2775                           
  2776                           ;main.c: 149:         }
  2777  04E8  2DE9               	goto	i1l2633
  2778  04E9                     i1l2597:
  2779  04E9  1283               	bcf	3,5	;RP0=0, select bank0
  2780  04EA  1303               	bcf	3,6	;RP1=0, select bank0
  2781  04EB  0C1F               	rrf	31,w	;volatile
  2782  04EC  1683               	bsf	3,5	;RP0=1, select bank1
  2783  04ED  1303               	bcf	3,6	;RP1=0, select bank1
  2784  04EE  00CC               	movwf	??_isr^(0+128)
  2785  04EF  0C4C               	rrf	??_isr^(0+128),w
  2786  04F0  390F               	andlw	15
  2787  04F1  3A02               	xorlw	2
  2788  04F2  1D03               	skipz
  2789  04F3  2CF5               	goto	u340_21
  2790  04F4  2CF6               	goto	u340_20
  2791  04F5                     u340_21:
  2792  04F5  2D65               	goto	i1l2615
  2793  04F6                     u340_20:
  2794  04F6                     i1l2599:
  2795                           
  2796                           ;main.c: 151:             if(modo == 0){
  2797  04F6  0834               	movf	_modo^(0+128),w
  2798  04F7  0435               	iorwf	(_modo+1)^(0+128),w
  2799  04F8  1D03               	btfss	3,2
  2800  04F9  2CFB               	goto	u341_21
  2801  04FA  2CFC               	goto	u341_20
  2802  04FB                     u341_21:
  2803  04FB  2D1E               	goto	i1l2605
  2804  04FC                     u341_20:
  2805  04FC                     i1l2601:
  2806                           
  2807                           ;main.c: 152:                 servo3 = ADRESH;
  2808  04FC  1283               	bcf	3,5	;RP0=0, select bank0
  2809  04FD  1303               	bcf	3,6	;RP1=0, select bank0
  2810  04FE  081E               	movf	30,w	;volatile
  2811  04FF  1683               	bsf	3,5	;RP0=1, select bank1
  2812  0500  1303               	bcf	3,6	;RP1=0, select bank1
  2813  0501  00CC               	movwf	??_isr^(0+128)
  2814  0502  084C               	movf	??_isr^(0+128),w
  2815  0503  00BE               	movwf	_servo3^(0+128)
  2816  0504                     i1l2603:
  2817                           
  2818                           ;main.c: 154:                 CCPR_S3 = map(servo3, 0, 255, 15, 75);
  2819  0504  01C6               	clrf	map@x0^(0+128)
  2820  0505  30FF               	movlw	255
  2821  0506  00CC               	movwf	??_isr^(0+128)
  2822  0507  084C               	movf	??_isr^(0+128),w
  2823  0508  00C7               	movwf	map@x1^(0+128)
  2824  0509  300F               	movlw	15
  2825  050A  00C8               	movwf	map@y0^(0+128)
  2826  050B  3000               	movlw	0
  2827  050C  00C9               	movwf	(map@y0^(0+128)+1)
  2828  050D  304B               	movlw	75
  2829  050E  00CA               	movwf	map@y1^(0+128)
  2830  050F  3000               	movlw	0
  2831  0510  00CB               	movwf	(map@y1^(0+128)+1)
  2832  0511  083E               	movf	_servo3^(0+128),w
  2833  0512  120A  118A  270A  120A  118A  	fcall	_map
  2834  0517  1683               	bsf	3,5	;RP0=1, select bank1
  2835  0518  1303               	bcf	3,6	;RP1=0, select bank1
  2836  0519  0847               	movf	(?_map+1)^(0+128),w
  2837  051A  00DE               	movwf	(_CCPR_S3+1)^(0+128)
  2838  051B  0846               	movf	?_map^(0+128),w
  2839  051C  00DD               	movwf	_CCPR_S3^(0+128)
  2840                           
  2841                           ;main.c: 155:             }
  2842  051D  2D5E               	goto	i1l2613
  2843  051E                     i1l2605:
  2844  051E  0334               	decf	_modo^(0+128),w
  2845  051F  0435               	iorwf	(_modo+1)^(0+128),w
  2846  0520  1D03               	btfss	3,2
  2847  0521  2D23               	goto	u342_21
  2848  0522  2D24               	goto	u342_20
  2849  0523                     u342_21:
  2850  0523  2D3E               	goto	i1l2609
  2851  0524                     u342_20:
  2852  0524                     i1l2607:
  2853                           
  2854                           ;main.c: 158:                 CCPR_S3 = map(servo3, 0, 255, 15, 75);
  2855  0524  01C6               	clrf	map@x0^(0+128)
  2856  0525  30FF               	movlw	255
  2857  0526  00CC               	movwf	??_isr^(0+128)
  2858  0527  084C               	movf	??_isr^(0+128),w
  2859  0528  00C7               	movwf	map@x1^(0+128)
  2860  0529  300F               	movlw	15
  2861  052A  00C8               	movwf	map@y0^(0+128)
  2862  052B  3000               	movlw	0
  2863  052C  00C9               	movwf	(map@y0^(0+128)+1)
  2864  052D  304B               	movlw	75
  2865  052E  00CA               	movwf	map@y1^(0+128)
  2866  052F  3000               	movlw	0
  2867  0530  00CB               	movwf	(map@y1^(0+128)+1)
  2868  0531  083E               	movf	_servo3^(0+128),w
  2869  0532  120A  118A  270A  120A  118A  	fcall	_map
  2870  0537  1683               	bsf	3,5	;RP0=1, select bank1
  2871  0538  1303               	bcf	3,6	;RP1=0, select bank1
  2872  0539  0847               	movf	(?_map+1)^(0+128),w
  2873  053A  00DE               	movwf	(_CCPR_S3+1)^(0+128)
  2874  053B  0846               	movf	?_map^(0+128),w
  2875  053C  00DD               	movwf	_CCPR_S3^(0+128)
  2876                           
  2877                           ;main.c: 159:             }
  2878  053D  2D5E               	goto	i1l2613
  2879  053E                     i1l2609:
  2880  053E  3002               	movlw	2
  2881  053F  0634               	xorwf	_modo^(0+128),w
  2882  0540  0435               	iorwf	(_modo+1)^(0+128),w
  2883  0541  1D03               	btfss	3,2
  2884  0542  2D44               	goto	u343_21
  2885  0543  2D45               	goto	u343_20
  2886  0544                     u343_21:
  2887  0544  2D5E               	goto	i1l2613
  2888  0545                     u343_20:
  2889  0545                     i1l2611:
  2890                           
  2891                           ;main.c: 162:                 CCPR_S3 = map(servo33, 0, 31, 15, 75);
  2892  0545  01C6               	clrf	map@x0^(0+128)
  2893  0546  301F               	movlw	31
  2894  0547  00CC               	movwf	??_isr^(0+128)
  2895  0548  084C               	movf	??_isr^(0+128),w
  2896  0549  00C7               	movwf	map@x1^(0+128)
  2897  054A  300F               	movlw	15
  2898  054B  00C8               	movwf	map@y0^(0+128)
  2899  054C  3000               	movlw	0
  2900  054D  00C9               	movwf	(map@y0^(0+128)+1)
  2901  054E  304B               	movlw	75
  2902  054F  00CA               	movwf	map@y1^(0+128)
  2903  0550  3000               	movlw	0
  2904  0551  00CB               	movwf	(map@y1^(0+128)+1)
  2905  0552  083A               	movf	_servo33^(0+128),w
  2906  0553  120A  118A  270A  120A  118A  	fcall	_map
  2907  0558  1683               	bsf	3,5	;RP0=1, select bank1
  2908  0559  1303               	bcf	3,6	;RP1=0, select bank1
  2909  055A  0847               	movf	(?_map+1)^(0+128),w
  2910  055B  00DE               	movwf	(_CCPR_S3+1)^(0+128)
  2911  055C  0846               	movf	?_map^(0+128),w
  2912  055D  00DD               	movwf	_CCPR_S3^(0+128)
  2913  055E                     i1l2613:
  2914                           
  2915                           ;main.c: 166:             CCPR_S3 = CCPR_S3 & 0b01111111;
  2916  055E  307F               	movlw	127
  2917  055F  055D               	andwf	_CCPR_S3^(0+128),w
  2918  0560  00DD               	movwf	_CCPR_S3^(0+128)
  2919  0561  3000               	movlw	0
  2920  0562  055E               	andwf	(_CCPR_S3+1)^(0+128),w
  2921  0563  00DE               	movwf	(_CCPR_S3+1)^(0+128)
  2922                           
  2923                           ;main.c: 167:         }
  2924  0564  2DE9               	goto	i1l2633
  2925  0565                     i1l2615:
  2926  0565  1283               	bcf	3,5	;RP0=0, select bank0
  2927  0566  1303               	bcf	3,6	;RP1=0, select bank0
  2928  0567  0C1F               	rrf	31,w	;volatile
  2929  0568  1683               	bsf	3,5	;RP0=1, select bank1
  2930  0569  1303               	bcf	3,6	;RP1=0, select bank1
  2931  056A  00CC               	movwf	??_isr^(0+128)
  2932  056B  0C4C               	rrf	??_isr^(0+128),w
  2933  056C  390F               	andlw	15
  2934  056D  3A03               	xorlw	3
  2935  056E  1D03               	skipz
  2936  056F  2D71               	goto	u344_21
  2937  0570  2D72               	goto	u344_20
  2938  0571                     u344_21:
  2939  0571  2DE9               	goto	i1l180
  2940  0572                     u344_20:
  2941  0572                     i1l2617:
  2942                           
  2943                           ;main.c: 169:             if(modo == 0){
  2944  0572  0834               	movf	_modo^(0+128),w
  2945  0573  0435               	iorwf	(_modo+1)^(0+128),w
  2946  0574  1D03               	btfss	3,2
  2947  0575  2D77               	goto	u345_21
  2948  0576  2D78               	goto	u345_20
  2949  0577                     u345_21:
  2950  0577  2D9A               	goto	i1l2623
  2951  0578                     u345_20:
  2952  0578                     i1l2619:
  2953                           
  2954                           ;main.c: 170:                 servo4 = ADRESH;
  2955  0578  1283               	bcf	3,5	;RP0=0, select bank0
  2956  0579  1303               	bcf	3,6	;RP1=0, select bank0
  2957  057A  081E               	movf	30,w	;volatile
  2958  057B  1683               	bsf	3,5	;RP0=1, select bank1
  2959  057C  1303               	bcf	3,6	;RP1=0, select bank1
  2960  057D  00CC               	movwf	??_isr^(0+128)
  2961  057E  084C               	movf	??_isr^(0+128),w
  2962  057F  00BD               	movwf	_servo4^(0+128)
  2963  0580                     i1l2621:
  2964                           
  2965                           ;main.c: 172:                 CCPR_S4 = map(servo4, 0, 255, 15, 75);
  2966  0580  01C6               	clrf	map@x0^(0+128)
  2967  0581  30FF               	movlw	255
  2968  0582  00CC               	movwf	??_isr^(0+128)
  2969  0583  084C               	movf	??_isr^(0+128),w
  2970  0584  00C7               	movwf	map@x1^(0+128)
  2971  0585  300F               	movlw	15
  2972  0586  00C8               	movwf	map@y0^(0+128)
  2973  0587  3000               	movlw	0
  2974  0588  00C9               	movwf	(map@y0^(0+128)+1)
  2975  0589  304B               	movlw	75
  2976  058A  00CA               	movwf	map@y1^(0+128)
  2977  058B  3000               	movlw	0
  2978  058C  00CB               	movwf	(map@y1^(0+128)+1)
  2979  058D  083D               	movf	_servo4^(0+128),w
  2980  058E  120A  118A  270A  120A  118A  	fcall	_map
  2981  0593  1683               	bsf	3,5	;RP0=1, select bank1
  2982  0594  1303               	bcf	3,6	;RP1=0, select bank1
  2983  0595  0847               	movf	(?_map+1)^(0+128),w
  2984  0596  00DC               	movwf	(_CCPR_S4+1)^(0+128)
  2985  0597  0846               	movf	?_map^(0+128),w
  2986  0598  00DB               	movwf	_CCPR_S4^(0+128)
  2987                           
  2988                           ;main.c: 173:             }
  2989  0599  2DDA               	goto	i1l2631
  2990  059A                     i1l2623:
  2991  059A  0334               	decf	_modo^(0+128),w
  2992  059B  0435               	iorwf	(_modo+1)^(0+128),w
  2993  059C  1D03               	btfss	3,2
  2994  059D  2D9F               	goto	u346_21
  2995  059E  2DA0               	goto	u346_20
  2996  059F                     u346_21:
  2997  059F  2DBA               	goto	i1l2627
  2998  05A0                     u346_20:
  2999  05A0                     i1l2625:
  3000                           
  3001                           ;main.c: 176:                 CCPR_S4 = map(servo4, 0, 255, 15, 75);
  3002  05A0  01C6               	clrf	map@x0^(0+128)
  3003  05A1  30FF               	movlw	255
  3004  05A2  00CC               	movwf	??_isr^(0+128)
  3005  05A3  084C               	movf	??_isr^(0+128),w
  3006  05A4  00C7               	movwf	map@x1^(0+128)
  3007  05A5  300F               	movlw	15
  3008  05A6  00C8               	movwf	map@y0^(0+128)
  3009  05A7  3000               	movlw	0
  3010  05A8  00C9               	movwf	(map@y0^(0+128)+1)
  3011  05A9  304B               	movlw	75
  3012  05AA  00CA               	movwf	map@y1^(0+128)
  3013  05AB  3000               	movlw	0
  3014  05AC  00CB               	movwf	(map@y1^(0+128)+1)
  3015  05AD  083D               	movf	_servo4^(0+128),w
  3016  05AE  120A  118A  270A  120A  118A  	fcall	_map
  3017  05B3  1683               	bsf	3,5	;RP0=1, select bank1
  3018  05B4  1303               	bcf	3,6	;RP1=0, select bank1
  3019  05B5  0847               	movf	(?_map+1)^(0+128),w
  3020  05B6  00DC               	movwf	(_CCPR_S4+1)^(0+128)
  3021  05B7  0846               	movf	?_map^(0+128),w
  3022  05B8  00DB               	movwf	_CCPR_S4^(0+128)
  3023                           
  3024                           ;main.c: 177:             }
  3025  05B9  2DDA               	goto	i1l2631
  3026  05BA                     i1l2627:
  3027  05BA  3002               	movlw	2
  3028  05BB  0634               	xorwf	_modo^(0+128),w
  3029  05BC  0435               	iorwf	(_modo+1)^(0+128),w
  3030  05BD  1D03               	btfss	3,2
  3031  05BE  2DC0               	goto	u347_21
  3032  05BF  2DC1               	goto	u347_20
  3033  05C0                     u347_21:
  3034  05C0  2DDA               	goto	i1l2631
  3035  05C1                     u347_20:
  3036  05C1                     i1l2629:
  3037                           
  3038                           ;main.c: 180:                 CCPR_S4 = map(servo44, 0, 31, 15, 75);
  3039  05C1  01C6               	clrf	map@x0^(0+128)
  3040  05C2  301F               	movlw	31
  3041  05C3  00CC               	movwf	??_isr^(0+128)
  3042  05C4  084C               	movf	??_isr^(0+128),w
  3043  05C5  00C7               	movwf	map@x1^(0+128)
  3044  05C6  300F               	movlw	15
  3045  05C7  00C8               	movwf	map@y0^(0+128)
  3046  05C8  3000               	movlw	0
  3047  05C9  00C9               	movwf	(map@y0^(0+128)+1)
  3048  05CA  304B               	movlw	75
  3049  05CB  00CA               	movwf	map@y1^(0+128)
  3050  05CC  3000               	movlw	0
  3051  05CD  00CB               	movwf	(map@y1^(0+128)+1)
  3052  05CE  0839               	movf	_servo44^(0+128),w
  3053  05CF  120A  118A  270A  120A  118A  	fcall	_map
  3054  05D4  1683               	bsf	3,5	;RP0=1, select bank1
  3055  05D5  1303               	bcf	3,6	;RP1=0, select bank1
  3056  05D6  0847               	movf	(?_map+1)^(0+128),w
  3057  05D7  00DC               	movwf	(_CCPR_S4+1)^(0+128)
  3058  05D8  0846               	movf	?_map^(0+128),w
  3059  05D9  00DB               	movwf	_CCPR_S4^(0+128)
  3060  05DA                     i1l2631:
  3061                           
  3062                           ;main.c: 184:             CCPR_S4 = (CCPR_S4 & 0b01111111) + 128;
  3063  05DA  307F               	movlw	127
  3064  05DB  055B               	andwf	_CCPR_S4^(0+128),w
  3065  05DC  00CC               	movwf	??_isr^(0+128)
  3066  05DD  3000               	movlw	0
  3067  05DE  055C               	andwf	(_CCPR_S4+1)^(0+128),w
  3068  05DF  00CD               	movwf	(??_isr+1)^(0+128)
  3069  05E0  084C               	movf	??_isr^(0+128),w
  3070  05E1  3E80               	addlw	128
  3071  05E2  00DB               	movwf	_CCPR_S4^(0+128)
  3072  05E3  084D               	movf	(??_isr+1)^(0+128),w
  3073  05E4  1803               	skipnc
  3074  05E5  3E01               	addlw	1
  3075  05E6  3E00               	addlw	0
  3076  05E7  00DC               	movwf	(_CCPR_S4+1)^(0+128)
  3077  05E8  2DE9               	goto	i1l2633
  3078  05E9                     i1l180:
  3079  05E9                     i1l2633:
  3080                           
  3081                           ;main.c: 186:         PIR1bits.ADIF = 0;
  3082  05E9  1283               	bcf	3,5	;RP0=0, select bank0
  3083  05EA  130C               	bcf	12,6	;volatile
  3084  05EB                     i1l2635:
  3085                           
  3086                           ;main.c: 189:     if (INTCONbits.RBIF){
  3087  05EB  1C0B               	btfss	11,0	;volatile
  3088  05EC  2DEE               	goto	u348_21
  3089  05ED  2DEF               	goto	u348_20
  3090  05EE                     u348_21:
  3091  05EE  2E45               	goto	i1l207
  3092  05EF                     u348_20:
  3093  05EF                     i1l2637:
  3094                           
  3095                           ;main.c: 190:         if (!PORTBbits.RB0){
  3096  05EF  1806               	btfsc	6,0	;volatile
  3097  05F0  2DF2               	goto	u349_21
  3098  05F1  2DF3               	goto	u349_20
  3099  05F2                     u349_21:
  3100  05F2  2E0D               	goto	i1l195
  3101  05F3                     u349_20:
  3102  05F3                     i1l2639:
  3103                           
  3104                           ;main.c: 191:             modo ++;
  3105  05F3  3001               	movlw	1
  3106  05F4  1683               	bsf	3,5	;RP0=1, select bank1
  3107  05F5  1303               	bcf	3,6	;RP1=0, select bank1
  3108  05F6  07B4               	addwf	_modo^(0+128),f
  3109  05F7  1803               	skipnc
  3110  05F8  0AB5               	incf	(_modo+1)^(0+128),f
  3111  05F9  3000               	movlw	0
  3112  05FA  07B5               	addwf	(_modo+1)^(0+128),f
  3113  05FB                     i1l2641:
  3114                           
  3115                           ;main.c: 192:             if(modo > 2)
  3116  05FB  0835               	movf	(_modo+1)^(0+128),w
  3117  05FC  3A80               	xorlw	128
  3118  05FD  00FF               	movwf	btemp+1
  3119  05FE  3080               	movlw	128
  3120  05FF  027F               	subwf	btemp+1,w
  3121  0600  1D03               	skipz
  3122  0601  2E04               	goto	u350_25
  3123  0602  3003               	movlw	3
  3124  0603  0234               	subwf	_modo^(0+128),w
  3125  0604                     u350_25:
  3126  0604  1C03               	skipc
  3127  0605  2E07               	goto	u350_21
  3128  0606  2E08               	goto	u350_20
  3129  0607                     u350_21:
  3130  0607  2E44               	goto	i1l2661
  3131  0608                     u350_20:
  3132  0608                     i1l2643:
  3133                           
  3134                           ;main.c: 193:                 modo = 0;
  3135  0608  1683               	bsf	3,5	;RP0=1, select bank1
  3136  0609  1303               	bcf	3,6	;RP1=0, select bank1
  3137  060A  01B4               	clrf	_modo^(0+128)
  3138  060B  01B5               	clrf	(_modo+1)^(0+128)
  3139  060C  2E44               	goto	i1l2661
  3140  060D                     i1l195:	
  3141                           ;main.c: 195:         else if (!PORTBbits.RB1){
  3142                           
  3143  060D  1886               	btfsc	6,1	;volatile
  3144  060E  2E10               	goto	u351_21
  3145  060F  2E11               	goto	u351_20
  3146  0610                     u351_21:
  3147  0610  2E29               	goto	i1l198
  3148  0611                     u351_20:
  3149  0611                     i1l2645:
  3150                           
  3151                           ;main.c: 196:             if (modo == 0){
  3152  0611  1683               	bsf	3,5	;RP0=1, select bank1
  3153  0612  1303               	bcf	3,6	;RP1=0, select bank1
  3154  0613  0834               	movf	_modo^(0+128),w
  3155  0614  0435               	iorwf	(_modo+1)^(0+128),w
  3156  0615  1D03               	btfss	3,2
  3157  0616  2E18               	goto	u352_21
  3158  0617  2E19               	goto	u352_20
  3159  0618                     u352_21:
  3160  0618  2E1E               	goto	i1l2649
  3161  0619                     u352_20:
  3162  0619                     i1l2647:
  3163                           
  3164                           ;main.c: 197:                 flag_w1 = 1;
  3165  0619  3001               	movlw	1
  3166  061A  00B2               	movwf	_flag_w1^(0+128)
  3167  061B  3000               	movlw	0
  3168  061C  00B3               	movwf	(_flag_w1^(0+128)+1)
  3169                           
  3170                           ;main.c: 198:             }
  3171  061D  2E44               	goto	i1l2661
  3172  061E                     i1l2649:
  3173  061E  0334               	decf	_modo^(0+128),w
  3174  061F  0435               	iorwf	(_modo+1)^(0+128),w
  3175  0620  1D03               	btfss	3,2
  3176  0621  2E23               	goto	u353_21
  3177  0622  2E24               	goto	u353_20
  3178  0623                     u353_21:
  3179  0623  2E44               	goto	i1l2661
  3180  0624                     u353_20:
  3181  0624                     i1l2651:
  3182                           
  3183                           ;main.c: 200:                 flag_r1 = 1;
  3184  0624  3001               	movlw	1
  3185  0625  00AE               	movwf	_flag_r1^(0+128)
  3186  0626  3000               	movlw	0
  3187  0627  00AF               	movwf	(_flag_r1^(0+128)+1)
  3188  0628  2E44               	goto	i1l2661
  3189  0629                     i1l198:	
  3190                           ;main.c: 203:         else if (!PORTBbits.RB2){
  3191                           
  3192  0629  1906               	btfsc	6,2	;volatile
  3193  062A  2E2C               	goto	u354_21
  3194  062B  2E2D               	goto	u354_20
  3195  062C                     u354_21:
  3196  062C  2E44               	goto	i1l2661
  3197  062D                     u354_20:
  3198  062D                     i1l2653:
  3199                           
  3200                           ;main.c: 204:             if (modo == 0){
  3201  062D  1683               	bsf	3,5	;RP0=1, select bank1
  3202  062E  1303               	bcf	3,6	;RP1=0, select bank1
  3203  062F  0834               	movf	_modo^(0+128),w
  3204  0630  0435               	iorwf	(_modo+1)^(0+128),w
  3205  0631  1D03               	btfss	3,2
  3206  0632  2E34               	goto	u355_21
  3207  0633  2E35               	goto	u355_20
  3208  0634                     u355_21:
  3209  0634  2E3A               	goto	i1l2657
  3210  0635                     u355_20:
  3211  0635                     i1l2655:
  3212                           
  3213                           ;main.c: 205:                 flag_w2 = 1;
  3214  0635  3001               	movlw	1
  3215  0636  00B0               	movwf	_flag_w2^(0+128)
  3216  0637  3000               	movlw	0
  3217  0638  00B1               	movwf	(_flag_w2^(0+128)+1)
  3218                           
  3219                           ;main.c: 206:             }
  3220  0639  2E44               	goto	i1l2661
  3221  063A                     i1l2657:
  3222  063A  0334               	decf	_modo^(0+128),w
  3223  063B  0435               	iorwf	(_modo+1)^(0+128),w
  3224  063C  1D03               	btfss	3,2
  3225  063D  2E3F               	goto	u356_21
  3226  063E  2E40               	goto	u356_20
  3227  063F                     u356_21:
  3228  063F  2E44               	goto	i1l2661
  3229  0640                     u356_20:
  3230  0640                     i1l2659:
  3231                           
  3232                           ;main.c: 208:                 flag_r2 = 1;
  3233  0640  3001               	movlw	1
  3234  0641  00AC               	movwf	_flag_r2^(0+128)
  3235  0642  3000               	movlw	0
  3236  0643  00AD               	movwf	(_flag_r2^(0+128)+1)
  3237  0644                     i1l2661:
  3238                           
  3239                           ;main.c: 211:         INTCONbits.RBIF = 0;
  3240  0644  100B               	bcf	11,0	;volatile
  3241  0645                     i1l207:
  3242  0645  1683               	bsf	3,5	;RP0=1, select bank1
  3243  0646  1303               	bcf	3,6	;RP1=0, select bank1
  3244  0647  0851               	movf	(??_isr+5)^(0+128),w
  3245  0648  00FF               	movwf	btemp+1
  3246  0649  0850               	movf	(??_isr+4)^(0+128),w
  3247  064A  008A               	movwf	10
  3248  064B  0E4F               	swapf	(??_isr+3)^(0+128),w
  3249  064C  0083               	movwf	3
  3250  064D  0EFE               	swapf	btemp,f
  3251  064E  0E7E               	swapf	btemp,w
  3252  064F  0009               	retfie
  3253  0650                     __end_of_isr:
  3254                           
  3255                           	psect	intentry
  3256  0004                     __pintentry:	
  3257                           ;incstack = 0
  3258                           ; Regs used in _isr: [wreg+status,2+status,0+btemp+1+pclath+cstack]
  3259                           
  3260  0004                     interrupt_function:
  3261  007E                     saved_w	set	btemp
  3262  0004  00FE               	movwf	btemp
  3263  0005  0E03               	swapf	3,w
  3264  0006  1683               	bsf	3,5	;RP0=1, select bank1
  3265  0007  1303               	bcf	3,6	;RP1=0, select bank1
  3266  0008  00CF               	movwf	(??_isr+3)^(0+128)
  3267  0009  080A               	movf	10,w
  3268  000A  00D0               	movwf	(??_isr+4)^(0+128)
  3269  000B  087F               	movf	btemp+1,w
  3270  000C  00D1               	movwf	(??_isr+5)^(0+128)
  3271  000D  120A  118A  2B8F   	ljmp	_isr
  3272                           
  3273                           	psect	text9
  3274  070A                     __ptext9:	
  3275 ;; *************** function _map *****************
  3276 ;; Defined at:
  3277 ;;		line 340 in file "main.c"
  3278 ;; Parameters:    Size  Location     Type
  3279 ;;  x               1    wreg     unsigned char 
  3280 ;;  x0              1    5[BANK1 ] unsigned char 
  3281 ;;  x1              1    6[BANK1 ] unsigned char 
  3282 ;;  y0              2    7[BANK1 ] unsigned short 
  3283 ;;  y1              2    9[BANK1 ] unsigned short 
  3284 ;; Auto vars:     Size  Location     Type
  3285 ;;  x               1   78[BANK0 ] unsigned char 
  3286 ;; Return value:  Size  Location     Type
  3287 ;;                  2    5[BANK1 ] unsigned short 
  3288 ;; Registers used:
  3289 ;;		wreg, status,2, status,0, btemp+1, pclath, cstack
  3290 ;; Tracked objects:
  3291 ;;		On entry : 0/0
  3292 ;;		On exit  : 0/0
  3293 ;;		Unchanged: 0/0
  3294 ;; Data sizes:     COMMON   BANK0   BANK1   BANK3   BANK2
  3295 ;;      Params:         0       0       6       0       0
  3296 ;;      Locals:         0       1       0       0       0
  3297 ;;      Temps:          0       0       0       0       0
  3298 ;;      Totals:         0       1       6       0       0
  3299 ;;Total ram usage:        7 bytes
  3300 ;; Hardware stack levels used: 1
  3301 ;; Hardware stack levels required when called: 2
  3302 ;; This function calls:
  3303 ;;		___fladd
  3304 ;;		___fldiv
  3305 ;;		___flmul
  3306 ;;		___fltol
  3307 ;;		___xxtofl
  3308 ;; This function is called by:
  3309 ;;		_isr
  3310 ;; This function uses a non-reentrant model
  3311 ;;
  3312                           
  3313  070A                     _map:	
  3314                           ;psect for function _map
  3315                           
  3316                           
  3317                           ;incstack = 0
  3318                           ; Regs used in _map: [wreg+status,2+status,0+btemp+1+pclath+cstack]
  3319                           ;map@x stored from wreg
  3320  070A  1283               	bcf	3,5	;RP0=0, select bank0
  3321  070B  1303               	bcf	3,6	;RP1=0, select bank0
  3322  070C  00EE               	movwf	map@x
  3323  070D                     i1l2469:
  3324                           
  3325                           ;main.c: 340: unsigned short map(uint8_t x, uint8_t x0, uint8_t x1,;main.c: 341:        
      +                               unsigned short y0, unsigned short y1){;main.c: 342:     return (unsigned short)(y0+
      +                          ((float)(y1-y0)/(x1-x0))*(x-x0));
  3326  070D  1683               	bsf	3,5	;RP0=1, select bank1
  3327  070E  1303               	bcf	3,6	;RP1=0, select bank1
  3328  070F  0848               	movf	map@y0^(0+128),w
  3329  0710  00F0               	movwf	___xxtofl@val
  3330  0711  0849               	movf	(map@y0+1)^(0+128),w
  3331  0712  00F1               	movwf	___xxtofl@val+1
  3332  0713  01F2               	clrf	___xxtofl@val+2
  3333  0714  01F3               	clrf	___xxtofl@val+3
  3334  0715  3000               	movlw	0
  3335  0716  120A  118A  2650  120A  118A  	fcall	___xxtofl
  3336  071B  0873               	movf	?___xxtofl+3,w
  3337  071C  1283               	bcf	3,5	;RP0=0, select bank0
  3338  071D  1303               	bcf	3,6	;RP1=0, select bank0
  3339  071E  00DB               	movwf	___fladd@a+3
  3340  071F  0872               	movf	?___xxtofl+2,w
  3341  0720  00DA               	movwf	___fladd@a+2
  3342  0721  0871               	movf	?___xxtofl+1,w
  3343  0722  00D9               	movwf	___fladd@a+1
  3344  0723  0870               	movf	?___xxtofl,w
  3345  0724  00D8               	movwf	___fladd@a
  3346  0725  1683               	bsf	3,5	;RP0=1, select bank1
  3347  0726  1303               	bcf	3,6	;RP1=0, select bank1
  3348  0727  0848               	movf	map@y0^(0+128),w
  3349  0728  024A               	subwf	map@y1^(0+128),w
  3350  0729  00F0               	movwf	___xxtofl@val
  3351  072A  0849               	movf	(map@y0+1)^(0+128),w
  3352  072B  1C03               	skipc
  3353  072C  0A49               	incf	(map@y0+1)^(0+128),w
  3354  072D  024B               	subwf	(map@y1+1)^(0+128),w
  3355  072E  00F1               	movwf	___xxtofl@val+1
  3356  072F  01F2               	clrf	___xxtofl@val+2
  3357  0730  01F3               	clrf	___xxtofl@val+3
  3358  0731  3000               	movlw	0
  3359  0732  120A  118A  2650  120A  118A  	fcall	___xxtofl
  3360  0737  0873               	movf	?___xxtofl+3,w
  3361  0738  1283               	bcf	3,5	;RP0=0, select bank0
  3362  0739  1303               	bcf	3,6	;RP1=0, select bank0
  3363  073A  00A7               	movwf	___fldiv@b+3
  3364  073B  0872               	movf	?___xxtofl+2,w
  3365  073C  00A6               	movwf	___fldiv@b+2
  3366  073D  0871               	movf	?___xxtofl+1,w
  3367  073E  00A5               	movwf	___fldiv@b+1
  3368  073F  0870               	movf	?___xxtofl,w
  3369  0740  00A4               	movwf	___fldiv@b
  3370  0741  1683               	bsf	3,5	;RP0=1, select bank1
  3371  0742  1303               	bcf	3,6	;RP1=0, select bank1
  3372  0743  0846               	movf	map@x0^(0+128),w
  3373  0744  0247               	subwf	map@x1^(0+128),w
  3374  0745  00F0               	movwf	___xxtofl@val
  3375  0746  01F1               	clrf	___xxtofl@val+1
  3376  0747  1C03               	skipc
  3377  0748  03F1               	decf	___xxtofl@val+1,f
  3378  0749  01F2               	clrf	___xxtofl@val+2
  3379  074A  1BF1               	btfsc	___xxtofl@val+1,7
  3380  074B  03F2               	decf	___xxtofl@val+2,f
  3381  074C  0872               	movf	___xxtofl@val+2,w
  3382  074D  00F3               	movwf	___xxtofl@val+3
  3383  074E  3001               	movlw	1
  3384  074F  120A  118A  2650  120A  118A  	fcall	___xxtofl
  3385  0754  0873               	movf	?___xxtofl+3,w
  3386  0755  1283               	bcf	3,5	;RP0=0, select bank0
  3387  0756  1303               	bcf	3,6	;RP1=0, select bank0
  3388  0757  00A3               	movwf	___fldiv@a+3
  3389  0758  0872               	movf	?___xxtofl+2,w
  3390  0759  00A2               	movwf	___fldiv@a+2
  3391  075A  0871               	movf	?___xxtofl+1,w
  3392  075B  00A1               	movwf	___fldiv@a+1
  3393  075C  0870               	movf	?___xxtofl,w
  3394  075D  00A0               	movwf	___fldiv@a
  3395  075E  120A  158A  213A  120A  118A  	fcall	___fldiv
  3396  0763  1283               	bcf	3,5	;RP0=0, select bank0
  3397  0764  1303               	bcf	3,6	;RP1=0, select bank0
  3398  0765  0823               	movf	?___fldiv+3,w
  3399  0766  00C1               	movwf	___flmul@a+3
  3400  0767  0822               	movf	?___fldiv+2,w
  3401  0768  00C0               	movwf	___flmul@a+2
  3402  0769  0821               	movf	?___fldiv+1,w
  3403  076A  00BF               	movwf	___flmul@a+1
  3404  076B  0820               	movf	?___fldiv,w
  3405  076C  00BE               	movwf	___flmul@a
  3406  076D  1683               	bsf	3,5	;RP0=1, select bank1
  3407  076E  1303               	bcf	3,6	;RP1=0, select bank1
  3408  076F  0846               	movf	map@x0^(0+128),w
  3409  0770  1283               	bcf	3,5	;RP0=0, select bank0
  3410  0771  1303               	bcf	3,6	;RP1=0, select bank0
  3411  0772  026E               	subwf	map@x,w
  3412  0773  00F0               	movwf	___xxtofl@val
  3413  0774  01F1               	clrf	___xxtofl@val+1
  3414  0775  1C03               	skipc
  3415  0776  03F1               	decf	___xxtofl@val+1,f
  3416  0777  01F2               	clrf	___xxtofl@val+2
  3417  0778  1BF1               	btfsc	___xxtofl@val+1,7
  3418  0779  03F2               	decf	___xxtofl@val+2,f
  3419  077A  0872               	movf	___xxtofl@val+2,w
  3420  077B  00F3               	movwf	___xxtofl@val+3
  3421  077C  3001               	movlw	1
  3422  077D  120A  118A  2650  120A  118A  	fcall	___xxtofl
  3423  0782  0873               	movf	?___xxtofl+3,w
  3424  0783  1283               	bcf	3,5	;RP0=0, select bank0
  3425  0784  1303               	bcf	3,6	;RP1=0, select bank0
  3426  0785  00BD               	movwf	___flmul@b+3
  3427  0786  0872               	movf	?___xxtofl+2,w
  3428  0787  00BC               	movwf	___flmul@b+2
  3429  0788  0871               	movf	?___xxtofl+1,w
  3430  0789  00BB               	movwf	___flmul@b+1
  3431  078A  0870               	movf	?___xxtofl,w
  3432  078B  00BA               	movwf	___flmul@b
  3433  078C  120A  118A  202E  120A  118A  	fcall	___flmul
  3434  0791  1283               	bcf	3,5	;RP0=0, select bank0
  3435  0792  1303               	bcf	3,6	;RP1=0, select bank0
  3436  0793  083D               	movf	?___flmul+3,w
  3437  0794  00D7               	movwf	___fladd@b+3
  3438  0795  083C               	movf	?___flmul+2,w
  3439  0796  00D6               	movwf	___fladd@b+2
  3440  0797  083B               	movf	?___flmul+1,w
  3441  0798  00D5               	movwf	___fladd@b+1
  3442  0799  083A               	movf	?___flmul,w
  3443  079A  00D4               	movwf	___fladd@b
  3444  079B  120A  158A  2578  120A  118A  	fcall	___fladd
  3445  07A0  1283               	bcf	3,5	;RP0=0, select bank0
  3446  07A1  1303               	bcf	3,6	;RP1=0, select bank0
  3447  07A2  0857               	movf	?___fladd+3,w
  3448  07A3  00EB               	movwf	___fltol@f1+3
  3449  07A4  0856               	movf	?___fladd+2,w
  3450  07A5  00EA               	movwf	___fltol@f1+2
  3451  07A6  0855               	movf	?___fladd+1,w
  3452  07A7  00E9               	movwf	___fltol@f1+1
  3453  07A8  0854               	movf	?___fladd,w
  3454  07A9  00E8               	movwf	___fltol@f1
  3455  07AA  120A  158A  209E  120A  118A  	fcall	___fltol
  3456  07AF  1283               	bcf	3,5	;RP0=0, select bank0
  3457  07B0  1303               	bcf	3,6	;RP1=0, select bank0
  3458  07B1  0869               	movf	?___fltol+1,w
  3459  07B2  1683               	bsf	3,5	;RP0=1, select bank1
  3460  07B3  1303               	bcf	3,6	;RP1=0, select bank1
  3461  07B4  00C7               	movwf	(?_map+1)^(0+128)
  3462  07B5  1283               	bcf	3,5	;RP0=0, select bank0
  3463  07B6  1303               	bcf	3,6	;RP1=0, select bank0
  3464  07B7  0868               	movf	?___fltol,w
  3465  07B8  1683               	bsf	3,5	;RP0=1, select bank1
  3466  07B9  1303               	bcf	3,6	;RP1=0, select bank1
  3467  07BA  00C6               	movwf	?_map^(0+128)
  3468  07BB                     i1l252:
  3469  07BB  0008               	return
  3470  07BC                     __end_of_map:
  3471                           
  3472                           	psect	text10
  3473  0650                     __ptext10:	
  3474 ;; *************** function ___xxtofl *****************
  3475 ;; Defined at:
  3476 ;;		line 10 in file "C:\Program Files\Microchip\xc8\v2.36\pic\sources\c90\common\xxtofl.c"
  3477 ;; Parameters:    Size  Location     Type
  3478 ;;  sign            1    wreg     unsigned char 
  3479 ;;  val             4    0[COMMON] long 
  3480 ;; Auto vars:     Size  Location     Type
  3481 ;;  sign            1    8[COMMON] unsigned char 
  3482 ;;  arg             4   10[COMMON] unsigned long 
  3483 ;;  exp             1    9[COMMON] unsigned char 
  3484 ;; Return value:  Size  Location     Type
  3485 ;;                  4    0[COMMON] unsigned char 
  3486 ;; Registers used:
  3487 ;;		wreg, status,2, status,0
  3488 ;; Tracked objects:
  3489 ;;		On entry : 0/0
  3490 ;;		On exit  : 0/0
  3491 ;;		Unchanged: 0/0
  3492 ;; Data sizes:     COMMON   BANK0   BANK1   BANK3   BANK2
  3493 ;;      Params:         4       0       0       0       0
  3494 ;;      Locals:         6       0       0       0       0
  3495 ;;      Temps:          4       0       0       0       0
  3496 ;;      Totals:        14       0       0       0       0
  3497 ;;Total ram usage:       14 bytes
  3498 ;; Hardware stack levels used: 1
  3499 ;; This function calls:
  3500 ;;		Nothing
  3501 ;; This function is called by:
  3502 ;;		_map
  3503 ;; This function uses a non-reentrant model
  3504 ;;
  3505                           
  3506  0650                     ___xxtofl:	
  3507                           ;psect for function ___xxtofl
  3508                           
  3509                           
  3510                           ;incstack = 0
  3511                           ; Regs used in ___xxtofl: [wreg+status,2+status,0]
  3512                           ;___xxtofl@sign stored from wreg
  3513  0650  00F8               	movwf	___xxtofl@sign
  3514  0651                     i1l2425:
  3515  0651  0878               	movf	___xxtofl@sign,w
  3516  0652  1903               	btfsc	3,2
  3517  0653  2E55               	goto	u315_21
  3518  0654  2E56               	goto	u315_20
  3519  0655                     u315_21:
  3520  0655  2E6A               	goto	i1l2431
  3521  0656                     u315_20:
  3522  0656                     i1l2427:
  3523  0656  1FF3               	btfss	___xxtofl@val+3,7
  3524  0657  2E59               	goto	u316_21
  3525  0658  2E5A               	goto	u316_20
  3526  0659                     u316_21:
  3527  0659  2E6A               	goto	i1l2431
  3528  065A                     u316_20:
  3529  065A                     i1l2429:
  3530  065A  0970               	comf	___xxtofl@val,w
  3531  065B  00FA               	movwf	___xxtofl@arg
  3532  065C  0971               	comf	___xxtofl@val+1,w
  3533  065D  00FB               	movwf	___xxtofl@arg+1
  3534  065E  0972               	comf	___xxtofl@val+2,w
  3535  065F  00FC               	movwf	___xxtofl@arg+2
  3536  0660  0973               	comf	___xxtofl@val+3,w
  3537  0661  00FD               	movwf	___xxtofl@arg+3
  3538  0662  0AFA               	incf	___xxtofl@arg,f
  3539  0663  1903               	skipnz
  3540  0664  0AFB               	incf	___xxtofl@arg+1,f
  3541  0665  1903               	skipnz
  3542  0666  0AFC               	incf	___xxtofl@arg+2,f
  3543  0667  1903               	skipnz
  3544  0668  0AFD               	incf	___xxtofl@arg+3,f
  3545  0669  2E72               	goto	i1l798
  3546  066A                     i1l2431:
  3547  066A  0873               	movf	___xxtofl@val+3,w
  3548  066B  00FD               	movwf	___xxtofl@arg+3
  3549  066C  0872               	movf	___xxtofl@val+2,w
  3550  066D  00FC               	movwf	___xxtofl@arg+2
  3551  066E  0871               	movf	___xxtofl@val+1,w
  3552  066F  00FB               	movwf	___xxtofl@arg+1
  3553  0670  0870               	movf	___xxtofl@val,w
  3554  0671  00FA               	movwf	___xxtofl@arg
  3555  0672                     i1l798:
  3556  0672  0873               	movf	___xxtofl@val+3,w
  3557  0673  0472               	iorwf	___xxtofl@val+2,w
  3558  0674  0471               	iorwf	___xxtofl@val+1,w
  3559  0675  0470               	iorwf	___xxtofl@val,w
  3560  0676  1D03               	skipz
  3561  0677  2E79               	goto	u317_21
  3562  0678  2E7A               	goto	u317_20
  3563  0679                     u317_21:
  3564  0679  2E83               	goto	i1l2437
  3565  067A                     u317_20:
  3566  067A                     i1l2433:
  3567  067A  3000               	movlw	0
  3568  067B  00F3               	movwf	?___xxtofl+3
  3569  067C  3000               	movlw	0
  3570  067D  00F2               	movwf	?___xxtofl+2
  3571  067E  3000               	movlw	0
  3572  067F  00F1               	movwf	?___xxtofl+1
  3573  0680  3000               	movlw	0
  3574  0681  00F0               	movwf	?___xxtofl
  3575  0682  2F09               	goto	i1l800
  3576  0683                     i1l2437:
  3577  0683  3096               	movlw	150
  3578  0684  00F4               	movwf	??___xxtofl
  3579  0685  0874               	movf	??___xxtofl,w
  3580  0686  00F9               	movwf	___xxtofl@exp
  3581  0687  2E95               	goto	i1l2441
  3582  0688                     i1l2439:
  3583  0688  3001               	movlw	1
  3584  0689  00F4               	movwf	??___xxtofl
  3585  068A  0874               	movf	??___xxtofl,w
  3586  068B  07F9               	addwf	___xxtofl@exp,f
  3587  068C  3001               	movlw	1
  3588  068D                     u318_25:
  3589  068D  1003               	clrc
  3590  068E  0CFD               	rrf	___xxtofl@arg+3,f
  3591  068F  0CFC               	rrf	___xxtofl@arg+2,f
  3592  0690  0CFB               	rrf	___xxtofl@arg+1,f
  3593  0691  0CFA               	rrf	___xxtofl@arg,f
  3594  0692  3EFF               	addlw	-1
  3595  0693  1D03               	skipz
  3596  0694  2E8D               	goto	u318_25
  3597  0695                     i1l2441:
  3598  0695  30FE               	movlw	254
  3599  0696  057D               	andwf	___xxtofl@arg+3,w
  3600  0697  1D03               	btfss	3,2
  3601  0698  2E9A               	goto	u319_21
  3602  0699  2E9B               	goto	u319_20
  3603  069A                     u319_21:
  3604  069A  2E88               	goto	i1l2439
  3605  069B                     u319_20:
  3606  069B  2EB7               	goto	i1l804
  3607  069C                     i1l2443:
  3608  069C  3001               	movlw	1
  3609  069D  00F4               	movwf	??___xxtofl
  3610  069E  0874               	movf	??___xxtofl,w
  3611  069F  07F9               	addwf	___xxtofl@exp,f
  3612  06A0                     i1l2445:
  3613  06A0  3001               	movlw	1
  3614  06A1  07FA               	addwf	___xxtofl@arg,f
  3615  06A2  3000               	movlw	0
  3616  06A3  1803               	skipnc
  3617  06A4  3001               	movlw	1
  3618  06A5  07FB               	addwf	___xxtofl@arg+1,f
  3619  06A6  3000               	movlw	0
  3620  06A7  1803               	skipnc
  3621  06A8  3001               	movlw	1
  3622  06A9  07FC               	addwf	___xxtofl@arg+2,f
  3623  06AA  3000               	movlw	0
  3624  06AB  1803               	skipnc
  3625  06AC  3001               	movlw	1
  3626  06AD  07FD               	addwf	___xxtofl@arg+3,f
  3627  06AE                     i1l2447:
  3628  06AE  3001               	movlw	1
  3629  06AF                     u320_25:
  3630  06AF  1003               	clrc
  3631  06B0  0CFD               	rrf	___xxtofl@arg+3,f
  3632  06B1  0CFC               	rrf	___xxtofl@arg+2,f
  3633  06B2  0CFB               	rrf	___xxtofl@arg+1,f
  3634  06B3  0CFA               	rrf	___xxtofl@arg,f
  3635  06B4  3EFF               	addlw	-1
  3636  06B5  1D03               	skipz
  3637  06B6  2EAF               	goto	u320_25
  3638  06B7                     i1l804:
  3639  06B7  30FF               	movlw	255
  3640  06B8  057D               	andwf	___xxtofl@arg+3,w
  3641  06B9  1D03               	btfss	3,2
  3642  06BA  2EBC               	goto	u321_21
  3643  06BB  2EBD               	goto	u321_20
  3644  06BC                     u321_21:
  3645  06BC  2E9C               	goto	i1l2443
  3646  06BD                     u321_20:
  3647  06BD  2EC9               	goto	i1l2451
  3648  06BE                     i1l2449:
  3649  06BE  3001               	movlw	1
  3650  06BF  02F9               	subwf	___xxtofl@exp,f
  3651  06C0  3001               	movlw	1
  3652  06C1  00F4               	movwf	??___xxtofl
  3653  06C2                     u322_25:
  3654  06C2  1003               	clrc
  3655  06C3  0DFA               	rlf	___xxtofl@arg,f
  3656  06C4  0DFB               	rlf	___xxtofl@arg+1,f
  3657  06C5  0DFC               	rlf	___xxtofl@arg+2,f
  3658  06C6  0DFD               	rlf	___xxtofl@arg+3,f
  3659  06C7  0BF4               	decfsz	??___xxtofl,f
  3660  06C8  2EC2               	goto	u322_25
  3661  06C9                     i1l2451:
  3662  06C9  1BFC               	btfsc	___xxtofl@arg+2,7
  3663  06CA  2ECC               	goto	u323_21
  3664  06CB  2ECD               	goto	u323_20
  3665  06CC                     u323_21:
  3666  06CC  2ED3               	goto	i1l811
  3667  06CD                     u323_20:
  3668  06CD                     i1l2453:
  3669  06CD  3002               	movlw	2
  3670  06CE  0279               	subwf	___xxtofl@exp,w
  3671  06CF  1803               	skipnc
  3672  06D0  2ED2               	goto	u324_21
  3673  06D1  2ED3               	goto	u324_20
  3674  06D2                     u324_21:
  3675  06D2  2EBE               	goto	i1l2449
  3676  06D3                     u324_20:
  3677  06D3                     i1l811:
  3678  06D3  1879               	btfsc	___xxtofl@exp,0
  3679  06D4  2ED6               	goto	u325_21
  3680  06D5  2ED7               	goto	u325_20
  3681  06D6                     u325_21:
  3682  06D6  2EDF               	goto	i1l812
  3683  06D7                     u325_20:
  3684  06D7                     i1l2455:
  3685  06D7  30FF               	movlw	255
  3686  06D8  05FA               	andwf	___xxtofl@arg,f
  3687  06D9  30FF               	movlw	255
  3688  06DA  05FB               	andwf	___xxtofl@arg+1,f
  3689  06DB  307F               	movlw	127
  3690  06DC  05FC               	andwf	___xxtofl@arg+2,f
  3691  06DD  30FF               	movlw	255
  3692  06DE  05FD               	andwf	___xxtofl@arg+3,f
  3693  06DF                     i1l812:
  3694  06DF  1003               	clrc
  3695  06E0  0CF9               	rrf	___xxtofl@exp,f
  3696  06E1                     i1l2457:
  3697  06E1  0879               	movf	___xxtofl@exp,w
  3698  06E2  00F4               	movwf	??___xxtofl
  3699  06E3  01F5               	clrf	??___xxtofl+1
  3700  06E4  01F6               	clrf	??___xxtofl+2
  3701  06E5  01F7               	clrf	??___xxtofl+3
  3702  06E6  3018               	movlw	24
  3703  06E7                     u326_25:
  3704  06E7  1003               	clrc
  3705  06E8  0DF4               	rlf	??___xxtofl,f
  3706  06E9  0DF5               	rlf	??___xxtofl+1,f
  3707  06EA  0DF6               	rlf	??___xxtofl+2,f
  3708  06EB  0DF7               	rlf	??___xxtofl+3,f
  3709  06EC                     u326_20:
  3710  06EC  3EFF               	addlw	-1
  3711  06ED  1D03               	skipz
  3712  06EE  2EE7               	goto	u326_25
  3713  06EF  0874               	movf	??___xxtofl,w
  3714  06F0  04FA               	iorwf	___xxtofl@arg,f
  3715  06F1  0875               	movf	??___xxtofl+1,w
  3716  06F2  04FB               	iorwf	___xxtofl@arg+1,f
  3717  06F3  0876               	movf	??___xxtofl+2,w
  3718  06F4  04FC               	iorwf	___xxtofl@arg+2,f
  3719  06F5  0877               	movf	??___xxtofl+3,w
  3720  06F6  04FD               	iorwf	___xxtofl@arg+3,f
  3721  06F7                     i1l2459:
  3722  06F7  0878               	movf	___xxtofl@sign,w
  3723  06F8  1903               	btfsc	3,2
  3724  06F9  2EFB               	goto	u327_21
  3725  06FA  2EFC               	goto	u327_20
  3726  06FB                     u327_21:
  3727  06FB  2F01               	goto	i1l2465
  3728  06FC                     u327_20:
  3729  06FC                     i1l2461:
  3730  06FC  1FF3               	btfss	___xxtofl@val+3,7
  3731  06FD  2EFF               	goto	u328_21
  3732  06FE  2F00               	goto	u328_20
  3733  06FF                     u328_21:
  3734  06FF  2F01               	goto	i1l2465
  3735  0700                     u328_20:
  3736  0700                     i1l2463:
  3737  0700  17FD               	bsf	___xxtofl@arg+3,7
  3738  0701                     i1l2465:
  3739  0701  087D               	movf	___xxtofl@arg+3,w
  3740  0702  00F3               	movwf	?___xxtofl+3
  3741  0703  087C               	movf	___xxtofl@arg+2,w
  3742  0704  00F2               	movwf	?___xxtofl+2
  3743  0705  087B               	movf	___xxtofl@arg+1,w
  3744  0706  00F1               	movwf	?___xxtofl+1
  3745  0707  087A               	movf	___xxtofl@arg,w
  3746  0708  00F0               	movwf	?___xxtofl
  3747  0709                     i1l800:
  3748  0709  0008               	return
  3749  070A                     __end_of___xxtofl:
  3750                           
  3751                           	psect	text11
  3752  089E                     __ptext11:	
  3753 ;; *************** function ___fltol *****************
  3754 ;; Defined at:
  3755 ;;		line 43 in file "C:\Program Files\Microchip\xc8\v2.36\pic\sources\c90\common\fltol.c"
  3756 ;; Parameters:    Size  Location     Type
  3757 ;;  f1              4   72[BANK0 ] unsigned char 
  3758 ;; Auto vars:     Size  Location     Type
  3759 ;;  exp1            1   77[BANK0 ] unsigned char 
  3760 ;;  sign1           1   76[BANK0 ] unsigned char 
  3761 ;; Return value:  Size  Location     Type
  3762 ;;                  4   72[BANK0 ] long 
  3763 ;; Registers used:
  3764 ;;		wreg, status,2, status,0
  3765 ;; Tracked objects:
  3766 ;;		On entry : 0/0
  3767 ;;		On exit  : 0/0
  3768 ;;		Unchanged: 0/0
  3769 ;; Data sizes:     COMMON   BANK0   BANK1   BANK3   BANK2
  3770 ;;      Params:         0       4       0       0       0
  3771 ;;      Locals:         0       2       0       0       0
  3772 ;;      Temps:          0       0       5       0       0
  3773 ;;      Totals:         0       6       5       0       0
  3774 ;;Total ram usage:       11 bytes
  3775 ;; Hardware stack levels used: 1
  3776 ;; This function calls:
  3777 ;;		Nothing
  3778 ;; This function is called by:
  3779 ;;		_map
  3780 ;; This function uses a non-reentrant model
  3781 ;;
  3782                           
  3783  089E                     ___fltol:	
  3784                           ;psect for function ___fltol
  3785                           
  3786  089E                     i1l1913:	
  3787                           ;incstack = 0
  3788                           ; Regs used in ___fltol: [wreg+status,2+status,0]
  3789                           
  3790  089E  1003               	clrc
  3791  089F  1283               	bcf	3,5	;RP0=0, select bank0
  3792  08A0  1303               	bcf	3,6	;RP1=0, select bank0
  3793  08A1  0D6A               	rlf	___fltol@f1+2,w
  3794  08A2  0D6B               	rlf	___fltol@f1+3,w
  3795  08A3  1683               	bsf	3,5	;RP0=1, select bank1
  3796  08A4  1303               	bcf	3,6	;RP1=0, select bank1
  3797  08A5  00C1               	movwf	??___fltol^(0+128)
  3798  08A6  0841               	movf	??___fltol^(0+128),w
  3799  08A7  1283               	bcf	3,5	;RP0=0, select bank0
  3800  08A8  1303               	bcf	3,6	;RP1=0, select bank0
  3801  08A9  00ED               	movwf	___fltol@exp1
  3802  08AA  086D               	movf	___fltol@exp1,w
  3803  08AB  1D03               	btfss	3,2
  3804  08AC  28AE               	goto	u193_21
  3805  08AD  28AF               	goto	u193_20
  3806  08AE                     u193_21:
  3807  08AE  28B8               	goto	i1l1919
  3808  08AF                     u193_20:
  3809  08AF                     i1l1915:
  3810  08AF  3000               	movlw	0
  3811  08B0  00EB               	movwf	?___fltol+3
  3812  08B1  3000               	movlw	0
  3813  08B2  00EA               	movwf	?___fltol+2
  3814  08B3  3000               	movlw	0
  3815  08B4  00E9               	movwf	?___fltol+1
  3816  08B5  3000               	movlw	0
  3817  08B6  00E8               	movwf	?___fltol
  3818  08B7  2939               	goto	i1l551
  3819  08B8                     i1l1919:
  3820  08B8  0868               	movf	___fltol@f1,w
  3821  08B9  1683               	bsf	3,5	;RP0=1, select bank1
  3822  08BA  1303               	bcf	3,6	;RP1=0, select bank1
  3823  08BB  00C1               	movwf	??___fltol^(0+128)
  3824  08BC  1283               	bcf	3,5	;RP0=0, select bank0
  3825  08BD  1303               	bcf	3,6	;RP1=0, select bank0
  3826  08BE  0869               	movf	___fltol@f1+1,w
  3827  08BF  1683               	bsf	3,5	;RP0=1, select bank1
  3828  08C0  1303               	bcf	3,6	;RP1=0, select bank1
  3829  08C1  00C2               	movwf	(??___fltol^(0+128)+1)
  3830  08C2  1283               	bcf	3,5	;RP0=0, select bank0
  3831  08C3  1303               	bcf	3,6	;RP1=0, select bank0
  3832  08C4  086A               	movf	___fltol@f1+2,w
  3833  08C5  1683               	bsf	3,5	;RP0=1, select bank1
  3834  08C6  1303               	bcf	3,6	;RP1=0, select bank1
  3835  08C7  00C3               	movwf	(??___fltol^(0+128)+2)
  3836  08C8  1283               	bcf	3,5	;RP0=0, select bank0
  3837  08C9  1303               	bcf	3,6	;RP1=0, select bank0
  3838  08CA  086B               	movf	___fltol@f1+3,w
  3839  08CB  1683               	bsf	3,5	;RP0=1, select bank1
  3840  08CC  1303               	bcf	3,6	;RP1=0, select bank1
  3841  08CD  00C4               	movwf	(??___fltol^(0+128)+3)
  3842  08CE  301F               	movlw	31
  3843  08CF                     u194_25:
  3844  08CF  1003               	clrc
  3845  08D0  0CC4               	rrf	(??___fltol^(0+128)+3),f
  3846  08D1  0CC3               	rrf	(??___fltol^(0+128)+2),f
  3847  08D2  0CC2               	rrf	(??___fltol^(0+128)+1),f
  3848  08D3  0CC1               	rrf	??___fltol^(0+128),f
  3849  08D4                     u194_20:
  3850  08D4  3EFF               	addlw	-1
  3851  08D5  1D03               	skipz
  3852  08D6  28CF               	goto	u194_25
  3853  08D7  0841               	movf	??___fltol^(0+128),w
  3854  08D8  00C5               	movwf	(??___fltol+4)^(0+128)
  3855  08D9  0845               	movf	(??___fltol+4)^(0+128),w
  3856  08DA  1283               	bcf	3,5	;RP0=0, select bank0
  3857  08DB  1303               	bcf	3,6	;RP1=0, select bank0
  3858  08DC  00EC               	movwf	___fltol@sign1
  3859  08DD                     i1l1921:
  3860  08DD  17EA               	bsf	___fltol@f1+2,7
  3861  08DE                     i1l1923:
  3862  08DE  30FF               	movlw	255
  3863  08DF  05E8               	andwf	___fltol@f1,f
  3864  08E0  30FF               	movlw	255
  3865  08E1  05E9               	andwf	___fltol@f1+1,f
  3866  08E2  30FF               	movlw	255
  3867  08E3  05EA               	andwf	___fltol@f1+2,f
  3868  08E4  3000               	movlw	0
  3869  08E5  05EB               	andwf	___fltol@f1+3,f
  3870  08E6                     i1l1925:
  3871  08E6  3096               	movlw	150
  3872  08E7  02ED               	subwf	___fltol@exp1,f
  3873  08E8                     i1l1927:
  3874  08E8  1FED               	btfss	___fltol@exp1,7
  3875  08E9  28EB               	goto	u195_21
  3876  08EA  28EC               	goto	u195_20
  3877  08EB                     u195_21:
  3878  08EB  290A               	goto	i1l1937
  3879  08EC                     u195_20:
  3880  08EC                     i1l1929:
  3881  08EC  086D               	movf	___fltol@exp1,w
  3882  08ED  3A80               	xorlw	128
  3883  08EE  3E97               	addlw	151
  3884  08EF  1803               	skipnc
  3885  08F0  28F2               	goto	u196_21
  3886  08F1  28F3               	goto	u196_20
  3887  08F2                     u196_21:
  3888  08F2  28F4               	goto	i1l1935
  3889  08F3                     u196_20:
  3890  08F3  28AF               	goto	i1l1915
  3891  08F4                     i1l1935:
  3892  08F4  3001               	movlw	1
  3893  08F5                     u197_25:
  3894  08F5  1003               	clrc
  3895  08F6  0CEB               	rrf	___fltol@f1+3,f
  3896  08F7  0CEA               	rrf	___fltol@f1+2,f
  3897  08F8  0CE9               	rrf	___fltol@f1+1,f
  3898  08F9  0CE8               	rrf	___fltol@f1,f
  3899  08FA  3EFF               	addlw	-1
  3900  08FB  1D03               	skipz
  3901  08FC  28F5               	goto	u197_25
  3902  08FD  3001               	movlw	1
  3903  08FE  1683               	bsf	3,5	;RP0=1, select bank1
  3904  08FF  1303               	bcf	3,6	;RP1=0, select bank1
  3905  0900  00C1               	movwf	??___fltol^(0+128)
  3906  0901  0841               	movf	??___fltol^(0+128),w
  3907  0902  1283               	bcf	3,5	;RP0=0, select bank0
  3908  0903  1303               	bcf	3,6	;RP1=0, select bank0
  3909  0904  07ED               	addwf	___fltol@exp1,f
  3910  0905  1D03               	btfss	3,2
  3911  0906  2908               	goto	u198_21
  3912  0907  2909               	goto	u198_20
  3913  0908                     u198_21:
  3914  0908  28F4               	goto	i1l1935
  3915  0909                     u198_20:
  3916  0909  2929               	goto	i1l1945
  3917  090A                     i1l1937:
  3918  090A  3020               	movlw	32
  3919  090B  026D               	subwf	___fltol@exp1,w
  3920  090C  1C03               	skipc
  3921  090D  290F               	goto	u199_21
  3922  090E  2910               	goto	u199_20
  3923  090F                     u199_21:
  3924  090F  2924               	goto	i1l558
  3925  0910                     u199_20:
  3926  0910  28AF               	goto	i1l1915
  3927  0911                     i1l1943:
  3928  0911  3001               	movlw	1
  3929  0912  1683               	bsf	3,5	;RP0=1, select bank1
  3930  0913  1303               	bcf	3,6	;RP1=0, select bank1
  3931  0914  00C1               	movwf	??___fltol^(0+128)
  3932  0915                     u200_25:
  3933  0915  1003               	clrc
  3934  0916  1283               	bcf	3,5	;RP0=0, select bank0
  3935  0917  1303               	bcf	3,6	;RP1=0, select bank0
  3936  0918  0DE8               	rlf	___fltol@f1,f
  3937  0919  0DE9               	rlf	___fltol@f1+1,f
  3938  091A  0DEA               	rlf	___fltol@f1+2,f
  3939  091B  0DEB               	rlf	___fltol@f1+3,f
  3940  091C  1683               	bsf	3,5	;RP0=1, select bank1
  3941  091D  1303               	bcf	3,6	;RP1=0, select bank1
  3942  091E  0BC1               	decfsz	??___fltol^(0+128),f
  3943  091F  2915               	goto	u200_25
  3944  0920  3001               	movlw	1
  3945  0921  1283               	bcf	3,5	;RP0=0, select bank0
  3946  0922  1303               	bcf	3,6	;RP1=0, select bank0
  3947  0923  02ED               	subwf	___fltol@exp1,f
  3948  0924                     i1l558:
  3949  0924  086D               	movf	___fltol@exp1,w
  3950  0925  1D03               	btfss	3,2
  3951  0926  2928               	goto	u201_21
  3952  0927  2929               	goto	u201_20
  3953  0928                     u201_21:
  3954  0928  2911               	goto	i1l1943
  3955  0929                     u201_20:
  3956  0929                     i1l1945:
  3957  0929  086C               	movf	___fltol@sign1,w
  3958  092A  1903               	btfsc	3,2
  3959  092B  292D               	goto	u202_21
  3960  092C  292E               	goto	u202_20
  3961  092D                     u202_21:
  3962  092D  2939               	goto	i1l561
  3963  092E                     u202_20:
  3964  092E                     i1l1947:
  3965  092E  09E8               	comf	___fltol@f1,f
  3966  092F  09E9               	comf	___fltol@f1+1,f
  3967  0930  09EA               	comf	___fltol@f1+2,f
  3968  0931  09EB               	comf	___fltol@f1+3,f
  3969  0932  0AE8               	incf	___fltol@f1,f
  3970  0933  1903               	skipnz
  3971  0934  0AE9               	incf	___fltol@f1+1,f
  3972  0935  1903               	skipnz
  3973  0936  0AEA               	incf	___fltol@f1+2,f
  3974  0937  1903               	skipnz
  3975  0938  0AEB               	incf	___fltol@f1+3,f
  3976  0939                     i1l561:
  3977  0939                     i1l551:
  3978  0939  0008               	return
  3979  093A                     __end_of___fltol:
  3980                           
  3981                           	psect	text12
  3982  002E                     __ptext12:	
  3983 ;; *************** function ___flmul *****************
  3984 ;; Defined at:
  3985 ;;		line 8 in file "C:\Program Files\Microchip\xc8\v2.36\pic\sources\c90\common\sprcmul.c"
  3986 ;; Parameters:    Size  Location     Type
  3987 ;;  b               4   26[BANK0 ] long 
  3988 ;;  a               4   30[BANK0 ] long 
  3989 ;; Auto vars:     Size  Location     Type
  3990 ;;  prod            4   46[BANK0 ] struct .
  3991 ;;  grs             4   40[BANK0 ] unsigned long 
  3992 ;;  temp            2   50[BANK0 ] struct .
  3993 ;;  bexp            1   45[BANK0 ] unsigned char 
  3994 ;;  aexp            1   44[BANK0 ] unsigned char 
  3995 ;;  sign            1   39[BANK0 ] unsigned char 
  3996 ;; Return value:  Size  Location     Type
  3997 ;;                  4   26[BANK0 ] unsigned char 
  3998 ;; Registers used:
  3999 ;;		wreg, status,2, status,0, btemp+1, pclath, cstack
  4000 ;; Tracked objects:
  4001 ;;		On entry : 0/0
  4002 ;;		On exit  : 0/0
  4003 ;;		Unchanged: 0/0
  4004 ;; Data sizes:     COMMON   BANK0   BANK1   BANK3   BANK2
  4005 ;;      Params:         0       8       0       0       0
  4006 ;;      Locals:         0      13       0       0       0
  4007 ;;      Temps:          0       5       0       0       0
  4008 ;;      Totals:         0      26       0       0       0
  4009 ;;Total ram usage:       26 bytes
  4010 ;; Hardware stack levels used: 1
  4011 ;; Hardware stack levels required when called: 1
  4012 ;; This function calls:
  4013 ;;		__Umul8_16
  4014 ;; This function is called by:
  4015 ;;		_map
  4016 ;; This function uses a non-reentrant model
  4017 ;;
  4018                           
  4019  002E                     ___flmul:	
  4020                           ;psect for function ___flmul
  4021                           
  4022  002E                     i1l2285:	
  4023                           ;incstack = 0
  4024                           ; Regs used in ___flmul: [wreg+status,2+status,0+btemp+1+pclath+cstack]
  4025                           
  4026  002E  1283               	bcf	3,5	;RP0=0, select bank0
  4027  002F  1303               	bcf	3,6	;RP1=0, select bank0
  4028  0030  083D               	movf	___flmul@b+3,w
  4029  0031  3980               	andlw	128
  4030  0032  00C2               	movwf	??___flmul
  4031  0033  0842               	movf	??___flmul,w
  4032  0034  00C7               	movwf	___flmul@sign
  4033  0035                     i1l2287:
  4034  0035  083D               	movf	___flmul@b+3,w
  4035  0036  00C2               	movwf	??___flmul
  4036  0037  0742               	addwf	??___flmul,w
  4037  0038  00C3               	movwf	??___flmul+1
  4038  0039  0843               	movf	??___flmul+1,w
  4039  003A  00CD               	movwf	___flmul@bexp
  4040  003B                     i1l2289:
  4041  003B  1FBC               	btfss	___flmul@b+2,7
  4042  003C  283E               	goto	u278_21
  4043  003D  283F               	goto	u278_20
  4044  003E                     u278_21:
  4045  003E  2840               	goto	i1l2293
  4046  003F                     u278_20:
  4047  003F                     i1l2291:
  4048  003F  144D               	bsf	___flmul@bexp,0
  4049  0040                     i1l2293:
  4050  0040  084D               	movf	___flmul@bexp,w
  4051  0041  1903               	btfsc	3,2
  4052  0042  2844               	goto	u279_21
  4053  0043  2845               	goto	u279_20
  4054  0044                     u279_21:
  4055  0044  2854               	goto	i1l2301
  4056  0045                     u279_20:
  4057  0045                     i1l2295:
  4058  0045  0A4D               	incf	___flmul@bexp,w
  4059  0046  1D03               	btfss	3,2
  4060  0047  2849               	goto	u280_21
  4061  0048  284A               	goto	u280_20
  4062  0049                     u280_21:
  4063  0049  2852               	goto	i1l2299
  4064  004A                     u280_20:
  4065  004A                     i1l2297:
  4066  004A  3000               	movlw	0
  4067  004B  00BD               	movwf	___flmul@b+3
  4068  004C  3000               	movlw	0
  4069  004D  00BC               	movwf	___flmul@b+2
  4070  004E  3000               	movlw	0
  4071  004F  00BB               	movwf	___flmul@b+1
  4072  0050  3000               	movlw	0
  4073  0051  00BA               	movwf	___flmul@b
  4074  0052                     i1l2299:
  4075  0052  17BC               	bsf	___flmul@b+2,7
  4076  0053  285C               	goto	i1l2303
  4077  0054                     i1l2301:
  4078  0054  3000               	movlw	0
  4079  0055  00BD               	movwf	___flmul@b+3
  4080  0056  3000               	movlw	0
  4081  0057  00BC               	movwf	___flmul@b+2
  4082  0058  3000               	movlw	0
  4083  0059  00BB               	movwf	___flmul@b+1
  4084  005A  3000               	movlw	0
  4085  005B  00BA               	movwf	___flmul@b
  4086  005C                     i1l2303:
  4087  005C  0841               	movf	___flmul@a+3,w
  4088  005D  3980               	andlw	128
  4089  005E  00C2               	movwf	??___flmul
  4090  005F  0842               	movf	??___flmul,w
  4091  0060  06C7               	xorwf	___flmul@sign,f
  4092  0061                     i1l2305:
  4093  0061  0841               	movf	___flmul@a+3,w
  4094  0062  00C2               	movwf	??___flmul
  4095  0063  0742               	addwf	??___flmul,w
  4096  0064  00C3               	movwf	??___flmul+1
  4097  0065  0843               	movf	??___flmul+1,w
  4098  0066  00CC               	movwf	___flmul@aexp
  4099  0067                     i1l2307:
  4100  0067  1FC0               	btfss	___flmul@a+2,7
  4101  0068  286A               	goto	u281_21
  4102  0069  286B               	goto	u281_20
  4103  006A                     u281_21:
  4104  006A  286C               	goto	i1l2311
  4105  006B                     u281_20:
  4106  006B                     i1l2309:
  4107  006B  144C               	bsf	___flmul@aexp,0
  4108  006C                     i1l2311:
  4109  006C  084C               	movf	___flmul@aexp,w
  4110  006D  1903               	btfsc	3,2
  4111  006E  2870               	goto	u282_21
  4112  006F  2871               	goto	u282_20
  4113  0070                     u282_21:
  4114  0070  2880               	goto	i1l2319
  4115  0071                     u282_20:
  4116  0071                     i1l2313:
  4117  0071  0A4C               	incf	___flmul@aexp,w
  4118  0072  1D03               	btfss	3,2
  4119  0073  2875               	goto	u283_21
  4120  0074  2876               	goto	u283_20
  4121  0075                     u283_21:
  4122  0075  287E               	goto	i1l2317
  4123  0076                     u283_20:
  4124  0076                     i1l2315:
  4125  0076  3000               	movlw	0
  4126  0077  00C1               	movwf	___flmul@a+3
  4127  0078  3000               	movlw	0
  4128  0079  00C0               	movwf	___flmul@a+2
  4129  007A  3000               	movlw	0
  4130  007B  00BF               	movwf	___flmul@a+1
  4131  007C  3000               	movlw	0
  4132  007D  00BE               	movwf	___flmul@a
  4133  007E                     i1l2317:
  4134  007E  17C0               	bsf	___flmul@a+2,7
  4135  007F  2888               	goto	i1l2321
  4136  0080                     i1l2319:
  4137  0080  3000               	movlw	0
  4138  0081  00C1               	movwf	___flmul@a+3
  4139  0082  3000               	movlw	0
  4140  0083  00C0               	movwf	___flmul@a+2
  4141  0084  3000               	movlw	0
  4142  0085  00BF               	movwf	___flmul@a+1
  4143  0086  3000               	movlw	0
  4144  0087  00BE               	movwf	___flmul@a
  4145  0088                     i1l2321:
  4146  0088  084C               	movf	___flmul@aexp,w
  4147  0089  1903               	btfsc	3,2
  4148  008A  288C               	goto	u284_21
  4149  008B  288D               	goto	u284_20
  4150  008C                     u284_21:
  4151  008C  2892               	goto	i1l2325
  4152  008D                     u284_20:
  4153  008D                     i1l2323:
  4154  008D  084D               	movf	___flmul@bexp,w
  4155  008E  1D03               	btfss	3,2
  4156  008F  2891               	goto	u285_21
  4157  0090  2892               	goto	u285_20
  4158  0091                     u285_21:
  4159  0091  289B               	goto	i1l2329
  4160  0092                     u285_20:
  4161  0092                     i1l2325:
  4162  0092  3000               	movlw	0
  4163  0093  00BD               	movwf	?___flmul+3
  4164  0094  3000               	movlw	0
  4165  0095  00BC               	movwf	?___flmul+2
  4166  0096  3000               	movlw	0
  4167  0097  00BB               	movwf	?___flmul+1
  4168  0098  3000               	movlw	0
  4169  0099  00BA               	movwf	?___flmul
  4170  009A  2B8E               	goto	i1l754
  4171  009B                     i1l2329:
  4172  009B  083A               	movf	___flmul@b,w
  4173  009C  00C2               	movwf	??___flmul
  4174  009D  0842               	movf	??___flmul,w
  4175  009E  00F0               	movwf	__Umul8_16@multiplicand
  4176  009F  0840               	movf	___flmul@a+2,w
  4177  00A0  120A  158A  2002  120A  118A  	fcall	__Umul8_16
  4178  00A5  0871               	movf	?__Umul8_16+1,w
  4179  00A6  1283               	bcf	3,5	;RP0=0, select bank0
  4180  00A7  1303               	bcf	3,6	;RP1=0, select bank0
  4181  00A8  00D3               	movwf	___flmul@temp+1
  4182  00A9  0870               	movf	?__Umul8_16,w
  4183  00AA  00D2               	movwf	___flmul@temp
  4184  00AB                     i1l2331:
  4185  00AB  0852               	movf	___flmul@temp,w
  4186  00AC  00C2               	movwf	??___flmul
  4187  00AD  01C3               	clrf	??___flmul+1
  4188  00AE  01C4               	clrf	??___flmul+2
  4189  00AF  01C5               	clrf	??___flmul+3
  4190  00B0  0845               	movf	??___flmul+3,w
  4191  00B1  00CB               	movwf	___flmul@grs+3
  4192  00B2  0844               	movf	??___flmul+2,w
  4193  00B3  00CA               	movwf	___flmul@grs+2
  4194  00B4  0843               	movf	??___flmul+1,w
  4195  00B5  00C9               	movwf	___flmul@grs+1
  4196  00B6  0842               	movf	??___flmul,w
  4197  00B7  00C8               	movwf	___flmul@grs
  4198  00B8                     i1l2333:
  4199  00B8  0853               	movf	___flmul@temp+1,w
  4200  00B9  00C2               	movwf	??___flmul
  4201  00BA  01C3               	clrf	??___flmul+1
  4202  00BB  01C4               	clrf	??___flmul+2
  4203  00BC  01C5               	clrf	??___flmul+3
  4204  00BD  0845               	movf	??___flmul+3,w
  4205  00BE  00D1               	movwf	___flmul@prod+3
  4206  00BF  0844               	movf	??___flmul+2,w
  4207  00C0  00D0               	movwf	___flmul@prod+2
  4208  00C1  0843               	movf	??___flmul+1,w
  4209  00C2  00CF               	movwf	___flmul@prod+1
  4210  00C3  0842               	movf	??___flmul,w
  4211  00C4  00CE               	movwf	___flmul@prod
  4212  00C5  083B               	movf	___flmul@b+1,w
  4213  00C6  00C2               	movwf	??___flmul
  4214  00C7  0842               	movf	??___flmul,w
  4215  00C8  00F0               	movwf	__Umul8_16@multiplicand
  4216  00C9  083F               	movf	___flmul@a+1,w
  4217  00CA  120A  158A  2002  120A  118A  	fcall	__Umul8_16
  4218  00CF  0871               	movf	?__Umul8_16+1,w
  4219  00D0  1283               	bcf	3,5	;RP0=0, select bank0
  4220  00D1  1303               	bcf	3,6	;RP1=0, select bank0
  4221  00D2  00D3               	movwf	___flmul@temp+1
  4222  00D3  0870               	movf	?__Umul8_16,w
  4223  00D4  00D2               	movwf	___flmul@temp
  4224  00D5                     i1l2335:
  4225  00D5  0852               	movf	___flmul@temp,w
  4226  00D6  00C2               	movwf	??___flmul
  4227  00D7  01C3               	clrf	??___flmul+1
  4228  00D8  01C4               	clrf	??___flmul+2
  4229  00D9  01C5               	clrf	??___flmul+3
  4230  00DA  0842               	movf	??___flmul,w
  4231  00DB  07C8               	addwf	___flmul@grs,f
  4232  00DC  0843               	movf	??___flmul+1,w
  4233  00DD  1103               	clrz
  4234  00DE  1803               	skipnc
  4235  00DF  3E01               	addlw	1
  4236  00E0  1903               	skipnz
  4237  00E1  28E3               	goto	u286_21
  4238  00E2  07C9               	addwf	___flmul@grs+1,f
  4239  00E3                     u286_21:
  4240  00E3  0844               	movf	??___flmul+2,w
  4241  00E4  1103               	clrz
  4242  00E5  1803               	skipnc
  4243  00E6  3E01               	addlw	1
  4244  00E7  1903               	skipnz
  4245  00E8  28EA               	goto	u286_22
  4246  00E9  07CA               	addwf	___flmul@grs+2,f
  4247  00EA                     u286_22:
  4248  00EA  0845               	movf	??___flmul+3,w
  4249  00EB  1103               	clrz
  4250  00EC  1803               	skipnc
  4251  00ED  3E01               	addlw	1
  4252  00EE  1903               	skipnz
  4253  00EF  28F1               	goto	u286_23
  4254  00F0  07CB               	addwf	___flmul@grs+3,f
  4255  00F1                     u286_23:
  4256  00F1                     i1l2337:
  4257  00F1  0853               	movf	___flmul@temp+1,w
  4258  00F2  00C2               	movwf	??___flmul
  4259  00F3  01C3               	clrf	??___flmul+1
  4260  00F4  01C4               	clrf	??___flmul+2
  4261  00F5  01C5               	clrf	??___flmul+3
  4262  00F6  0842               	movf	??___flmul,w
  4263  00F7  07CE               	addwf	___flmul@prod,f
  4264  00F8  0843               	movf	??___flmul+1,w
  4265  00F9  1103               	clrz
  4266  00FA  1803               	skipnc
  4267  00FB  3E01               	addlw	1
  4268  00FC  1903               	skipnz
  4269  00FD  28FF               	goto	u287_21
  4270  00FE  07CF               	addwf	___flmul@prod+1,f
  4271  00FF                     u287_21:
  4272  00FF  0844               	movf	??___flmul+2,w
  4273  0100  1103               	clrz
  4274  0101  1803               	skipnc
  4275  0102  3E01               	addlw	1
  4276  0103  1903               	skipnz
  4277  0104  2906               	goto	u287_22
  4278  0105  07D0               	addwf	___flmul@prod+2,f
  4279  0106                     u287_22:
  4280  0106  0845               	movf	??___flmul+3,w
  4281  0107  1103               	clrz
  4282  0108  1803               	skipnc
  4283  0109  3E01               	addlw	1
  4284  010A  1903               	skipnz
  4285  010B  290D               	goto	u287_23
  4286  010C  07D1               	addwf	___flmul@prod+3,f
  4287  010D                     u287_23:
  4288  010D  083C               	movf	___flmul@b+2,w
  4289  010E  00C2               	movwf	??___flmul
  4290  010F  0842               	movf	??___flmul,w
  4291  0110  00F0               	movwf	__Umul8_16@multiplicand
  4292  0111  083E               	movf	___flmul@a,w
  4293  0112  120A  158A  2002  120A  118A  	fcall	__Umul8_16
  4294  0117  0871               	movf	?__Umul8_16+1,w
  4295  0118  1283               	bcf	3,5	;RP0=0, select bank0
  4296  0119  1303               	bcf	3,6	;RP1=0, select bank0
  4297  011A  00D3               	movwf	___flmul@temp+1
  4298  011B  0870               	movf	?__Umul8_16,w
  4299  011C  00D2               	movwf	___flmul@temp
  4300  011D                     i1l2339:
  4301  011D  0852               	movf	___flmul@temp,w
  4302  011E  00C2               	movwf	??___flmul
  4303  011F  01C3               	clrf	??___flmul+1
  4304  0120  01C4               	clrf	??___flmul+2
  4305  0121  01C5               	clrf	??___flmul+3
  4306  0122  0842               	movf	??___flmul,w
  4307  0123  07C8               	addwf	___flmul@grs,f
  4308  0124  0843               	movf	??___flmul+1,w
  4309  0125  1103               	clrz
  4310  0126  1803               	skipnc
  4311  0127  3E01               	addlw	1
  4312  0128  1903               	skipnz
  4313  0129  292B               	goto	u288_21
  4314  012A  07C9               	addwf	___flmul@grs+1,f
  4315  012B                     u288_21:
  4316  012B  0844               	movf	??___flmul+2,w
  4317  012C  1103               	clrz
  4318  012D  1803               	skipnc
  4319  012E  3E01               	addlw	1
  4320  012F  1903               	skipnz
  4321  0130  2932               	goto	u288_22
  4322  0131  07CA               	addwf	___flmul@grs+2,f
  4323  0132                     u288_22:
  4324  0132  0845               	movf	??___flmul+3,w
  4325  0133  1103               	clrz
  4326  0134  1803               	skipnc
  4327  0135  3E01               	addlw	1
  4328  0136  1903               	skipnz
  4329  0137  2939               	goto	u288_23
  4330  0138  07CB               	addwf	___flmul@grs+3,f
  4331  0139                     u288_23:
  4332  0139                     i1l2341:
  4333  0139  0853               	movf	___flmul@temp+1,w
  4334  013A  00C2               	movwf	??___flmul
  4335  013B  01C3               	clrf	??___flmul+1
  4336  013C  01C4               	clrf	??___flmul+2
  4337  013D  01C5               	clrf	??___flmul+3
  4338  013E  0842               	movf	??___flmul,w
  4339  013F  07CE               	addwf	___flmul@prod,f
  4340  0140  0843               	movf	??___flmul+1,w
  4341  0141  1103               	clrz
  4342  0142  1803               	skipnc
  4343  0143  3E01               	addlw	1
  4344  0144  1903               	skipnz
  4345  0145  2947               	goto	u289_21
  4346  0146  07CF               	addwf	___flmul@prod+1,f
  4347  0147                     u289_21:
  4348  0147  0844               	movf	??___flmul+2,w
  4349  0148  1103               	clrz
  4350  0149  1803               	skipnc
  4351  014A  3E01               	addlw	1
  4352  014B  1903               	skipnz
  4353  014C  294E               	goto	u289_22
  4354  014D  07D0               	addwf	___flmul@prod+2,f
  4355  014E                     u289_22:
  4356  014E  0845               	movf	??___flmul+3,w
  4357  014F  1103               	clrz
  4358  0150  1803               	skipnc
  4359  0151  3E01               	addlw	1
  4360  0152  1903               	skipnz
  4361  0153  2955               	goto	u289_23
  4362  0154  07D1               	addwf	___flmul@prod+3,f
  4363  0155                     u289_23:
  4364  0155                     i1l2343:
  4365  0155  3008               	movlw	8
  4366  0156  00C2               	movwf	??___flmul
  4367  0157                     u290_25:
  4368  0157  1003               	clrc
  4369  0158  0DC8               	rlf	___flmul@grs,f
  4370  0159  0DC9               	rlf	___flmul@grs+1,f
  4371  015A  0DCA               	rlf	___flmul@grs+2,f
  4372  015B  0DCB               	rlf	___flmul@grs+3,f
  4373  015C  0BC2               	decfsz	??___flmul,f
  4374  015D  2957               	goto	u290_25
  4375  015E                     i1l2345:
  4376  015E  083B               	movf	___flmul@b+1,w
  4377  015F  00C2               	movwf	??___flmul
  4378  0160  0842               	movf	??___flmul,w
  4379  0161  00F0               	movwf	__Umul8_16@multiplicand
  4380  0162  083E               	movf	___flmul@a,w
  4381  0163  120A  158A  2002  120A  118A  	fcall	__Umul8_16
  4382  0168  0871               	movf	?__Umul8_16+1,w
  4383  0169  1283               	bcf	3,5	;RP0=0, select bank0
  4384  016A  1303               	bcf	3,6	;RP1=0, select bank0
  4385  016B  00D3               	movwf	___flmul@temp+1
  4386  016C  0870               	movf	?__Umul8_16,w
  4387  016D  00D2               	movwf	___flmul@temp
  4388  016E                     i1l2347:
  4389  016E  0852               	movf	___flmul@temp,w
  4390  016F  00C2               	movwf	??___flmul
  4391  0170  0853               	movf	___flmul@temp+1,w
  4392  0171  00C3               	movwf	??___flmul+1
  4393  0172  01C4               	clrf	??___flmul+2
  4394  0173  01C5               	clrf	??___flmul+3
  4395  0174  0842               	movf	??___flmul,w
  4396  0175  07C8               	addwf	___flmul@grs,f
  4397  0176  0843               	movf	??___flmul+1,w
  4398  0177  1103               	clrz
  4399  0178  1803               	skipnc
  4400  0179  3E01               	addlw	1
  4401  017A  1903               	skipnz
  4402  017B  297D               	goto	u291_21
  4403  017C  07C9               	addwf	___flmul@grs+1,f
  4404  017D                     u291_21:
  4405  017D  0844               	movf	??___flmul+2,w
  4406  017E  1103               	clrz
  4407  017F  1803               	skipnc
  4408  0180  3E01               	addlw	1
  4409  0181  1903               	skipnz
  4410  0182  2984               	goto	u291_22
  4411  0183  07CA               	addwf	___flmul@grs+2,f
  4412  0184                     u291_22:
  4413  0184  0845               	movf	??___flmul+3,w
  4414  0185  1103               	clrz
  4415  0186  1803               	skipnc
  4416  0187  3E01               	addlw	1
  4417  0188  1903               	skipnz
  4418  0189  298B               	goto	u291_23
  4419  018A  07CB               	addwf	___flmul@grs+3,f
  4420  018B                     u291_23:
  4421  018B                     i1l2349:
  4422  018B  083A               	movf	___flmul@b,w
  4423  018C  00C2               	movwf	??___flmul
  4424  018D  0842               	movf	??___flmul,w
  4425  018E  00F0               	movwf	__Umul8_16@multiplicand
  4426  018F  083F               	movf	___flmul@a+1,w
  4427  0190  120A  158A  2002  120A  118A  	fcall	__Umul8_16
  4428  0195  0871               	movf	?__Umul8_16+1,w
  4429  0196  1283               	bcf	3,5	;RP0=0, select bank0
  4430  0197  1303               	bcf	3,6	;RP1=0, select bank0
  4431  0198  00D3               	movwf	___flmul@temp+1
  4432  0199  0870               	movf	?__Umul8_16,w
  4433  019A  00D2               	movwf	___flmul@temp
  4434  019B                     i1l2351:
  4435  019B  0852               	movf	___flmul@temp,w
  4436  019C  00C2               	movwf	??___flmul
  4437  019D  0853               	movf	___flmul@temp+1,w
  4438  019E  00C3               	movwf	??___flmul+1
  4439  019F  01C4               	clrf	??___flmul+2
  4440  01A0  01C5               	clrf	??___flmul+3
  4441  01A1  0842               	movf	??___flmul,w
  4442  01A2  07C8               	addwf	___flmul@grs,f
  4443  01A3  0843               	movf	??___flmul+1,w
  4444  01A4  1103               	clrz
  4445  01A5  1803               	skipnc
  4446  01A6  3E01               	addlw	1
  4447  01A7  1903               	skipnz
  4448  01A8  29AA               	goto	u292_21
  4449  01A9  07C9               	addwf	___flmul@grs+1,f
  4450  01AA                     u292_21:
  4451  01AA  0844               	movf	??___flmul+2,w
  4452  01AB  1103               	clrz
  4453  01AC  1803               	skipnc
  4454  01AD  3E01               	addlw	1
  4455  01AE  1903               	skipnz
  4456  01AF  29B1               	goto	u292_22
  4457  01B0  07CA               	addwf	___flmul@grs+2,f
  4458  01B1                     u292_22:
  4459  01B1  0845               	movf	??___flmul+3,w
  4460  01B2  1103               	clrz
  4461  01B3  1803               	skipnc
  4462  01B4  3E01               	addlw	1
  4463  01B5  1903               	skipnz
  4464  01B6  29B8               	goto	u292_23
  4465  01B7  07CB               	addwf	___flmul@grs+3,f
  4466  01B8                     u292_23:
  4467  01B8                     i1l2353:
  4468  01B8  3008               	movlw	8
  4469  01B9  00C2               	movwf	??___flmul
  4470  01BA                     u293_25:
  4471  01BA  1003               	clrc
  4472  01BB  0DC8               	rlf	___flmul@grs,f
  4473  01BC  0DC9               	rlf	___flmul@grs+1,f
  4474  01BD  0DCA               	rlf	___flmul@grs+2,f
  4475  01BE  0DCB               	rlf	___flmul@grs+3,f
  4476  01BF  0BC2               	decfsz	??___flmul,f
  4477  01C0  29BA               	goto	u293_25
  4478  01C1  083A               	movf	___flmul@b,w
  4479  01C2  00C2               	movwf	??___flmul
  4480  01C3  0842               	movf	??___flmul,w
  4481  01C4  00F0               	movwf	__Umul8_16@multiplicand
  4482  01C5  083E               	movf	___flmul@a,w
  4483  01C6  120A  158A  2002  120A  118A  	fcall	__Umul8_16
  4484  01CB  0871               	movf	?__Umul8_16+1,w
  4485  01CC  1283               	bcf	3,5	;RP0=0, select bank0
  4486  01CD  1303               	bcf	3,6	;RP1=0, select bank0
  4487  01CE  00D3               	movwf	___flmul@temp+1
  4488  01CF  0870               	movf	?__Umul8_16,w
  4489  01D0  00D2               	movwf	___flmul@temp
  4490  01D1                     i1l2355:
  4491  01D1  0852               	movf	___flmul@temp,w
  4492  01D2  00C2               	movwf	??___flmul
  4493  01D3  0853               	movf	___flmul@temp+1,w
  4494  01D4  00C3               	movwf	??___flmul+1
  4495  01D5  01C4               	clrf	??___flmul+2
  4496  01D6  01C5               	clrf	??___flmul+3
  4497  01D7  0842               	movf	??___flmul,w
  4498  01D8  07C8               	addwf	___flmul@grs,f
  4499  01D9  0843               	movf	??___flmul+1,w
  4500  01DA  1103               	clrz
  4501  01DB  1803               	skipnc
  4502  01DC  3E01               	addlw	1
  4503  01DD  1903               	skipnz
  4504  01DE  29E0               	goto	u294_21
  4505  01DF  07C9               	addwf	___flmul@grs+1,f
  4506  01E0                     u294_21:
  4507  01E0  0844               	movf	??___flmul+2,w
  4508  01E1  1103               	clrz
  4509  01E2  1803               	skipnc
  4510  01E3  3E01               	addlw	1
  4511  01E4  1903               	skipnz
  4512  01E5  29E7               	goto	u294_22
  4513  01E6  07CA               	addwf	___flmul@grs+2,f
  4514  01E7                     u294_22:
  4515  01E7  0845               	movf	??___flmul+3,w
  4516  01E8  1103               	clrz
  4517  01E9  1803               	skipnc
  4518  01EA  3E01               	addlw	1
  4519  01EB  1903               	skipnz
  4520  01EC  29EE               	goto	u294_23
  4521  01ED  07CB               	addwf	___flmul@grs+3,f
  4522  01EE                     u294_23:
  4523  01EE                     i1l2357:
  4524  01EE  083B               	movf	___flmul@b+1,w
  4525  01EF  00C2               	movwf	??___flmul
  4526  01F0  0842               	movf	??___flmul,w
  4527  01F1  00F0               	movwf	__Umul8_16@multiplicand
  4528  01F2  0840               	movf	___flmul@a+2,w
  4529  01F3  120A  158A  2002  120A  118A  	fcall	__Umul8_16
  4530  01F8  0871               	movf	?__Umul8_16+1,w
  4531  01F9  1283               	bcf	3,5	;RP0=0, select bank0
  4532  01FA  1303               	bcf	3,6	;RP1=0, select bank0
  4533  01FB  00D3               	movwf	___flmul@temp+1
  4534  01FC  0870               	movf	?__Umul8_16,w
  4535  01FD  00D2               	movwf	___flmul@temp
  4536  01FE  0852               	movf	___flmul@temp,w
  4537  01FF  00C2               	movwf	??___flmul
  4538  0200  0853               	movf	___flmul@temp+1,w
  4539  0201  00C3               	movwf	??___flmul+1
  4540  0202  01C4               	clrf	??___flmul+2
  4541  0203  01C5               	clrf	??___flmul+3
  4542  0204  0842               	movf	??___flmul,w
  4543  0205  07CE               	addwf	___flmul@prod,f
  4544  0206  0843               	movf	??___flmul+1,w
  4545  0207  1103               	clrz
  4546  0208  1803               	skipnc
  4547  0209  3E01               	addlw	1
  4548  020A  1903               	skipnz
  4549  020B  2A0D               	goto	u295_21
  4550  020C  07CF               	addwf	___flmul@prod+1,f
  4551  020D                     u295_21:
  4552  020D  0844               	movf	??___flmul+2,w
  4553  020E  1103               	clrz
  4554  020F  1803               	skipnc
  4555  0210  3E01               	addlw	1
  4556  0211  1903               	skipnz
  4557  0212  2A14               	goto	u295_22
  4558  0213  07D0               	addwf	___flmul@prod+2,f
  4559  0214                     u295_22:
  4560  0214  0845               	movf	??___flmul+3,w
  4561  0215  1103               	clrz
  4562  0216  1803               	skipnc
  4563  0217  3E01               	addlw	1
  4564  0218  1903               	skipnz
  4565  0219  2A1B               	goto	u295_23
  4566  021A  07D1               	addwf	___flmul@prod+3,f
  4567  021B                     u295_23:
  4568  021B                     i1l2359:
  4569  021B  083C               	movf	___flmul@b+2,w
  4570  021C  00C2               	movwf	??___flmul
  4571  021D  0842               	movf	??___flmul,w
  4572  021E  00F0               	movwf	__Umul8_16@multiplicand
  4573  021F  083F               	movf	___flmul@a+1,w
  4574  0220  120A  158A  2002  120A  118A  	fcall	__Umul8_16
  4575  0225  0871               	movf	?__Umul8_16+1,w
  4576  0226  1283               	bcf	3,5	;RP0=0, select bank0
  4577  0227  1303               	bcf	3,6	;RP1=0, select bank0
  4578  0228  00D3               	movwf	___flmul@temp+1
  4579  0229  0870               	movf	?__Umul8_16,w
  4580  022A  00D2               	movwf	___flmul@temp
  4581  022B                     i1l2361:
  4582  022B  0852               	movf	___flmul@temp,w
  4583  022C  00C2               	movwf	??___flmul
  4584  022D  0853               	movf	___flmul@temp+1,w
  4585  022E  00C3               	movwf	??___flmul+1
  4586  022F  01C4               	clrf	??___flmul+2
  4587  0230  01C5               	clrf	??___flmul+3
  4588  0231  0842               	movf	??___flmul,w
  4589  0232  07CE               	addwf	___flmul@prod,f
  4590  0233  0843               	movf	??___flmul+1,w
  4591  0234  1103               	clrz
  4592  0235  1803               	skipnc
  4593  0236  3E01               	addlw	1
  4594  0237  1903               	skipnz
  4595  0238  2A3A               	goto	u296_21
  4596  0239  07CF               	addwf	___flmul@prod+1,f
  4597  023A                     u296_21:
  4598  023A  0844               	movf	??___flmul+2,w
  4599  023B  1103               	clrz
  4600  023C  1803               	skipnc
  4601  023D  3E01               	addlw	1
  4602  023E  1903               	skipnz
  4603  023F  2A41               	goto	u296_22
  4604  0240  07D0               	addwf	___flmul@prod+2,f
  4605  0241                     u296_22:
  4606  0241  0845               	movf	??___flmul+3,w
  4607  0242  1103               	clrz
  4608  0243  1803               	skipnc
  4609  0244  3E01               	addlw	1
  4610  0245  1903               	skipnz
  4611  0246  2A48               	goto	u296_23
  4612  0247  07D1               	addwf	___flmul@prod+3,f
  4613  0248                     u296_23:
  4614  0248  083C               	movf	___flmul@b+2,w
  4615  0249  00C2               	movwf	??___flmul
  4616  024A  0842               	movf	??___flmul,w
  4617  024B  00F0               	movwf	__Umul8_16@multiplicand
  4618  024C  0840               	movf	___flmul@a+2,w
  4619  024D  120A  158A  2002  120A  118A  	fcall	__Umul8_16
  4620  0252  0871               	movf	?__Umul8_16+1,w
  4621  0253  1283               	bcf	3,5	;RP0=0, select bank0
  4622  0254  1303               	bcf	3,6	;RP1=0, select bank0
  4623  0255  00D3               	movwf	___flmul@temp+1
  4624  0256  0870               	movf	?__Umul8_16,w
  4625  0257  00D2               	movwf	___flmul@temp
  4626  0258                     i1l2363:
  4627  0258  0852               	movf	___flmul@temp,w
  4628  0259  00C2               	movwf	??___flmul
  4629  025A  0853               	movf	___flmul@temp+1,w
  4630  025B  00C3               	movwf	??___flmul+1
  4631  025C  01C4               	clrf	??___flmul+2
  4632  025D  01C5               	clrf	??___flmul+3
  4633  025E  3008               	movlw	8
  4634  025F                     u297_25:
  4635  025F  1003               	clrc
  4636  0260  0DC2               	rlf	??___flmul,f
  4637  0261  0DC3               	rlf	??___flmul+1,f
  4638  0262  0DC4               	rlf	??___flmul+2,f
  4639  0263  0DC5               	rlf	??___flmul+3,f
  4640  0264                     u297_20:
  4641  0264  3EFF               	addlw	-1
  4642  0265  1D03               	skipz
  4643  0266  2A5F               	goto	u297_25
  4644  0267  0842               	movf	??___flmul,w
  4645  0268  07CE               	addwf	___flmul@prod,f
  4646  0269  0843               	movf	??___flmul+1,w
  4647  026A  1103               	clrz
  4648  026B  1803               	skipnc
  4649  026C  3E01               	addlw	1
  4650  026D  1903               	skipnz
  4651  026E  2A70               	goto	u298_21
  4652  026F  07CF               	addwf	___flmul@prod+1,f
  4653  0270                     u298_21:
  4654  0270  0844               	movf	??___flmul+2,w
  4655  0271  1103               	clrz
  4656  0272  1803               	skipnc
  4657  0273  3E01               	addlw	1
  4658  0274  1903               	skipnz
  4659  0275  2A77               	goto	u298_22
  4660  0276  07D0               	addwf	___flmul@prod+2,f
  4661  0277                     u298_22:
  4662  0277  0845               	movf	??___flmul+3,w
  4663  0278  1103               	clrz
  4664  0279  1803               	skipnc
  4665  027A  3E01               	addlw	1
  4666  027B  1903               	skipnz
  4667  027C  2A7E               	goto	u298_23
  4668  027D  07D1               	addwf	___flmul@prod+3,f
  4669  027E                     u298_23:
  4670  027E                     i1l2365:
  4671  027E  0848               	movf	___flmul@grs,w
  4672  027F  00C2               	movwf	??___flmul
  4673  0280  0849               	movf	___flmul@grs+1,w
  4674  0281  00C3               	movwf	??___flmul+1
  4675  0282  084A               	movf	___flmul@grs+2,w
  4676  0283  00C4               	movwf	??___flmul+2
  4677  0284  084B               	movf	___flmul@grs+3,w
  4678  0285  00C5               	movwf	??___flmul+3
  4679  0286  3018               	movlw	24
  4680  0287                     u299_25:
  4681  0287  1003               	clrc
  4682  0288  0CC5               	rrf	??___flmul+3,f
  4683  0289  0CC4               	rrf	??___flmul+2,f
  4684  028A  0CC3               	rrf	??___flmul+1,f
  4685  028B  0CC2               	rrf	??___flmul,f
  4686  028C                     u299_20:
  4687  028C  3EFF               	addlw	-1
  4688  028D  1D03               	skipz
  4689  028E  2A87               	goto	u299_25
  4690  028F  0842               	movf	??___flmul,w
  4691  0290  07CE               	addwf	___flmul@prod,f
  4692  0291  0843               	movf	??___flmul+1,w
  4693  0292  1103               	clrz
  4694  0293  1803               	skipnc
  4695  0294  3E01               	addlw	1
  4696  0295  1903               	skipnz
  4697  0296  2A98               	goto	u300_21
  4698  0297  07CF               	addwf	___flmul@prod+1,f
  4699  0298                     u300_21:
  4700  0298  0844               	movf	??___flmul+2,w
  4701  0299  1103               	clrz
  4702  029A  1803               	skipnc
  4703  029B  3E01               	addlw	1
  4704  029C  1903               	skipnz
  4705  029D  2A9F               	goto	u300_22
  4706  029E  07D0               	addwf	___flmul@prod+2,f
  4707  029F                     u300_22:
  4708  029F  0845               	movf	??___flmul+3,w
  4709  02A0  1103               	clrz
  4710  02A1  1803               	skipnc
  4711  02A2  3E01               	addlw	1
  4712  02A3  1903               	skipnz
  4713  02A4  2AA6               	goto	u300_23
  4714  02A5  07D1               	addwf	___flmul@prod+3,f
  4715  02A6                     u300_23:
  4716  02A6                     i1l2367:
  4717  02A6  3008               	movlw	8
  4718  02A7  00C2               	movwf	??___flmul
  4719  02A8                     u301_25:
  4720  02A8  1003               	clrc
  4721  02A9  0DC8               	rlf	___flmul@grs,f
  4722  02AA  0DC9               	rlf	___flmul@grs+1,f
  4723  02AB  0DCA               	rlf	___flmul@grs+2,f
  4724  02AC  0DCB               	rlf	___flmul@grs+3,f
  4725  02AD  0BC2               	decfsz	??___flmul,f
  4726  02AE  2AA8               	goto	u301_25
  4727  02AF                     i1l2369:
  4728  02AF  084D               	movf	___flmul@bexp,w
  4729  02B0  074C               	addwf	___flmul@aexp,w
  4730  02B1  00C2               	movwf	??___flmul
  4731  02B2  01C3               	clrf	??___flmul+1
  4732  02B3  0DC3               	rlf	??___flmul+1,f
  4733  02B4  0842               	movf	??___flmul,w
  4734  02B5  3E82               	addlw	130
  4735  02B6  00D2               	movwf	___flmul@temp
  4736  02B7  0843               	movf	??___flmul+1,w
  4737  02B8  1803               	skipnc
  4738  02B9  3E01               	addlw	1
  4739  02BA  3EFF               	addlw	255
  4740  02BB  00D3               	movwf	___flmul@temp+1
  4741  02BC  2ADA               	goto	i1l2381
  4742  02BD                     i1l2371:
  4743  02BD  3001               	movlw	1
  4744  02BE  00C2               	movwf	??___flmul
  4745  02BF                     u302_25:
  4746  02BF  1003               	clrc
  4747  02C0  0DCE               	rlf	___flmul@prod,f
  4748  02C1  0DCF               	rlf	___flmul@prod+1,f
  4749  02C2  0DD0               	rlf	___flmul@prod+2,f
  4750  02C3  0DD1               	rlf	___flmul@prod+3,f
  4751  02C4  0BC2               	decfsz	??___flmul,f
  4752  02C5  2ABF               	goto	u302_25
  4753  02C6                     i1l2373:
  4754  02C6  1FCB               	btfss	___flmul@grs+3,7
  4755  02C7  2AC9               	goto	u303_21
  4756  02C8  2ACA               	goto	u303_20
  4757  02C9                     u303_21:
  4758  02C9  2ACB               	goto	i1l2377
  4759  02CA                     u303_20:
  4760  02CA                     i1l2375:
  4761  02CA  144E               	bsf	___flmul@prod,0
  4762  02CB                     i1l2377:
  4763  02CB  3001               	movlw	1
  4764  02CC  00C2               	movwf	??___flmul
  4765  02CD                     u304_25:
  4766  02CD  1003               	clrc
  4767  02CE  0DC8               	rlf	___flmul@grs,f
  4768  02CF  0DC9               	rlf	___flmul@grs+1,f
  4769  02D0  0DCA               	rlf	___flmul@grs+2,f
  4770  02D1  0DCB               	rlf	___flmul@grs+3,f
  4771  02D2  0BC2               	decfsz	??___flmul,f
  4772  02D3  2ACD               	goto	u304_25
  4773  02D4                     i1l2379:
  4774  02D4  30FF               	movlw	255
  4775  02D5  07D2               	addwf	___flmul@temp,f
  4776  02D6  1803               	skipnc
  4777  02D7  0AD3               	incf	___flmul@temp+1,f
  4778  02D8  30FF               	movlw	255
  4779  02D9  07D3               	addwf	___flmul@temp+1,f
  4780  02DA                     i1l2381:
  4781  02DA  1FD0               	btfss	___flmul@prod+2,7
  4782  02DB  2ADD               	goto	u305_21
  4783  02DC  2ADE               	goto	u305_20
  4784  02DD                     u305_21:
  4785  02DD  2ABD               	goto	i1l2371
  4786  02DE                     u305_20:
  4787  02DE                     i1l2383:
  4788  02DE  01CC               	clrf	___flmul@aexp
  4789  02DF                     i1l2385:
  4790  02DF  1FCB               	btfss	___flmul@grs+3,7
  4791  02E0  2AE2               	goto	u306_21
  4792  02E1  2AE3               	goto	u306_20
  4793  02E2                     u306_21:
  4794  02E2  2AFF               	goto	i1l2393
  4795  02E3                     u306_20:
  4796  02E3                     i1l2387:
  4797  02E3  30FF               	movlw	255
  4798  02E4  0548               	andwf	___flmul@grs,w
  4799  02E5  00C2               	movwf	??___flmul
  4800  02E6  30FF               	movlw	255
  4801  02E7  0549               	andwf	___flmul@grs+1,w
  4802  02E8  00C3               	movwf	??___flmul+1
  4803  02E9  30FF               	movlw	255
  4804  02EA  054A               	andwf	___flmul@grs+2,w
  4805  02EB  00C4               	movwf	??___flmul+2
  4806  02EC  307F               	movlw	127
  4807  02ED  054B               	andwf	___flmul@grs+3,w
  4808  02EE  00C5               	movwf	??___flmul+3
  4809  02EF  0845               	movf	??___flmul+3,w
  4810  02F0  0444               	iorwf	??___flmul+2,w
  4811  02F1  0443               	iorwf	??___flmul+1,w
  4812  02F2  0442               	iorwf	??___flmul,w
  4813  02F3  1903               	skipnz
  4814  02F4  2AF6               	goto	u307_21
  4815  02F5  2AF7               	goto	u307_20
  4816  02F6                     u307_21:
  4817  02F6  2AFA               	goto	i1l760
  4818  02F7                     u307_20:
  4819  02F7                     i1l2389:
  4820  02F7  01CC               	clrf	___flmul@aexp
  4821  02F8  0ACC               	incf	___flmul@aexp,f
  4822  02F9  2AFF               	goto	i1l2393
  4823  02FA                     i1l760:
  4824  02FA  1C4E               	btfss	___flmul@prod,0
  4825  02FB  2AFD               	goto	u308_21
  4826  02FC  2AFE               	goto	u308_20
  4827  02FD                     u308_21:
  4828  02FD  2AFF               	goto	i1l2393
  4829  02FE                     u308_20:
  4830  02FE  2AF7               	goto	i1l2389
  4831  02FF                     i1l2393:
  4832  02FF  084C               	movf	___flmul@aexp,w
  4833  0300  1903               	btfsc	3,2
  4834  0301  2B03               	goto	u309_21
  4835  0302  2B04               	goto	u309_20
  4836  0303                     u309_21:
  4837  0303  2B35               	goto	i1l2403
  4838  0304                     u309_20:
  4839  0304                     i1l2395:
  4840  0304  3001               	movlw	1
  4841  0305  07CE               	addwf	___flmul@prod,f
  4842  0306  3000               	movlw	0
  4843  0307  1803               	skipnc
  4844  0308  3001               	movlw	1
  4845  0309  07CF               	addwf	___flmul@prod+1,f
  4846  030A  3000               	movlw	0
  4847  030B  1803               	skipnc
  4848  030C  3001               	movlw	1
  4849  030D  07D0               	addwf	___flmul@prod+2,f
  4850  030E  3000               	movlw	0
  4851  030F  1803               	skipnc
  4852  0310  3001               	movlw	1
  4853  0311  07D1               	addwf	___flmul@prod+3,f
  4854  0312                     i1l2397:
  4855  0312  1C51               	btfss	___flmul@prod+3,0
  4856  0313  2B15               	goto	u310_21
  4857  0314  2B16               	goto	u310_20
  4858  0315                     u310_21:
  4859  0315  2B35               	goto	i1l2403
  4860  0316                     u310_20:
  4861  0316                     i1l2399:
  4862  0316  084E               	movf	___flmul@prod,w
  4863  0317  00C2               	movwf	??___flmul
  4864  0318  084F               	movf	___flmul@prod+1,w
  4865  0319  00C3               	movwf	??___flmul+1
  4866  031A  0850               	movf	___flmul@prod+2,w
  4867  031B  00C4               	movwf	??___flmul+2
  4868  031C  0851               	movf	___flmul@prod+3,w
  4869  031D  00C5               	movwf	??___flmul+3
  4870  031E  3001               	movlw	1
  4871  031F  00C6               	movwf	??___flmul+4
  4872  0320                     u311_25:
  4873  0320  0D45               	rlf	??___flmul+3,w
  4874  0321  0CC5               	rrf	??___flmul+3,f
  4875  0322  0CC4               	rrf	??___flmul+2,f
  4876  0323  0CC3               	rrf	??___flmul+1,f
  4877  0324  0CC2               	rrf	??___flmul,f
  4878  0325                     u311_20:
  4879  0325  0BC6               	decfsz	??___flmul+4,f
  4880  0326  2B20               	goto	u311_25
  4881  0327  0845               	movf	??___flmul+3,w
  4882  0328  00D1               	movwf	___flmul@prod+3
  4883  0329  0844               	movf	??___flmul+2,w
  4884  032A  00D0               	movwf	___flmul@prod+2
  4885  032B  0843               	movf	??___flmul+1,w
  4886  032C  00CF               	movwf	___flmul@prod+1
  4887  032D  0842               	movf	??___flmul,w
  4888  032E  00CE               	movwf	___flmul@prod
  4889  032F                     i1l2401:
  4890  032F  3001               	movlw	1
  4891  0330  07D2               	addwf	___flmul@temp,f
  4892  0331  1803               	skipnc
  4893  0332  0AD3               	incf	___flmul@temp+1,f
  4894  0333  3000               	movlw	0
  4895  0334  07D3               	addwf	___flmul@temp+1,f
  4896  0335                     i1l2403:
  4897  0335  0853               	movf	___flmul@temp+1,w
  4898  0336  3A80               	xorlw	128
  4899  0337  00FF               	movwf	btemp+1
  4900  0338  3080               	movlw	128
  4901  0339  027F               	subwf	btemp+1,w
  4902  033A  1D03               	skipz
  4903  033B  2B3E               	goto	u312_25
  4904  033C  30FF               	movlw	255
  4905  033D  0252               	subwf	___flmul@temp,w
  4906  033E                     u312_25:
  4907  033E  1C03               	skipc
  4908  033F  2B41               	goto	u312_21
  4909  0340  2B42               	goto	u312_20
  4910  0341                     u312_21:
  4911  0341  2B4D               	goto	i1l2407
  4912  0342                     u312_20:
  4913  0342                     i1l2405:
  4914  0342  307F               	movlw	127
  4915  0343  1283               	bcf	3,5	;RP0=0, select bank0
  4916  0344  1303               	bcf	3,6	;RP1=0, select bank0
  4917  0345  00D1               	movwf	___flmul@prod+3
  4918  0346  3080               	movlw	128
  4919  0347  00D0               	movwf	___flmul@prod+2
  4920  0348  3000               	movlw	0
  4921  0349  00CF               	movwf	___flmul@prod+1
  4922  034A  3000               	movlw	0
  4923  034B  00CE               	movwf	___flmul@prod
  4924  034C  2B82               	goto	i1l766
  4925  034D                     i1l2407:
  4926  034D  1283               	bcf	3,5	;RP0=0, select bank0
  4927  034E  1303               	bcf	3,6	;RP1=0, select bank0
  4928  034F  0853               	movf	___flmul@temp+1,w
  4929  0350  3A80               	xorlw	128
  4930  0351  00FF               	movwf	btemp+1
  4931  0352  3080               	movlw	128
  4932  0353  027F               	subwf	btemp+1,w
  4933  0354  1D03               	skipz
  4934  0355  2B58               	goto	u313_25
  4935  0356  3001               	movlw	1
  4936  0357  0252               	subwf	___flmul@temp,w
  4937  0358                     u313_25:
  4938  0358  1803               	skipnc
  4939  0359  2B5B               	goto	u313_21
  4940  035A  2B5C               	goto	u313_20
  4941  035B                     u313_21:
  4942  035B  2B68               	goto	i1l2413
  4943  035C                     u313_20:
  4944  035C                     i1l2409:
  4945  035C  3000               	movlw	0
  4946  035D  1283               	bcf	3,5	;RP0=0, select bank0
  4947  035E  1303               	bcf	3,6	;RP1=0, select bank0
  4948  035F  00D1               	movwf	___flmul@prod+3
  4949  0360  3000               	movlw	0
  4950  0361  00D0               	movwf	___flmul@prod+2
  4951  0362  3000               	movlw	0
  4952  0363  00CF               	movwf	___flmul@prod+1
  4953  0364  3000               	movlw	0
  4954  0365  00CE               	movwf	___flmul@prod
  4955  0366                     i1l2411:
  4956  0366  01C7               	clrf	___flmul@sign
  4957  0367  2B82               	goto	i1l766
  4958  0368                     i1l2413:
  4959  0368  1283               	bcf	3,5	;RP0=0, select bank0
  4960  0369  1303               	bcf	3,6	;RP1=0, select bank0
  4961  036A  0852               	movf	___flmul@temp,w
  4962  036B  00C2               	movwf	??___flmul
  4963  036C  0842               	movf	??___flmul,w
  4964  036D  00CD               	movwf	___flmul@bexp
  4965  036E  30FF               	movlw	255
  4966  036F  05CE               	andwf	___flmul@prod,f
  4967  0370  30FF               	movlw	255
  4968  0371  05CF               	andwf	___flmul@prod+1,f
  4969  0372  307F               	movlw	127
  4970  0373  05D0               	andwf	___flmul@prod+2,f
  4971  0374  3000               	movlw	0
  4972  0375  05D1               	andwf	___flmul@prod+3,f
  4973  0376                     i1l2415:
  4974  0376  1C4D               	btfss	___flmul@bexp,0
  4975  0377  2B79               	goto	u314_21
  4976  0378  2B7A               	goto	u314_20
  4977  0379                     u314_21:
  4978  0379  2B7B               	goto	i1l2419
  4979  037A                     u314_20:
  4980  037A                     i1l2417:
  4981  037A  17D0               	bsf	___flmul@prod+2,7
  4982  037B                     i1l2419:
  4983  037B  084D               	movf	___flmul@bexp,w
  4984  037C  00C2               	movwf	??___flmul
  4985  037D  1003               	clrc
  4986  037E  0C42               	rrf	??___flmul,w
  4987  037F  00C3               	movwf	??___flmul+1
  4988  0380  0843               	movf	??___flmul+1,w
  4989  0381  00D1               	movwf	___flmul@prod+3
  4990  0382                     i1l766:
  4991  0382  0847               	movf	___flmul@sign,w
  4992  0383  00C2               	movwf	??___flmul
  4993  0384  0842               	movf	??___flmul,w
  4994  0385  04D1               	iorwf	___flmul@prod+3,f
  4995  0386                     i1l2421:
  4996  0386  0851               	movf	___flmul@prod+3,w
  4997  0387  00BD               	movwf	?___flmul+3
  4998  0388  0850               	movf	___flmul@prod+2,w
  4999  0389  00BC               	movwf	?___flmul+2
  5000  038A  084F               	movf	___flmul@prod+1,w
  5001  038B  00BB               	movwf	?___flmul+1
  5002  038C  084E               	movf	___flmul@prod,w
  5003  038D  00BA               	movwf	?___flmul
  5004  038E                     i1l754:
  5005  038E  0008               	return
  5006  038F                     __end_of___flmul:
  5007                           
  5008                           	psect	text13
  5009  0802                     __ptext13:	
  5010 ;; *************** function __Umul8_16 *****************
  5011 ;; Defined at:
  5012 ;;		line 4 in file "C:\Program Files\Microchip\xc8\v2.36\pic\sources\c90\common\Umul8_16.c"
  5013 ;; Parameters:    Size  Location     Type
  5014 ;;  multiplier      1    wreg     unsigned char 
  5015 ;;  multiplicand    1    0[COMMON] unsigned char 
  5016 ;; Auto vars:     Size  Location     Type
  5017 ;;  multiplier      1    8[COMMON] unsigned char 
  5018 ;;  word_mpld       2    6[COMMON] unsigned int 
  5019 ;;  product         2    4[COMMON] unsigned int 
  5020 ;; Return value:  Size  Location     Type
  5021 ;;                  2    0[COMMON] unsigned int 
  5022 ;; Registers used:
  5023 ;;		wreg, status,2, status,0
  5024 ;; Tracked objects:
  5025 ;;		On entry : 0/0
  5026 ;;		On exit  : 0/0
  5027 ;;		Unchanged: 0/0
  5028 ;; Data sizes:     COMMON   BANK0   BANK1   BANK3   BANK2
  5029 ;;      Params:         2       0       0       0       0
  5030 ;;      Locals:         5       0       0       0       0
  5031 ;;      Temps:          2       0       0       0       0
  5032 ;;      Totals:         9       0       0       0       0
  5033 ;;Total ram usage:        9 bytes
  5034 ;; Hardware stack levels used: 1
  5035 ;; This function calls:
  5036 ;;		Nothing
  5037 ;; This function is called by:
  5038 ;;		___flmul
  5039 ;; This function uses a non-reentrant model
  5040 ;;
  5041                           
  5042  0802                     __Umul8_16:	
  5043                           ;psect for function __Umul8_16
  5044                           
  5045                           
  5046                           ;incstack = 0
  5047                           ; Regs used in __Umul8_16: [wreg+status,2+status,0]
  5048                           ;__Umul8_16@multiplier stored from wreg
  5049  0802  00F8               	movwf	__Umul8_16@multiplier
  5050  0803                     i1l1821:
  5051  0803  01F4               	clrf	__Umul8_16@product
  5052  0804  01F5               	clrf	__Umul8_16@product+1
  5053  0805                     i1l1823:
  5054  0805  0870               	movf	__Umul8_16@multiplicand,w
  5055  0806  00F2               	movwf	??__Umul8_16
  5056  0807  01F3               	clrf	??__Umul8_16+1
  5057  0808  0872               	movf	??__Umul8_16,w
  5058  0809  00F6               	movwf	__Umul8_16@word_mpld
  5059  080A  0873               	movf	??__Umul8_16+1,w
  5060  080B  00F7               	movwf	__Umul8_16@word_mpld+1
  5061  080C                     i1l1825:
  5062  080C  1C78               	btfss	__Umul8_16@multiplier,0
  5063  080D  280F               	goto	u189_21
  5064  080E  2810               	goto	u189_20
  5065  080F                     u189_21:
  5066  080F  2816               	goto	i1l773
  5067  0810                     u189_20:
  5068  0810                     i1l1827:
  5069  0810  0876               	movf	__Umul8_16@word_mpld,w
  5070  0811  07F4               	addwf	__Umul8_16@product,f
  5071  0812  1803               	skipnc
  5072  0813  0AF5               	incf	__Umul8_16@product+1,f
  5073  0814  0877               	movf	__Umul8_16@word_mpld+1,w
  5074  0815  07F5               	addwf	__Umul8_16@product+1,f
  5075  0816                     i1l773:
  5076  0816  3001               	movlw	1
  5077  0817                     u190_25:
  5078  0817  1003               	clrc
  5079  0818  0DF6               	rlf	__Umul8_16@word_mpld,f
  5080  0819  0DF7               	rlf	__Umul8_16@word_mpld+1,f
  5081  081A  3EFF               	addlw	-1
  5082  081B  1D03               	skipz
  5083  081C  2817               	goto	u190_25
  5084  081D  1003               	clrc
  5085  081E  0CF8               	rrf	__Umul8_16@multiplier,f
  5086  081F                     i1l1829:
  5087  081F  0878               	movf	__Umul8_16@multiplier,w
  5088  0820  1D03               	btfss	3,2
  5089  0821  2823               	goto	u191_21
  5090  0822  2824               	goto	u191_20
  5091  0823                     u191_21:
  5092  0823  280C               	goto	i1l1825
  5093  0824                     u191_20:
  5094  0824                     i1l1831:
  5095  0824  0875               	movf	__Umul8_16@product+1,w
  5096  0825  00F1               	movwf	?__Umul8_16+1
  5097  0826  0874               	movf	__Umul8_16@product,w
  5098  0827  00F0               	movwf	?__Umul8_16
  5099  0828                     i1l775:
  5100  0828  0008               	return
  5101  0829                     __end_of__Umul8_16:
  5102                           
  5103                           	psect	text14
  5104  093A                     __ptext14:	
  5105 ;; *************** function ___fldiv *****************
  5106 ;; Defined at:
  5107 ;;		line 8 in file "C:\Program Files\Microchip\xc8\v2.36\pic\sources\c90\common\sprcdiv.c"
  5108 ;; Parameters:    Size  Location     Type
  5109 ;;  a               4    0[BANK0 ] unsigned int 
  5110 ;;  b               4    4[BANK0 ] unsigned int 
  5111 ;; Auto vars:     Size  Location     Type
  5112 ;;  grs             4   20[BANK0 ] unsigned long 
  5113 ;;  rem             4   13[BANK0 ] unsigned long 
  5114 ;;  new_exp         2   18[BANK0 ] int 
  5115 ;;  aexp            1   25[BANK0 ] unsigned char 
  5116 ;;  bexp            1   24[BANK0 ] unsigned char 
  5117 ;;  sign            1   17[BANK0 ] unsigned char 
  5118 ;; Return value:  Size  Location     Type
  5119 ;;                  4    0[BANK0 ] unsigned char 
  5120 ;; Registers used:
  5121 ;;		wreg, status,2, status,0, btemp+1
  5122 ;; Tracked objects:
  5123 ;;		On entry : 0/0
  5124 ;;		On exit  : 0/0
  5125 ;;		Unchanged: 0/0
  5126 ;; Data sizes:     COMMON   BANK0   BANK1   BANK3   BANK2
  5127 ;;      Params:         0       8       0       0       0
  5128 ;;      Locals:         0      13       0       0       0
  5129 ;;      Temps:          0       5       0       0       0
  5130 ;;      Totals:         0      26       0       0       0
  5131 ;;Total ram usage:       26 bytes
  5132 ;; Hardware stack levels used: 1
  5133 ;; This function calls:
  5134 ;;		Nothing
  5135 ;; This function is called by:
  5136 ;;		_map
  5137 ;; This function uses a non-reentrant model
  5138 ;;
  5139                           
  5140  093A                     ___fldiv:	
  5141                           ;psect for function ___fldiv
  5142                           
  5143  093A                     i1l2143:	
  5144                           ;incstack = 0
  5145                           ; Regs used in ___fldiv: [wreg+status,2+status,0+btemp+1]
  5146                           
  5147  093A  1283               	bcf	3,5	;RP0=0, select bank0
  5148  093B  1303               	bcf	3,6	;RP1=0, select bank0
  5149  093C  0827               	movf	___fldiv@b+3,w
  5150  093D  3980               	andlw	128
  5151  093E  00A8               	movwf	??___fldiv
  5152  093F  0828               	movf	??___fldiv,w
  5153  0940  00B1               	movwf	___fldiv@sign
  5154  0941                     i1l2145:
  5155  0941  0827               	movf	___fldiv@b+3,w
  5156  0942  00A8               	movwf	??___fldiv
  5157  0943  0728               	addwf	??___fldiv,w
  5158  0944  00A9               	movwf	??___fldiv+1
  5159  0945  0829               	movf	??___fldiv+1,w
  5160  0946  00B8               	movwf	___fldiv@bexp
  5161  0947                     i1l2147:
  5162  0947  1FA6               	btfss	___fldiv@b+2,7
  5163  0948  294A               	goto	u249_21
  5164  0949  294B               	goto	u249_20
  5165  094A                     u249_21:
  5166  094A  294C               	goto	i1l2151
  5167  094B                     u249_20:
  5168  094B                     i1l2149:
  5169  094B  1438               	bsf	___fldiv@bexp,0
  5170  094C                     i1l2151:
  5171  094C  0838               	movf	___fldiv@bexp,w
  5172  094D  1903               	btfsc	3,2
  5173  094E  2950               	goto	u250_21
  5174  094F  2951               	goto	u250_20
  5175  0950                     u250_21:
  5176  0950  2961               	goto	i1l2161
  5177  0951                     u250_20:
  5178  0951                     i1l2153:
  5179  0951  0A38               	incf	___fldiv@bexp,w
  5180  0952  1D03               	btfss	3,2
  5181  0953  2955               	goto	u251_21
  5182  0954  2956               	goto	u251_20
  5183  0955                     u251_21:
  5184  0955  295E               	goto	i1l2157
  5185  0956                     u251_20:
  5186  0956                     i1l2155:
  5187  0956  3000               	movlw	0
  5188  0957  00A7               	movwf	___fldiv@b+3
  5189  0958  3000               	movlw	0
  5190  0959  00A6               	movwf	___fldiv@b+2
  5191  095A  3000               	movlw	0
  5192  095B  00A5               	movwf	___fldiv@b+1
  5193  095C  3000               	movlw	0
  5194  095D  00A4               	movwf	___fldiv@b
  5195  095E                     i1l2157:
  5196  095E  17A6               	bsf	___fldiv@b+2,7
  5197  095F                     i1l2159:
  5198  095F  01A7               	clrf	___fldiv@b+3
  5199  0960  2969               	goto	i1l2163
  5200  0961                     i1l2161:
  5201  0961  3000               	movlw	0
  5202  0962  00A7               	movwf	___fldiv@b+3
  5203  0963  3000               	movlw	0
  5204  0964  00A6               	movwf	___fldiv@b+2
  5205  0965  3000               	movlw	0
  5206  0966  00A5               	movwf	___fldiv@b+1
  5207  0967  3000               	movlw	0
  5208  0968  00A4               	movwf	___fldiv@b
  5209  0969                     i1l2163:
  5210  0969  0823               	movf	___fldiv@a+3,w
  5211  096A  3980               	andlw	128
  5212  096B  00A8               	movwf	??___fldiv
  5213  096C  0828               	movf	??___fldiv,w
  5214  096D  06B1               	xorwf	___fldiv@sign,f
  5215  096E                     i1l2165:
  5216  096E  0823               	movf	___fldiv@a+3,w
  5217  096F  00A8               	movwf	??___fldiv
  5218  0970  0728               	addwf	??___fldiv,w
  5219  0971  00A9               	movwf	??___fldiv+1
  5220  0972  0829               	movf	??___fldiv+1,w
  5221  0973  00B9               	movwf	___fldiv@aexp
  5222  0974                     i1l2167:
  5223  0974  1FA2               	btfss	___fldiv@a+2,7
  5224  0975  2977               	goto	u252_21
  5225  0976  2978               	goto	u252_20
  5226  0977                     u252_21:
  5227  0977  2979               	goto	i1l2171
  5228  0978                     u252_20:
  5229  0978                     i1l2169:
  5230  0978  1439               	bsf	___fldiv@aexp,0
  5231  0979                     i1l2171:
  5232  0979  0839               	movf	___fldiv@aexp,w
  5233  097A  1903               	btfsc	3,2
  5234  097B  297D               	goto	u253_21
  5235  097C  297E               	goto	u253_20
  5236  097D                     u253_21:
  5237  097D  298E               	goto	i1l2181
  5238  097E                     u253_20:
  5239  097E                     i1l2173:
  5240  097E  0A39               	incf	___fldiv@aexp,w
  5241  097F  1D03               	btfss	3,2
  5242  0980  2982               	goto	u254_21
  5243  0981  2983               	goto	u254_20
  5244  0982                     u254_21:
  5245  0982  298B               	goto	i1l2177
  5246  0983                     u254_20:
  5247  0983                     i1l2175:
  5248  0983  3000               	movlw	0
  5249  0984  00A3               	movwf	___fldiv@a+3
  5250  0985  3000               	movlw	0
  5251  0986  00A2               	movwf	___fldiv@a+2
  5252  0987  3000               	movlw	0
  5253  0988  00A1               	movwf	___fldiv@a+1
  5254  0989  3000               	movlw	0
  5255  098A  00A0               	movwf	___fldiv@a
  5256  098B                     i1l2177:
  5257  098B  17A2               	bsf	___fldiv@a+2,7
  5258  098C                     i1l2179:
  5259  098C  01A3               	clrf	___fldiv@a+3
  5260  098D  2996               	goto	i1l714
  5261  098E                     i1l2181:
  5262  098E  3000               	movlw	0
  5263  098F  00A3               	movwf	___fldiv@a+3
  5264  0990  3000               	movlw	0
  5265  0991  00A2               	movwf	___fldiv@a+2
  5266  0992  3000               	movlw	0
  5267  0993  00A1               	movwf	___fldiv@a+1
  5268  0994  3000               	movlw	0
  5269  0995  00A0               	movwf	___fldiv@a
  5270  0996                     i1l714:
  5271  0996  0823               	movf	___fldiv@a+3,w
  5272  0997  0422               	iorwf	___fldiv@a+2,w
  5273  0998  0421               	iorwf	___fldiv@a+1,w
  5274  0999  0420               	iorwf	___fldiv@a,w
  5275  099A  1D03               	skipz
  5276  099B  299D               	goto	u255_21
  5277  099C  299E               	goto	u255_20
  5278  099D                     u255_21:
  5279  099D  29B7               	goto	i1l2191
  5280  099E                     u255_20:
  5281  099E                     i1l2183:
  5282  099E  3000               	movlw	0
  5283  099F  00A7               	movwf	___fldiv@b+3
  5284  09A0  3000               	movlw	0
  5285  09A1  00A6               	movwf	___fldiv@b+2
  5286  09A2  3000               	movlw	0
  5287  09A3  00A5               	movwf	___fldiv@b+1
  5288  09A4  3000               	movlw	0
  5289  09A5  00A4               	movwf	___fldiv@b
  5290  09A6  3080               	movlw	128
  5291  09A7  04A6               	iorwf	___fldiv@b+2,f
  5292  09A8  307F               	movlw	127
  5293  09A9  04A7               	iorwf	___fldiv@b+3,f
  5294  09AA                     i1l2185:
  5295  09AA  0831               	movf	___fldiv@sign,w
  5296  09AB  00A8               	movwf	??___fldiv
  5297  09AC  0828               	movf	??___fldiv,w
  5298  09AD  04A7               	iorwf	___fldiv@b+3,f
  5299  09AE                     i1l2187:
  5300  09AE  0827               	movf	___fldiv@b+3,w
  5301  09AF  00A3               	movwf	?___fldiv+3
  5302  09B0  0826               	movf	___fldiv@b+2,w
  5303  09B1  00A2               	movwf	?___fldiv+2
  5304  09B2  0825               	movf	___fldiv@b+1,w
  5305  09B3  00A1               	movwf	?___fldiv+1
  5306  09B4  0824               	movf	___fldiv@b,w
  5307  09B5  00A0               	movwf	?___fldiv
  5308  09B6  2B16               	goto	i1l716
  5309  09B7                     i1l2191:
  5310  09B7  0838               	movf	___fldiv@bexp,w
  5311  09B8  1D03               	btfss	3,2
  5312  09B9  29BB               	goto	u256_21
  5313  09BA  29BC               	goto	u256_20
  5314  09BB                     u256_21:
  5315  09BB  29C5               	goto	i1l2197
  5316  09BC                     u256_20:
  5317  09BC                     i1l2193:
  5318  09BC  3000               	movlw	0
  5319  09BD  00A3               	movwf	?___fldiv+3
  5320  09BE  3000               	movlw	0
  5321  09BF  00A2               	movwf	?___fldiv+2
  5322  09C0  3000               	movlw	0
  5323  09C1  00A1               	movwf	?___fldiv+1
  5324  09C2  3000               	movlw	0
  5325  09C3  00A0               	movwf	?___fldiv
  5326  09C4  2B16               	goto	i1l716
  5327  09C5                     i1l2197:
  5328  09C5  0838               	movf	___fldiv@bexp,w
  5329  09C6  00A8               	movwf	??___fldiv
  5330  09C7  01A9               	clrf	??___fldiv+1
  5331  09C8  0829               	movf	??___fldiv+1,w
  5332  09C9  00AB               	movwf	??___fldiv+3
  5333  09CA  0839               	movf	___fldiv@aexp,w
  5334  09CB  0228               	subwf	??___fldiv,w
  5335  09CC  00AA               	movwf	??___fldiv+2
  5336  09CD  1C03               	skipc
  5337  09CE  03AB               	decf	??___fldiv+3,f
  5338  09CF  082A               	movf	??___fldiv+2,w
  5339  09D0  3E7F               	addlw	127
  5340  09D1  00B2               	movwf	___fldiv@new_exp
  5341  09D2  082B               	movf	??___fldiv+3,w
  5342  09D3  1803               	skipnc
  5343  09D4  3E01               	addlw	1
  5344  09D5  3E00               	addlw	0
  5345  09D6  00B3               	movwf	___fldiv@new_exp+1
  5346  09D7                     i1l2199:
  5347  09D7  0827               	movf	___fldiv@b+3,w
  5348  09D8  00B0               	movwf	___fldiv@rem+3
  5349  09D9  0826               	movf	___fldiv@b+2,w
  5350  09DA  00AF               	movwf	___fldiv@rem+2
  5351  09DB  0825               	movf	___fldiv@b+1,w
  5352  09DC  00AE               	movwf	___fldiv@rem+1
  5353  09DD  0824               	movf	___fldiv@b,w
  5354  09DE  00AD               	movwf	___fldiv@rem
  5355  09DF                     i1l2201:
  5356  09DF  3000               	movlw	0
  5357  09E0  00A7               	movwf	___fldiv@b+3
  5358  09E1  3000               	movlw	0
  5359  09E2  00A6               	movwf	___fldiv@b+2
  5360  09E3  3000               	movlw	0
  5361  09E4  00A5               	movwf	___fldiv@b+1
  5362  09E5  3000               	movlw	0
  5363  09E6  00A4               	movwf	___fldiv@b
  5364  09E7                     i1l2203:
  5365  09E7  3000               	movlw	0
  5366  09E8  00B7               	movwf	___fldiv@grs+3
  5367  09E9  3000               	movlw	0
  5368  09EA  00B6               	movwf	___fldiv@grs+2
  5369  09EB  3000               	movlw	0
  5370  09EC  00B5               	movwf	___fldiv@grs+1
  5371  09ED  3000               	movlw	0
  5372  09EE  00B4               	movwf	___fldiv@grs
  5373  09EF                     i1l2205:
  5374  09EF  01B9               	clrf	___fldiv@aexp
  5375  09F0  2A3B               	goto	i1l2225
  5376  09F1                     i1l2207:
  5377  09F1  0839               	movf	___fldiv@aexp,w
  5378  09F2  1903               	btfsc	3,2
  5379  09F3  29F5               	goto	u257_21
  5380  09F4  29F6               	goto	u257_20
  5381  09F5                     u257_21:
  5382  09F5  2A16               	goto	i1l2217
  5383  09F6                     u257_20:
  5384  09F6                     i1l2209:
  5385  09F6  3001               	movlw	1
  5386  09F7  00A8               	movwf	??___fldiv
  5387  09F8                     u258_25:
  5388  09F8  1003               	clrc
  5389  09F9  0DAD               	rlf	___fldiv@rem,f
  5390  09FA  0DAE               	rlf	___fldiv@rem+1,f
  5391  09FB  0DAF               	rlf	___fldiv@rem+2,f
  5392  09FC  0DB0               	rlf	___fldiv@rem+3,f
  5393  09FD  0BA8               	decfsz	??___fldiv,f
  5394  09FE  29F8               	goto	u258_25
  5395  09FF  3001               	movlw	1
  5396  0A00  00A8               	movwf	??___fldiv
  5397  0A01                     u259_25:
  5398  0A01  1003               	clrc
  5399  0A02  0DA4               	rlf	___fldiv@b,f
  5400  0A03  0DA5               	rlf	___fldiv@b+1,f
  5401  0A04  0DA6               	rlf	___fldiv@b+2,f
  5402  0A05  0DA7               	rlf	___fldiv@b+3,f
  5403  0A06  0BA8               	decfsz	??___fldiv,f
  5404  0A07  2A01               	goto	u259_25
  5405  0A08                     i1l2211:
  5406  0A08  1FB7               	btfss	___fldiv@grs+3,7
  5407  0A09  2A0B               	goto	u260_21
  5408  0A0A  2A0C               	goto	u260_20
  5409  0A0B                     u260_21:
  5410  0A0B  2A0D               	goto	i1l2215
  5411  0A0C                     u260_20:
  5412  0A0C                     i1l2213:
  5413  0A0C  1424               	bsf	___fldiv@b,0
  5414  0A0D                     i1l2215:
  5415  0A0D  3001               	movlw	1
  5416  0A0E  00A8               	movwf	??___fldiv
  5417  0A0F                     u261_25:
  5418  0A0F  1003               	clrc
  5419  0A10  0DB4               	rlf	___fldiv@grs,f
  5420  0A11  0DB5               	rlf	___fldiv@grs+1,f
  5421  0A12  0DB6               	rlf	___fldiv@grs+2,f
  5422  0A13  0DB7               	rlf	___fldiv@grs+3,f
  5423  0A14  0BA8               	decfsz	??___fldiv,f
  5424  0A15  2A0F               	goto	u261_25
  5425  0A16                     i1l2217:
  5426  0A16  0823               	movf	___fldiv@a+3,w
  5427  0A17  0230               	subwf	___fldiv@rem+3,w
  5428  0A18  1D03               	skipz
  5429  0A19  2A24               	goto	u262_25
  5430  0A1A  0822               	movf	___fldiv@a+2,w
  5431  0A1B  022F               	subwf	___fldiv@rem+2,w
  5432  0A1C  1D03               	skipz
  5433  0A1D  2A24               	goto	u262_25
  5434  0A1E  0821               	movf	___fldiv@a+1,w
  5435  0A1F  022E               	subwf	___fldiv@rem+1,w
  5436  0A20  1D03               	skipz
  5437  0A21  2A24               	goto	u262_25
  5438  0A22  0820               	movf	___fldiv@a,w
  5439  0A23  022D               	subwf	___fldiv@rem,w
  5440  0A24                     u262_25:
  5441  0A24  1C03               	skipc
  5442  0A25  2A27               	goto	u262_21
  5443  0A26  2A28               	goto	u262_20
  5444  0A27                     u262_21:
  5445  0A27  2A37               	goto	i1l2223
  5446  0A28                     u262_20:
  5447  0A28                     i1l2219:
  5448  0A28  1737               	bsf	___fldiv@grs+3,6
  5449  0A29                     i1l2221:
  5450  0A29  0820               	movf	___fldiv@a,w
  5451  0A2A  02AD               	subwf	___fldiv@rem,f
  5452  0A2B  0821               	movf	___fldiv@a+1,w
  5453  0A2C  1C03               	skipc
  5454  0A2D  0F21               	incfsz	___fldiv@a+1,w
  5455  0A2E  02AE               	subwf	___fldiv@rem+1,f
  5456  0A2F  0822               	movf	___fldiv@a+2,w
  5457  0A30  1C03               	skipc
  5458  0A31  0F22               	incfsz	___fldiv@a+2,w
  5459  0A32  02AF               	subwf	___fldiv@rem+2,f
  5460  0A33  0823               	movf	___fldiv@a+3,w
  5461  0A34  1C03               	skipc
  5462  0A35  0F23               	incfsz	___fldiv@a+3,w
  5463  0A36  02B0               	subwf	___fldiv@rem+3,f
  5464  0A37                     i1l2223:
  5465  0A37  3001               	movlw	1
  5466  0A38  00A8               	movwf	??___fldiv
  5467  0A39  0828               	movf	??___fldiv,w
  5468  0A3A  07B9               	addwf	___fldiv@aexp,f
  5469  0A3B                     i1l2225:
  5470  0A3B  301A               	movlw	26
  5471  0A3C  0239               	subwf	___fldiv@aexp,w
  5472  0A3D  1C03               	skipc
  5473  0A3E  2A40               	goto	u263_21
  5474  0A3F  2A41               	goto	u263_20
  5475  0A40                     u263_21:
  5476  0A40  29F1               	goto	i1l2207
  5477  0A41                     u263_20:
  5478  0A41                     i1l2227:
  5479  0A41  0830               	movf	___fldiv@rem+3,w
  5480  0A42  042F               	iorwf	___fldiv@rem+2,w
  5481  0A43  042E               	iorwf	___fldiv@rem+1,w
  5482  0A44  042D               	iorwf	___fldiv@rem,w
  5483  0A45  1903               	skipnz
  5484  0A46  2A48               	goto	u264_21
  5485  0A47  2A49               	goto	u264_20
  5486  0A48                     u264_21:
  5487  0A48  2A68               	goto	i1l2241
  5488  0A49                     u264_20:
  5489  0A49                     i1l2229:
  5490  0A49  1434               	bsf	___fldiv@grs,0
  5491  0A4A  2A68               	goto	i1l2241
  5492  0A4B                     i1l2231:
  5493  0A4B  3001               	movlw	1
  5494  0A4C  00A8               	movwf	??___fldiv
  5495  0A4D                     u265_25:
  5496  0A4D  1003               	clrc
  5497  0A4E  0DA4               	rlf	___fldiv@b,f
  5498  0A4F  0DA5               	rlf	___fldiv@b+1,f
  5499  0A50  0DA6               	rlf	___fldiv@b+2,f
  5500  0A51  0DA7               	rlf	___fldiv@b+3,f
  5501  0A52  0BA8               	decfsz	??___fldiv,f
  5502  0A53  2A4D               	goto	u265_25
  5503  0A54                     i1l2233:
  5504  0A54  1FB7               	btfss	___fldiv@grs+3,7
  5505  0A55  2A57               	goto	u266_21
  5506  0A56  2A58               	goto	u266_20
  5507  0A57                     u266_21:
  5508  0A57  2A59               	goto	i1l2237
  5509  0A58                     u266_20:
  5510  0A58                     i1l2235:
  5511  0A58  1424               	bsf	___fldiv@b,0
  5512  0A59                     i1l2237:
  5513  0A59  3001               	movlw	1
  5514  0A5A  00A8               	movwf	??___fldiv
  5515  0A5B                     u267_25:
  5516  0A5B  1003               	clrc
  5517  0A5C  0DB4               	rlf	___fldiv@grs,f
  5518  0A5D  0DB5               	rlf	___fldiv@grs+1,f
  5519  0A5E  0DB6               	rlf	___fldiv@grs+2,f
  5520  0A5F  0DB7               	rlf	___fldiv@grs+3,f
  5521  0A60  0BA8               	decfsz	??___fldiv,f
  5522  0A61  2A5B               	goto	u267_25
  5523  0A62                     i1l2239:
  5524  0A62  30FF               	movlw	255
  5525  0A63  07B2               	addwf	___fldiv@new_exp,f
  5526  0A64  1803               	skipnc
  5527  0A65  0AB3               	incf	___fldiv@new_exp+1,f
  5528  0A66  30FF               	movlw	255
  5529  0A67  07B3               	addwf	___fldiv@new_exp+1,f
  5530  0A68                     i1l2241:
  5531  0A68  1FA6               	btfss	___fldiv@b+2,7
  5532  0A69  2A6B               	goto	u268_21
  5533  0A6A  2A6C               	goto	u268_20
  5534  0A6B                     u268_21:
  5535  0A6B  2A4B               	goto	i1l2231
  5536  0A6C                     u268_20:
  5537  0A6C                     i1l2243:
  5538  0A6C  01B9               	clrf	___fldiv@aexp
  5539  0A6D                     i1l2245:
  5540  0A6D  1FB7               	btfss	___fldiv@grs+3,7
  5541  0A6E  2A70               	goto	u269_21
  5542  0A6F  2A71               	goto	u269_20
  5543  0A70                     u269_21:
  5544  0A70  2A8D               	goto	i1l2253
  5545  0A71                     u269_20:
  5546  0A71                     i1l2247:
  5547  0A71  30FF               	movlw	255
  5548  0A72  0534               	andwf	___fldiv@grs,w
  5549  0A73  00A8               	movwf	??___fldiv
  5550  0A74  30FF               	movlw	255
  5551  0A75  0535               	andwf	___fldiv@grs+1,w
  5552  0A76  00A9               	movwf	??___fldiv+1
  5553  0A77  30FF               	movlw	255
  5554  0A78  0536               	andwf	___fldiv@grs+2,w
  5555  0A79  00AA               	movwf	??___fldiv+2
  5556  0A7A  307F               	movlw	127
  5557  0A7B  0537               	andwf	___fldiv@grs+3,w
  5558  0A7C  00AB               	movwf	??___fldiv+3
  5559  0A7D  082B               	movf	??___fldiv+3,w
  5560  0A7E  042A               	iorwf	??___fldiv+2,w
  5561  0A7F  0429               	iorwf	??___fldiv+1,w
  5562  0A80  0428               	iorwf	??___fldiv,w
  5563  0A81  1903               	skipnz
  5564  0A82  2A84               	goto	u270_21
  5565  0A83  2A85               	goto	u270_20
  5566  0A84                     u270_21:
  5567  0A84  2A88               	goto	i1l730
  5568  0A85                     u270_20:
  5569  0A85                     i1l2249:
  5570  0A85  01B9               	clrf	___fldiv@aexp
  5571  0A86  0AB9               	incf	___fldiv@aexp,f
  5572  0A87  2A8D               	goto	i1l2253
  5573  0A88                     i1l730:
  5574  0A88  1C24               	btfss	___fldiv@b,0
  5575  0A89  2A8B               	goto	u271_21
  5576  0A8A  2A8C               	goto	u271_20
  5577  0A8B                     u271_21:
  5578  0A8B  2A8D               	goto	i1l2253
  5579  0A8C                     u271_20:
  5580  0A8C  2A85               	goto	i1l2249
  5581  0A8D                     i1l2253:
  5582  0A8D  0839               	movf	___fldiv@aexp,w
  5583  0A8E  1903               	btfsc	3,2
  5584  0A8F  2A91               	goto	u272_21
  5585  0A90  2A92               	goto	u272_20
  5586  0A91                     u272_21:
  5587  0A91  2AC3               	goto	i1l2263
  5588  0A92                     u272_20:
  5589  0A92                     i1l2255:
  5590  0A92  3001               	movlw	1
  5591  0A93  07A4               	addwf	___fldiv@b,f
  5592  0A94  3000               	movlw	0
  5593  0A95  1803               	skipnc
  5594  0A96  3001               	movlw	1
  5595  0A97  07A5               	addwf	___fldiv@b+1,f
  5596  0A98  3000               	movlw	0
  5597  0A99  1803               	skipnc
  5598  0A9A  3001               	movlw	1
  5599  0A9B  07A6               	addwf	___fldiv@b+2,f
  5600  0A9C  3000               	movlw	0
  5601  0A9D  1803               	skipnc
  5602  0A9E  3001               	movlw	1
  5603  0A9F  07A7               	addwf	___fldiv@b+3,f
  5604  0AA0                     i1l2257:
  5605  0AA0  1C27               	btfss	___fldiv@b+3,0
  5606  0AA1  2AA3               	goto	u273_21
  5607  0AA2  2AA4               	goto	u273_20
  5608  0AA3                     u273_21:
  5609  0AA3  2AC3               	goto	i1l2263
  5610  0AA4                     u273_20:
  5611  0AA4                     i1l2259:
  5612  0AA4  0824               	movf	___fldiv@b,w
  5613  0AA5  00A8               	movwf	??___fldiv
  5614  0AA6  0825               	movf	___fldiv@b+1,w
  5615  0AA7  00A9               	movwf	??___fldiv+1
  5616  0AA8  0826               	movf	___fldiv@b+2,w
  5617  0AA9  00AA               	movwf	??___fldiv+2
  5618  0AAA  0827               	movf	___fldiv@b+3,w
  5619  0AAB  00AB               	movwf	??___fldiv+3
  5620  0AAC  3001               	movlw	1
  5621  0AAD  00AC               	movwf	??___fldiv+4
  5622  0AAE                     u274_25:
  5623  0AAE  0D2B               	rlf	??___fldiv+3,w
  5624  0AAF  0CAB               	rrf	??___fldiv+3,f
  5625  0AB0  0CAA               	rrf	??___fldiv+2,f
  5626  0AB1  0CA9               	rrf	??___fldiv+1,f
  5627  0AB2  0CA8               	rrf	??___fldiv,f
  5628  0AB3                     u274_20:
  5629  0AB3  0BAC               	decfsz	??___fldiv+4,f
  5630  0AB4  2AAE               	goto	u274_25
  5631  0AB5  082B               	movf	??___fldiv+3,w
  5632  0AB6  00A7               	movwf	___fldiv@b+3
  5633  0AB7  082A               	movf	??___fldiv+2,w
  5634  0AB8  00A6               	movwf	___fldiv@b+2
  5635  0AB9  0829               	movf	??___fldiv+1,w
  5636  0ABA  00A5               	movwf	___fldiv@b+1
  5637  0ABB  0828               	movf	??___fldiv,w
  5638  0ABC  00A4               	movwf	___fldiv@b
  5639  0ABD                     i1l2261:
  5640  0ABD  3001               	movlw	1
  5641  0ABE  07B2               	addwf	___fldiv@new_exp,f
  5642  0ABF  1803               	skipnc
  5643  0AC0  0AB3               	incf	___fldiv@new_exp+1,f
  5644  0AC1  3000               	movlw	0
  5645  0AC2  07B3               	addwf	___fldiv@new_exp+1,f
  5646  0AC3                     i1l2263:
  5647  0AC3  0833               	movf	___fldiv@new_exp+1,w
  5648  0AC4  3A80               	xorlw	128
  5649  0AC5  00FF               	movwf	btemp+1
  5650  0AC6  3080               	movlw	128
  5651  0AC7  027F               	subwf	btemp+1,w
  5652  0AC8  1D03               	skipz
  5653  0AC9  2ACC               	goto	u275_25
  5654  0ACA  30FF               	movlw	255
  5655  0ACB  0232               	subwf	___fldiv@new_exp,w
  5656  0ACC                     u275_25:
  5657  0ACC  1C03               	skipc
  5658  0ACD  2ACF               	goto	u275_21
  5659  0ACE  2AD0               	goto	u275_20
  5660  0ACF                     u275_21:
  5661  0ACF  2ADE               	goto	i1l2267
  5662  0AD0                     u275_20:
  5663  0AD0                     i1l2265:
  5664  0AD0  30FF               	movlw	255
  5665  0AD1  1283               	bcf	3,5	;RP0=0, select bank0
  5666  0AD2  1303               	bcf	3,6	;RP1=0, select bank0
  5667  0AD3  00B2               	movwf	___fldiv@new_exp
  5668  0AD4  3000               	movlw	0
  5669  0AD5  00B3               	movwf	___fldiv@new_exp+1
  5670  0AD6  3000               	movlw	0
  5671  0AD7  00A7               	movwf	___fldiv@b+3
  5672  0AD8  3000               	movlw	0
  5673  0AD9  00A6               	movwf	___fldiv@b+2
  5674  0ADA  3000               	movlw	0
  5675  0ADB  00A5               	movwf	___fldiv@b+1
  5676  0ADC  3000               	movlw	0
  5677  0ADD  00A4               	movwf	___fldiv@b
  5678  0ADE                     i1l2267:
  5679  0ADE  1283               	bcf	3,5	;RP0=0, select bank0
  5680  0ADF  1303               	bcf	3,6	;RP1=0, select bank0
  5681  0AE0  0833               	movf	___fldiv@new_exp+1,w
  5682  0AE1  3A80               	xorlw	128
  5683  0AE2  00FF               	movwf	btemp+1
  5684  0AE3  3080               	movlw	128
  5685  0AE4  027F               	subwf	btemp+1,w
  5686  0AE5  1D03               	skipz
  5687  0AE6  2AE9               	goto	u276_25
  5688  0AE7  3001               	movlw	1
  5689  0AE8  0232               	subwf	___fldiv@new_exp,w
  5690  0AE9                     u276_25:
  5691  0AE9  1803               	skipnc
  5692  0AEA  2AEC               	goto	u276_21
  5693  0AEB  2AED               	goto	u276_20
  5694  0AEC                     u276_21:
  5695  0AEC  2AFA               	goto	i1l736
  5696  0AED                     u276_20:
  5697  0AED                     i1l2269:
  5698  0AED  1283               	bcf	3,5	;RP0=0, select bank0
  5699  0AEE  1303               	bcf	3,6	;RP1=0, select bank0
  5700  0AEF  01B2               	clrf	___fldiv@new_exp
  5701  0AF0  01B3               	clrf	___fldiv@new_exp+1
  5702  0AF1                     i1l2271:
  5703  0AF1  3000               	movlw	0
  5704  0AF2  00A7               	movwf	___fldiv@b+3
  5705  0AF3  3000               	movlw	0
  5706  0AF4  00A6               	movwf	___fldiv@b+2
  5707  0AF5  3000               	movlw	0
  5708  0AF6  00A5               	movwf	___fldiv@b+1
  5709  0AF7  3000               	movlw	0
  5710  0AF8  00A4               	movwf	___fldiv@b
  5711  0AF9                     i1l2273:
  5712  0AF9  01B1               	clrf	___fldiv@sign
  5713  0AFA                     i1l736:
  5714  0AFA  1283               	bcf	3,5	;RP0=0, select bank0
  5715  0AFB  1303               	bcf	3,6	;RP1=0, select bank0
  5716  0AFC  0832               	movf	___fldiv@new_exp,w
  5717  0AFD  00A8               	movwf	??___fldiv
  5718  0AFE  0828               	movf	??___fldiv,w
  5719  0AFF  00B8               	movwf	___fldiv@bexp
  5720  0B00                     i1l2275:
  5721  0B00  1C38               	btfss	___fldiv@bexp,0
  5722  0B01  2B03               	goto	u277_21
  5723  0B02  2B04               	goto	u277_20
  5724  0B03                     u277_21:
  5725  0B03  2B06               	goto	i1l2279
  5726  0B04                     u277_20:
  5727  0B04                     i1l2277:
  5728  0B04  17A6               	bsf	___fldiv@b+2,7
  5729  0B05  2B0A               	goto	i1l738
  5730  0B06                     i1l2279:
  5731  0B06  307F               	movlw	127
  5732  0B07  00A8               	movwf	??___fldiv
  5733  0B08  0828               	movf	??___fldiv,w
  5734  0B09  05A6               	andwf	___fldiv@b+2,f
  5735  0B0A                     i1l738:
  5736  0B0A  0838               	movf	___fldiv@bexp,w
  5737  0B0B  00A8               	movwf	??___fldiv
  5738  0B0C  1003               	clrc
  5739  0B0D  0C28               	rrf	??___fldiv,w
  5740  0B0E  00A9               	movwf	??___fldiv+1
  5741  0B0F  0829               	movf	??___fldiv+1,w
  5742  0B10  00A7               	movwf	___fldiv@b+3
  5743  0B11  0831               	movf	___fldiv@sign,w
  5744  0B12  00A8               	movwf	??___fldiv
  5745  0B13  0828               	movf	??___fldiv,w
  5746  0B14  04A7               	iorwf	___fldiv@b+3,f
  5747  0B15  29AE               	goto	i1l2187
  5748  0B16                     i1l716:
  5749  0B16  0008               	return
  5750  0B17                     __end_of___fldiv:
  5751                           
  5752                           	psect	text15
  5753  0D78                     __ptext15:	
  5754 ;; *************** function ___fladd *****************
  5755 ;; Defined at:
  5756 ;;		line 10 in file "C:\Program Files\Microchip\xc8\v2.36\pic\sources\c90\common\sprcadd.c"
  5757 ;; Parameters:    Size  Location     Type
  5758 ;;  b               4   52[BANK0 ] unsigned char 
  5759 ;;  a               4   56[BANK0 ] unsigned char 
  5760 ;; Auto vars:     Size  Location     Type
  5761 ;;  grs             1   71[BANK0 ] unsigned char 
  5762 ;;  bexp            1   70[BANK0 ] unsigned char 
  5763 ;;  aexp            1   69[BANK0 ] unsigned char 
  5764 ;;  signs           1   68[BANK0 ] unsigned char 
  5765 ;; Return value:  Size  Location     Type
  5766 ;;                  4   52[BANK0 ] unsigned char 
  5767 ;; Registers used:
  5768 ;;		wreg, status,2, status,0, btemp+1
  5769 ;; Tracked objects:
  5770 ;;		On entry : 0/0
  5771 ;;		On exit  : 0/0
  5772 ;;		Unchanged: 0/0
  5773 ;; Data sizes:     COMMON   BANK0   BANK1   BANK3   BANK2
  5774 ;;      Params:         0       8       0       0       0
  5775 ;;      Locals:         0       4       0       0       0
  5776 ;;      Temps:          0       8       0       0       0
  5777 ;;      Totals:         0      20       0       0       0
  5778 ;;Total ram usage:       20 bytes
  5779 ;; Hardware stack levels used: 1
  5780 ;; This function calls:
  5781 ;;		Nothing
  5782 ;; This function is called by:
  5783 ;;		_map
  5784 ;; This function uses a non-reentrant model
  5785 ;;
  5786                           
  5787  0D78                     ___fladd:	
  5788                           ;psect for function ___fladd
  5789                           
  5790  0D78                     i1l1949:	
  5791                           ;incstack = 0
  5792                           ; Regs used in ___fladd: [wreg+status,2+status,0+btemp+1]
  5793                           
  5794  0D78  1283               	bcf	3,5	;RP0=0, select bank0
  5795  0D79  1303               	bcf	3,6	;RP1=0, select bank0
  5796  0D7A  0857               	movf	___fladd@b+3,w
  5797  0D7B  3980               	andlw	128
  5798  0D7C  00DC               	movwf	??___fladd
  5799  0D7D  085C               	movf	??___fladd,w
  5800  0D7E  00E4               	movwf	___fladd@signs
  5801  0D7F                     i1l1951:
  5802  0D7F  0857               	movf	___fladd@b+3,w
  5803  0D80  00DC               	movwf	??___fladd
  5804  0D81  075C               	addwf	??___fladd,w
  5805  0D82  00DD               	movwf	??___fladd+1
  5806  0D83  085D               	movf	??___fladd+1,w
  5807  0D84  00E6               	movwf	___fladd@bexp
  5808  0D85                     i1l1953:
  5809  0D85  1FD6               	btfss	___fladd@b+2,7
  5810  0D86  2D88               	goto	u203_21
  5811  0D87  2D89               	goto	u203_20
  5812  0D88                     u203_21:
  5813  0D88  2D8A               	goto	i1l1957
  5814  0D89                     u203_20:
  5815  0D89                     i1l1955:
  5816  0D89  1466               	bsf	___fladd@bexp,0
  5817  0D8A                     i1l1957:
  5818  0D8A  0866               	movf	___fladd@bexp,w
  5819  0D8B  1903               	btfsc	3,2
  5820  0D8C  2D8E               	goto	u204_21
  5821  0D8D  2D8F               	goto	u204_20
  5822  0D8E                     u204_21:
  5823  0D8E  2D9F               	goto	i1l1967
  5824  0D8F                     u204_20:
  5825  0D8F                     i1l1959:
  5826  0D8F  0A66               	incf	___fladd@bexp,w
  5827  0D90  1D03               	btfss	3,2
  5828  0D91  2D93               	goto	u205_21
  5829  0D92  2D94               	goto	u205_20
  5830  0D93                     u205_21:
  5831  0D93  2D9C               	goto	i1l1963
  5832  0D94                     u205_20:
  5833  0D94                     i1l1961:
  5834  0D94  3000               	movlw	0
  5835  0D95  00D7               	movwf	___fladd@b+3
  5836  0D96  3000               	movlw	0
  5837  0D97  00D6               	movwf	___fladd@b+2
  5838  0D98  3000               	movlw	0
  5839  0D99  00D5               	movwf	___fladd@b+1
  5840  0D9A  3000               	movlw	0
  5841  0D9B  00D4               	movwf	___fladd@b
  5842  0D9C                     i1l1963:
  5843  0D9C  17D6               	bsf	___fladd@b+2,7
  5844  0D9D                     i1l1965:
  5845  0D9D  01D7               	clrf	___fladd@b+3
  5846  0D9E  2DA7               	goto	i1l1969
  5847  0D9F                     i1l1967:
  5848  0D9F  3000               	movlw	0
  5849  0DA0  00D7               	movwf	___fladd@b+3
  5850  0DA1  3000               	movlw	0
  5851  0DA2  00D6               	movwf	___fladd@b+2
  5852  0DA3  3000               	movlw	0
  5853  0DA4  00D5               	movwf	___fladd@b+1
  5854  0DA5  3000               	movlw	0
  5855  0DA6  00D4               	movwf	___fladd@b
  5856  0DA7                     i1l1969:
  5857  0DA7  085B               	movf	___fladd@a+3,w
  5858  0DA8  3980               	andlw	128
  5859  0DA9  00DC               	movwf	??___fladd
  5860  0DAA  085C               	movf	??___fladd,w
  5861  0DAB  00E5               	movwf	___fladd@aexp
  5862  0DAC                     i1l1971:
  5863  0DAC  0865               	movf	___fladd@aexp,w
  5864  0DAD  0664               	xorwf	___fladd@signs,w
  5865  0DAE  1903               	skipnz
  5866  0DAF  2DB1               	goto	u206_21
  5867  0DB0  2DB2               	goto	u206_20
  5868  0DB1                     u206_21:
  5869  0DB1  2DB3               	goto	i1l1975
  5870  0DB2                     u206_20:
  5871  0DB2                     i1l1973:
  5872  0DB2  1764               	bsf	___fladd@signs,6
  5873  0DB3                     i1l1975:
  5874  0DB3  085B               	movf	___fladd@a+3,w
  5875  0DB4  00DC               	movwf	??___fladd
  5876  0DB5  075C               	addwf	??___fladd,w
  5877  0DB6  00DD               	movwf	??___fladd+1
  5878  0DB7  085D               	movf	??___fladd+1,w
  5879  0DB8  00E5               	movwf	___fladd@aexp
  5880  0DB9                     i1l1977:
  5881  0DB9  1FDA               	btfss	___fladd@a+2,7
  5882  0DBA  2DBC               	goto	u207_21
  5883  0DBB  2DBD               	goto	u207_20
  5884  0DBC                     u207_21:
  5885  0DBC  2DBE               	goto	i1l1981
  5886  0DBD                     u207_20:
  5887  0DBD                     i1l1979:
  5888  0DBD  1465               	bsf	___fladd@aexp,0
  5889  0DBE                     i1l1981:
  5890  0DBE  0865               	movf	___fladd@aexp,w
  5891  0DBF  1903               	btfsc	3,2
  5892  0DC0  2DC2               	goto	u208_21
  5893  0DC1  2DC3               	goto	u208_20
  5894  0DC2                     u208_21:
  5895  0DC2  2DD3               	goto	i1l1991
  5896  0DC3                     u208_20:
  5897  0DC3                     i1l1983:
  5898  0DC3  0A65               	incf	___fladd@aexp,w
  5899  0DC4  1D03               	btfss	3,2
  5900  0DC5  2DC7               	goto	u209_21
  5901  0DC6  2DC8               	goto	u209_20
  5902  0DC7                     u209_21:
  5903  0DC7  2DD0               	goto	i1l1987
  5904  0DC8                     u209_20:
  5905  0DC8                     i1l1985:
  5906  0DC8  3000               	movlw	0
  5907  0DC9  00DB               	movwf	___fladd@a+3
  5908  0DCA  3000               	movlw	0
  5909  0DCB  00DA               	movwf	___fladd@a+2
  5910  0DCC  3000               	movlw	0
  5911  0DCD  00D9               	movwf	___fladd@a+1
  5912  0DCE  3000               	movlw	0
  5913  0DCF  00D8               	movwf	___fladd@a
  5914  0DD0                     i1l1987:
  5915  0DD0  17DA               	bsf	___fladd@a+2,7
  5916  0DD1                     i1l1989:
  5917  0DD1  01DB               	clrf	___fladd@a+3
  5918  0DD2  2DDB               	goto	i1l658
  5919  0DD3                     i1l1991:
  5920  0DD3  3000               	movlw	0
  5921  0DD4  00DB               	movwf	___fladd@a+3
  5922  0DD5  3000               	movlw	0
  5923  0DD6  00DA               	movwf	___fladd@a+2
  5924  0DD7  3000               	movlw	0
  5925  0DD8  00D9               	movwf	___fladd@a+1
  5926  0DD9  3000               	movlw	0
  5927  0DDA  00D8               	movwf	___fladd@a
  5928  0DDB                     i1l658:
  5929  0DDB  0866               	movf	___fladd@bexp,w
  5930  0DDC  0265               	subwf	___fladd@aexp,w
  5931  0DDD  1803               	skipnc
  5932  0DDE  2DE0               	goto	u210_21
  5933  0DDF  2DE1               	goto	u210_20
  5934  0DE0                     u210_21:
  5935  0DE0  2E25               	goto	i1l2027
  5936  0DE1                     u210_20:
  5937  0DE1                     i1l1993:
  5938  0DE1  1F64               	btfss	___fladd@signs,6
  5939  0DE2  2DE4               	goto	u211_21
  5940  0DE3  2DE5               	goto	u211_20
  5941  0DE4                     u211_21:
  5942  0DE4  2DE9               	goto	i1l1997
  5943  0DE5                     u211_20:
  5944  0DE5                     i1l1995:
  5945  0DE5  3080               	movlw	128
  5946  0DE6  00DC               	movwf	??___fladd
  5947  0DE7  085C               	movf	??___fladd,w
  5948  0DE8  06E4               	xorwf	___fladd@signs,f
  5949  0DE9                     i1l1997:
  5950  0DE9  0866               	movf	___fladd@bexp,w
  5951  0DEA  00DC               	movwf	??___fladd
  5952  0DEB  085C               	movf	??___fladd,w
  5953  0DEC  00E7               	movwf	___fladd@grs
  5954  0DED                     i1l1999:
  5955  0DED  0865               	movf	___fladd@aexp,w
  5956  0DEE  00DC               	movwf	??___fladd
  5957  0DEF  085C               	movf	??___fladd,w
  5958  0DF0  00E6               	movwf	___fladd@bexp
  5959  0DF1                     i1l2001:
  5960  0DF1  0867               	movf	___fladd@grs,w
  5961  0DF2  00DC               	movwf	??___fladd
  5962  0DF3  085C               	movf	??___fladd,w
  5963  0DF4  00E5               	movwf	___fladd@aexp
  5964  0DF5                     i1l2003:
  5965  0DF5  0854               	movf	___fladd@b,w
  5966  0DF6  00DC               	movwf	??___fladd
  5967  0DF7  085C               	movf	??___fladd,w
  5968  0DF8  00E7               	movwf	___fladd@grs
  5969  0DF9                     i1l2005:
  5970  0DF9  0858               	movf	___fladd@a,w
  5971  0DFA  00DC               	movwf	??___fladd
  5972  0DFB  085C               	movf	??___fladd,w
  5973  0DFC  00D4               	movwf	___fladd@b
  5974  0DFD                     i1l2007:
  5975  0DFD  0867               	movf	___fladd@grs,w
  5976  0DFE  00DC               	movwf	??___fladd
  5977  0DFF  085C               	movf	??___fladd,w
  5978  0E00  00D8               	movwf	___fladd@a
  5979  0E01                     i1l2009:
  5980  0E01  0855               	movf	___fladd@b+1,w
  5981  0E02  00DC               	movwf	??___fladd
  5982  0E03  085C               	movf	??___fladd,w
  5983  0E04  00E7               	movwf	___fladd@grs
  5984  0E05                     i1l2011:
  5985  0E05  0859               	movf	___fladd@a+1,w
  5986  0E06  00DC               	movwf	??___fladd
  5987  0E07  085C               	movf	??___fladd,w
  5988  0E08  00D5               	movwf	___fladd@b+1
  5989  0E09                     i1l2013:
  5990  0E09  0867               	movf	___fladd@grs,w
  5991  0E0A  00DC               	movwf	??___fladd
  5992  0E0B  085C               	movf	??___fladd,w
  5993  0E0C  00D9               	movwf	___fladd@a+1
  5994  0E0D                     i1l2015:
  5995  0E0D  0856               	movf	___fladd@b+2,w
  5996  0E0E  00DC               	movwf	??___fladd
  5997  0E0F  085C               	movf	??___fladd,w
  5998  0E10  00E7               	movwf	___fladd@grs
  5999  0E11                     i1l2017:
  6000  0E11  085A               	movf	___fladd@a+2,w
  6001  0E12  00DC               	movwf	??___fladd
  6002  0E13  085C               	movf	??___fladd,w
  6003  0E14  00D6               	movwf	___fladd@b+2
  6004  0E15                     i1l2019:
  6005  0E15  0867               	movf	___fladd@grs,w
  6006  0E16  00DC               	movwf	??___fladd
  6007  0E17  085C               	movf	??___fladd,w
  6008  0E18  00DA               	movwf	___fladd@a+2
  6009  0E19                     i1l2021:
  6010  0E19  0857               	movf	___fladd@b+3,w
  6011  0E1A  00DC               	movwf	??___fladd
  6012  0E1B  085C               	movf	??___fladd,w
  6013  0E1C  00E7               	movwf	___fladd@grs
  6014  0E1D                     i1l2023:
  6015  0E1D  085B               	movf	___fladd@a+3,w
  6016  0E1E  00DC               	movwf	??___fladd
  6017  0E1F  085C               	movf	??___fladd,w
  6018  0E20  00D7               	movwf	___fladd@b+3
  6019  0E21                     i1l2025:
  6020  0E21  0867               	movf	___fladd@grs,w
  6021  0E22  00DC               	movwf	??___fladd
  6022  0E23  085C               	movf	??___fladd,w
  6023  0E24  00DB               	movwf	___fladd@a+3
  6024  0E25                     i1l2027:
  6025  0E25  01E7               	clrf	___fladd@grs
  6026  0E26                     i1l2029:
  6027  0E26  0865               	movf	___fladd@aexp,w
  6028  0E27  00DC               	movwf	??___fladd
  6029  0E28  01DD               	clrf	??___fladd+1
  6030  0E29  085D               	movf	??___fladd+1,w
  6031  0E2A  00DF               	movwf	??___fladd+3
  6032  0E2B  0866               	movf	___fladd@bexp,w
  6033  0E2C  025C               	subwf	??___fladd,w
  6034  0E2D  00DE               	movwf	??___fladd+2
  6035  0E2E  1C03               	skipc
  6036  0E2F  03DF               	decf	??___fladd+3,f
  6037  0E30  085F               	movf	??___fladd+3,w
  6038  0E31  3A80               	xorlw	128
  6039  0E32  00FF               	movwf	btemp+1
  6040  0E33  3080               	movlw	128
  6041  0E34  027F               	subwf	btemp+1,w
  6042  0E35  1D03               	skipz
  6043  0E36  2E39               	goto	u212_25
  6044  0E37  301A               	movlw	26
  6045  0E38  025E               	subwf	??___fladd+2,w
  6046  0E39                     u212_25:
  6047  0E39  1C03               	skipc
  6048  0E3A  2E3C               	goto	u212_21
  6049  0E3B  2E3D               	goto	u212_20
  6050  0E3C                     u212_21:
  6051  0E3C  2E7A               	goto	i1l2045
  6052  0E3D                     u212_20:
  6053  0E3D                     i1l2031:
  6054  0E3D  1283               	bcf	3,5	;RP0=0, select bank0
  6055  0E3E  1303               	bcf	3,6	;RP1=0, select bank0
  6056  0E3F  0857               	movf	___fladd@b+3,w
  6057  0E40  0456               	iorwf	___fladd@b+2,w
  6058  0E41  0455               	iorwf	___fladd@b+1,w
  6059  0E42  0454               	iorwf	___fladd@b,w
  6060  0E43  1D03               	skipz
  6061  0E44  2E46               	goto	u213_21
  6062  0E45  2E48               	goto	u213_20
  6063  0E46                     u213_21:
  6064  0E46  3001               	movlw	1
  6065  0E47  2E49               	goto	u214_20
  6066  0E48                     u213_20:
  6067  0E48  3000               	movlw	0
  6068  0E49                     u214_20:
  6069  0E49  00DC               	movwf	??___fladd
  6070  0E4A  085C               	movf	??___fladd,w
  6071  0E4B  00E7               	movwf	___fladd@grs
  6072  0E4C  3000               	movlw	0
  6073  0E4D  00D7               	movwf	___fladd@b+3
  6074  0E4E  3000               	movlw	0
  6075  0E4F  00D6               	movwf	___fladd@b+2
  6076  0E50  3000               	movlw	0
  6077  0E51  00D5               	movwf	___fladd@b+1
  6078  0E52  3000               	movlw	0
  6079  0E53  00D4               	movwf	___fladd@b
  6080  0E54  0865               	movf	___fladd@aexp,w
  6081  0E55  00DC               	movwf	??___fladd
  6082  0E56  085C               	movf	??___fladd,w
  6083  0E57  00E6               	movwf	___fladd@bexp
  6084  0E58  2E82               	goto	i1l662
  6085  0E59                     i1l664:
  6086  0E59  1C67               	btfss	___fladd@grs,0
  6087  0E5A  2E5C               	goto	u215_21
  6088  0E5B  2E5D               	goto	u215_20
  6089  0E5C                     u215_21:
  6090  0E5C  2E66               	goto	i1l2035
  6091  0E5D                     u215_20:
  6092  0E5D                     i1l2033:
  6093  0E5D  0867               	movf	___fladd@grs,w
  6094  0E5E  00DC               	movwf	??___fladd
  6095  0E5F  1003               	clrc
  6096  0E60  0C5C               	rrf	??___fladd,w
  6097  0E61  3801               	iorlw	1
  6098  0E62  00DD               	movwf	??___fladd+1
  6099  0E63  085D               	movf	??___fladd+1,w
  6100  0E64  00E7               	movwf	___fladd@grs
  6101  0E65  2E68               	goto	i1l2037
  6102  0E66                     i1l2035:
  6103  0E66  1003               	clrc
  6104  0E67  0CE7               	rrf	___fladd@grs,f
  6105  0E68                     i1l2037:
  6106  0E68  1C54               	btfss	___fladd@b,0
  6107  0E69  2E6B               	goto	u216_21
  6108  0E6A  2E6C               	goto	u216_20
  6109  0E6B                     u216_21:
  6110  0E6B  2E6D               	goto	i1l2041
  6111  0E6C                     u216_20:
  6112  0E6C                     i1l2039:
  6113  0E6C  17E7               	bsf	___fladd@grs,7
  6114  0E6D                     i1l2041:
  6115  0E6D  3001               	movlw	1
  6116  0E6E  00DC               	movwf	??___fladd
  6117  0E6F                     u217_25:
  6118  0E6F  0D57               	rlf	___fladd@b+3,w
  6119  0E70  0CD7               	rrf	___fladd@b+3,f
  6120  0E71  0CD6               	rrf	___fladd@b+2,f
  6121  0E72  0CD5               	rrf	___fladd@b+1,f
  6122  0E73  0CD4               	rrf	___fladd@b,f
  6123  0E74  0BDC               	decfsz	??___fladd& (0+127),f
  6124  0E75  2E6F               	goto	u217_25
  6125  0E76                     i1l2043:
  6126  0E76  3001               	movlw	1
  6127  0E77  00DC               	movwf	??___fladd
  6128  0E78  085C               	movf	??___fladd,w
  6129  0E79  07E6               	addwf	___fladd@bexp,f
  6130  0E7A                     i1l2045:
  6131  0E7A  1283               	bcf	3,5	;RP0=0, select bank0
  6132  0E7B  1303               	bcf	3,6	;RP1=0, select bank0
  6133  0E7C  0865               	movf	___fladd@aexp,w
  6134  0E7D  0266               	subwf	___fladd@bexp,w
  6135  0E7E  1C03               	skipc
  6136  0E7F  2E81               	goto	u218_21
  6137  0E80  2E82               	goto	u218_20
  6138  0E81                     u218_21:
  6139  0E81  2E59               	goto	i1l664
  6140  0E82                     u218_20:
  6141  0E82                     i1l662:
  6142  0E82  1B64               	btfsc	___fladd@signs,6
  6143  0E83  2E85               	goto	u219_21
  6144  0E84  2E86               	goto	u219_20
  6145  0E85                     u219_21:
  6146  0E85  2ED1               	goto	i1l2071
  6147  0E86                     u219_20:
  6148  0E86                     i1l2047:
  6149  0E86  0866               	movf	___fladd@bexp,w
  6150  0E87  1D03               	btfss	3,2
  6151  0E88  2E8A               	goto	u220_21
  6152  0E89  2E8B               	goto	u220_20
  6153  0E8A                     u220_21:
  6154  0E8A  2E94               	goto	i1l2053
  6155  0E8B                     u220_20:
  6156  0E8B                     i1l2049:
  6157  0E8B  3000               	movlw	0
  6158  0E8C  00D7               	movwf	?___fladd+3
  6159  0E8D  3000               	movlw	0
  6160  0E8E  00D6               	movwf	?___fladd+2
  6161  0E8F  3000               	movlw	0
  6162  0E90  00D5               	movwf	?___fladd+1
  6163  0E91  3000               	movlw	0
  6164  0E92  00D4               	movwf	?___fladd
  6165  0E93  2FFF               	goto	i1l671
  6166  0E94                     i1l2053:
  6167  0E94  0858               	movf	___fladd@a,w
  6168  0E95  07D4               	addwf	___fladd@b,f
  6169  0E96  0859               	movf	___fladd@a+1,w
  6170  0E97  1103               	clrz
  6171  0E98  1803               	skipnc
  6172  0E99  3E01               	addlw	1
  6173  0E9A  1903               	skipnz
  6174  0E9B  2E9D               	goto	u221_21
  6175  0E9C  07D5               	addwf	___fladd@b+1,f
  6176  0E9D                     u221_21:
  6177  0E9D  085A               	movf	___fladd@a+2,w
  6178  0E9E  1103               	clrz
  6179  0E9F  1803               	skipnc
  6180  0EA0  3E01               	addlw	1
  6181  0EA1  1903               	skipnz
  6182  0EA2  2EA4               	goto	u221_22
  6183  0EA3  07D6               	addwf	___fladd@b+2,f
  6184  0EA4                     u221_22:
  6185  0EA4  085B               	movf	___fladd@a+3,w
  6186  0EA5  1103               	clrz
  6187  0EA6  1803               	skipnc
  6188  0EA7  3E01               	addlw	1
  6189  0EA8  1903               	skipnz
  6190  0EA9  2EAB               	goto	u221_23
  6191  0EAA  07D7               	addwf	___fladd@b+3,f
  6192  0EAB                     u221_23:
  6193  0EAB                     i1l2055:
  6194  0EAB  1C57               	btfss	___fladd@b+3,0
  6195  0EAC  2EAE               	goto	u222_21
  6196  0EAD  2EAF               	goto	u222_20
  6197  0EAE                     u222_21:
  6198  0EAE  2F85               	goto	i1l2105
  6199  0EAF                     u222_20:
  6200  0EAF                     i1l2057:
  6201  0EAF  1C67               	btfss	___fladd@grs,0
  6202  0EB0  2EB2               	goto	u223_21
  6203  0EB1  2EB3               	goto	u223_20
  6204  0EB2                     u223_21:
  6205  0EB2  2EBC               	goto	i1l2061
  6206  0EB3                     u223_20:
  6207  0EB3                     i1l2059:
  6208  0EB3  0867               	movf	___fladd@grs,w
  6209  0EB4  00DC               	movwf	??___fladd
  6210  0EB5  1003               	clrc
  6211  0EB6  0C5C               	rrf	??___fladd,w
  6212  0EB7  3801               	iorlw	1
  6213  0EB8  00DD               	movwf	??___fladd+1
  6214  0EB9  085D               	movf	??___fladd+1,w
  6215  0EBA  00E7               	movwf	___fladd@grs
  6216  0EBB  2EBE               	goto	i1l2063
  6217  0EBC                     i1l2061:
  6218  0EBC  1003               	clrc
  6219  0EBD  0CE7               	rrf	___fladd@grs,f
  6220  0EBE                     i1l2063:
  6221  0EBE  1C54               	btfss	___fladd@b,0
  6222  0EBF  2EC1               	goto	u224_21
  6223  0EC0  2EC2               	goto	u224_20
  6224  0EC1                     u224_21:
  6225  0EC1  2EC3               	goto	i1l2067
  6226  0EC2                     u224_20:
  6227  0EC2                     i1l2065:
  6228  0EC2  17E7               	bsf	___fladd@grs,7
  6229  0EC3                     i1l2067:
  6230  0EC3  3001               	movlw	1
  6231  0EC4  00DC               	movwf	??___fladd
  6232  0EC5                     u225_25:
  6233  0EC5  0D57               	rlf	___fladd@b+3,w
  6234  0EC6  0CD7               	rrf	___fladd@b+3,f
  6235  0EC7  0CD6               	rrf	___fladd@b+2,f
  6236  0EC8  0CD5               	rrf	___fladd@b+1,f
  6237  0EC9  0CD4               	rrf	___fladd@b,f
  6238  0ECA  0BDC               	decfsz	??___fladd& (0+127),f
  6239  0ECB  2EC5               	goto	u225_25
  6240  0ECC                     i1l2069:
  6241  0ECC  3001               	movlw	1
  6242  0ECD  00DC               	movwf	??___fladd
  6243  0ECE  085C               	movf	??___fladd,w
  6244  0ECF  07E6               	addwf	___fladd@bexp,f
  6245  0ED0  2F85               	goto	i1l2105
  6246  0ED1                     i1l2071:
  6247  0ED1  0857               	movf	___fladd@b+3,w
  6248  0ED2  3A80               	xorlw	128
  6249  0ED3  00FF               	movwf	btemp+1
  6250  0ED4  085B               	movf	___fladd@a+3,w
  6251  0ED5  3A80               	xorlw	128
  6252  0ED6  027F               	subwf	btemp+1,w
  6253  0ED7  1D03               	skipz
  6254  0ED8  2EE3               	goto	u226_23
  6255  0ED9  085A               	movf	___fladd@a+2,w
  6256  0EDA  0256               	subwf	___fladd@b+2,w
  6257  0EDB  1D03               	skipz
  6258  0EDC  2EE3               	goto	u226_23
  6259  0EDD  0859               	movf	___fladd@a+1,w
  6260  0EDE  0255               	subwf	___fladd@b+1,w
  6261  0EDF  1D03               	skipz
  6262  0EE0  2EE3               	goto	u226_23
  6263  0EE1  0858               	movf	___fladd@a,w
  6264  0EE2  0254               	subwf	___fladd@b,w
  6265  0EE3                     u226_23:
  6266  0EE3  1803               	skipnc
  6267  0EE4  2EE6               	goto	u226_21
  6268  0EE5  2EE7               	goto	u226_20
  6269  0EE6                     u226_21:
  6270  0EE6  2F3F               	goto	i1l2081
  6271  0EE7                     u226_20:
  6272  0EE7                     i1l2073:
  6273  0EE7  30FF               	movlw	255
  6274  0EE8  00DC               	movwf	??___fladd
  6275  0EE9  30FF               	movlw	255
  6276  0EEA  00DD               	movwf	??___fladd+1
  6277  0EEB  30FF               	movlw	255
  6278  0EEC  00DE               	movwf	??___fladd+2
  6279  0EED  30FF               	movlw	255
  6280  0EEE  00DF               	movwf	??___fladd+3
  6281  0EEF  0858               	movf	___fladd@a,w
  6282  0EF0  00E0               	movwf	??___fladd+4
  6283  0EF1  0859               	movf	___fladd@a+1,w
  6284  0EF2  00E1               	movwf	??___fladd+5
  6285  0EF3  085A               	movf	___fladd@a+2,w
  6286  0EF4  00E2               	movwf	??___fladd+6
  6287  0EF5  085B               	movf	___fladd@a+3,w
  6288  0EF6  00E3               	movwf	??___fladd+7
  6289  0EF7  0854               	movf	___fladd@b,w
  6290  0EF8  02E0               	subwf	??___fladd+4,f
  6291  0EF9  0855               	movf	___fladd@b+1,w
  6292  0EFA  1C03               	skipc
  6293  0EFB  0F55               	incfsz	___fladd@b+1,w
  6294  0EFC  2EFE               	goto	u227_21
  6295  0EFD  2EFF               	goto	u227_22
  6296  0EFE                     u227_21:
  6297  0EFE  02E1               	subwf	??___fladd+5,f
  6298  0EFF                     u227_22:
  6299  0EFF  0856               	movf	___fladd@b+2,w
  6300  0F00  1C03               	skipc
  6301  0F01  0F56               	incfsz	___fladd@b+2,w
  6302  0F02  2F04               	goto	u227_23
  6303  0F03  2F05               	goto	u227_24
  6304  0F04                     u227_23:
  6305  0F04  02E2               	subwf	??___fladd+6,f
  6306  0F05                     u227_24:
  6307  0F05  0857               	movf	___fladd@b+3,w
  6308  0F06  1C03               	skipc
  6309  0F07  0F57               	incfsz	___fladd@b+3,w
  6310  0F08  2F0A               	goto	u227_25
  6311  0F09  2F0B               	goto	u227_26
  6312  0F0A                     u227_25:
  6313  0F0A  02E3               	subwf	??___fladd+7,f
  6314  0F0B                     u227_26:
  6315  0F0B  0860               	movf	??___fladd+4,w
  6316  0F0C  07DC               	addwf	??___fladd,f
  6317  0F0D  0861               	movf	??___fladd+5,w
  6318  0F0E  1803               	skipnc
  6319  0F0F  0F61               	incfsz	??___fladd+5,w
  6320  0F10  2F12               	goto	u228_20
  6321  0F11  2F13               	goto	u228_21
  6322  0F12                     u228_20:
  6323  0F12  07DD               	addwf	??___fladd+1,f
  6324  0F13                     u228_21:
  6325  0F13  0862               	movf	??___fladd+6,w
  6326  0F14  1803               	skipnc
  6327  0F15  0F62               	incfsz	??___fladd+6,w
  6328  0F16  2F18               	goto	u228_22
  6329  0F17  2F19               	goto	u228_23
  6330  0F18                     u228_22:
  6331  0F18  07DE               	addwf	??___fladd+2,f
  6332  0F19                     u228_23:
  6333  0F19  0863               	movf	??___fladd+7,w
  6334  0F1A  1803               	skipnc
  6335  0F1B  0A63               	incf	??___fladd+7,w
  6336  0F1C  07DF               	addwf	??___fladd+3,f
  6337  0F1D  085F               	movf	??___fladd+3,w
  6338  0F1E  00D7               	movwf	___fladd@b+3
  6339  0F1F  085E               	movf	??___fladd+2,w
  6340  0F20  00D6               	movwf	___fladd@b+2
  6341  0F21  085D               	movf	??___fladd+1,w
  6342  0F22  00D5               	movwf	___fladd@b+1
  6343  0F23  085C               	movf	??___fladd,w
  6344  0F24  00D4               	movwf	___fladd@b
  6345  0F25                     i1l2075:
  6346  0F25  3080               	movlw	128
  6347  0F26  00DC               	movwf	??___fladd
  6348  0F27  085C               	movf	??___fladd,w
  6349  0F28  06E4               	xorwf	___fladd@signs,f
  6350  0F29  09E7               	comf	___fladd@grs,f
  6351  0F2A  0AE7               	incf	___fladd@grs,f
  6352  0F2B                     i1l2077:
  6353  0F2B  0867               	movf	___fladd@grs,w
  6354  0F2C  1D03               	btfss	3,2
  6355  0F2D  2F2F               	goto	u229_21
  6356  0F2E  2F30               	goto	u229_20
  6357  0F2F                     u229_21:
  6358  0F2F  2F4D               	goto	i1l679
  6359  0F30                     u229_20:
  6360  0F30                     i1l2079:
  6361  0F30  3001               	movlw	1
  6362  0F31  07D4               	addwf	___fladd@b,f
  6363  0F32  3000               	movlw	0
  6364  0F33  1803               	skipnc
  6365  0F34  3001               	movlw	1
  6366  0F35  07D5               	addwf	___fladd@b+1,f
  6367  0F36  3000               	movlw	0
  6368  0F37  1803               	skipnc
  6369  0F38  3001               	movlw	1
  6370  0F39  07D6               	addwf	___fladd@b+2,f
  6371  0F3A  3000               	movlw	0
  6372  0F3B  1803               	skipnc
  6373  0F3C  3001               	movlw	1
  6374  0F3D  07D7               	addwf	___fladd@b+3,f
  6375  0F3E  2F4D               	goto	i1l679
  6376  0F3F                     i1l2081:
  6377  0F3F  0858               	movf	___fladd@a,w
  6378  0F40  02D4               	subwf	___fladd@b,f
  6379  0F41  0859               	movf	___fladd@a+1,w
  6380  0F42  1C03               	skipc
  6381  0F43  0F59               	incfsz	___fladd@a+1,w
  6382  0F44  02D5               	subwf	___fladd@b+1,f
  6383  0F45  085A               	movf	___fladd@a+2,w
  6384  0F46  1C03               	skipc
  6385  0F47  0F5A               	incfsz	___fladd@a+2,w
  6386  0F48  02D6               	subwf	___fladd@b+2,f
  6387  0F49  085B               	movf	___fladd@a+3,w
  6388  0F4A  1C03               	skipc
  6389  0F4B  0F5B               	incfsz	___fladd@a+3,w
  6390  0F4C  02D7               	subwf	___fladd@b+3,f
  6391  0F4D                     i1l679:
  6392  0F4D  0857               	movf	___fladd@b+3,w
  6393  0F4E  0456               	iorwf	___fladd@b+2,w
  6394  0F4F  0455               	iorwf	___fladd@b+1,w
  6395  0F50  0454               	iorwf	___fladd@b,w
  6396  0F51  1D03               	skipz
  6397  0F52  2F54               	goto	u230_21
  6398  0F53  2F55               	goto	u230_20
  6399  0F54                     u230_21:
  6400  0F54  2F81               	goto	i1l2103
  6401  0F55                     u230_20:
  6402  0F55                     i1l2083:
  6403  0F55  0867               	movf	___fladd@grs,w
  6404  0F56  1D03               	btfss	3,2
  6405  0F57  2F59               	goto	u231_21
  6406  0F58  2F5A               	goto	u231_20
  6407  0F59                     u231_21:
  6408  0F59  2F81               	goto	i1l2103
  6409  0F5A                     u231_20:
  6410  0F5A                     i1l2085:
  6411  0F5A  3000               	movlw	0
  6412  0F5B  00D7               	movwf	?___fladd+3
  6413  0F5C  3000               	movlw	0
  6414  0F5D  00D6               	movwf	?___fladd+2
  6415  0F5E  3000               	movlw	0
  6416  0F5F  00D5               	movwf	?___fladd+1
  6417  0F60  3000               	movlw	0
  6418  0F61  00D4               	movwf	?___fladd
  6419  0F62  2FFF               	goto	i1l671
  6420  0F63                     i1l2089:
  6421  0F63  3001               	movlw	1
  6422  0F64  00DC               	movwf	??___fladd
  6423  0F65                     u232_25:
  6424  0F65  1003               	clrc
  6425  0F66  0DD4               	rlf	___fladd@b,f
  6426  0F67  0DD5               	rlf	___fladd@b+1,f
  6427  0F68  0DD6               	rlf	___fladd@b+2,f
  6428  0F69  0DD7               	rlf	___fladd@b+3,f
  6429  0F6A  0BDC               	decfsz	??___fladd,f
  6430  0F6B  2F65               	goto	u232_25
  6431  0F6C                     i1l2091:
  6432  0F6C  1FE7               	btfss	___fladd@grs,7
  6433  0F6D  2F6F               	goto	u233_21
  6434  0F6E  2F70               	goto	u233_20
  6435  0F6F                     u233_21:
  6436  0F6F  2F71               	goto	i1l683
  6437  0F70                     u233_20:
  6438  0F70                     i1l2093:
  6439  0F70  1454               	bsf	___fladd@b,0
  6440  0F71                     i1l683:
  6441  0F71  1C67               	btfss	___fladd@grs,0
  6442  0F72  2F74               	goto	u234_21
  6443  0F73  2F75               	goto	u234_20
  6444  0F74                     u234_21:
  6445  0F74  2F78               	goto	i1l2097
  6446  0F75                     u234_20:
  6447  0F75                     i1l2095:
  6448  0F75  1403               	setc
  6449  0F76  0DE7               	rlf	___fladd@grs,f
  6450  0F77  2F7A               	goto	i1l2099
  6451  0F78                     i1l2097:
  6452  0F78  1003               	clrc
  6453  0F79  0DE7               	rlf	___fladd@grs,f
  6454  0F7A                     i1l2099:
  6455  0F7A  0866               	movf	___fladd@bexp,w
  6456  0F7B  1903               	btfsc	3,2
  6457  0F7C  2F7E               	goto	u235_21
  6458  0F7D  2F7F               	goto	u235_20
  6459  0F7E                     u235_21:
  6460  0F7E  2F81               	goto	i1l2103
  6461  0F7F                     u235_20:
  6462  0F7F                     i1l2101:
  6463  0F7F  3001               	movlw	1
  6464  0F80  02E6               	subwf	___fladd@bexp,f
  6465  0F81                     i1l2103:
  6466  0F81  1FD6               	btfss	___fladd@b+2,7
  6467  0F82  2F84               	goto	u236_21
  6468  0F83  2F85               	goto	u236_20
  6469  0F84                     u236_21:
  6470  0F84  2F63               	goto	i1l2089
  6471  0F85                     u236_20:
  6472  0F85                     i1l2105:
  6473  0F85  01E5               	clrf	___fladd@aexp
  6474  0F86                     i1l2107:
  6475  0F86  1FE7               	btfss	___fladd@grs,7
  6476  0F87  2F89               	goto	u237_21
  6477  0F88  2F8A               	goto	u237_20
  6478  0F89                     u237_21:
  6479  0F89  2F98               	goto	i1l2115
  6480  0F8A                     u237_20:
  6481  0F8A                     i1l2109:
  6482  0F8A  0867               	movf	___fladd@grs,w
  6483  0F8B  397F               	andlw	127
  6484  0F8C  1903               	btfsc	3,2
  6485  0F8D  2F8F               	goto	u238_21
  6486  0F8E  2F90               	goto	u238_20
  6487  0F8F                     u238_21:
  6488  0F8F  2F93               	goto	i1l689
  6489  0F90                     u238_20:
  6490  0F90                     i1l2111:
  6491  0F90  01E5               	clrf	___fladd@aexp
  6492  0F91  0AE5               	incf	___fladd@aexp,f
  6493  0F92  2F98               	goto	i1l2115
  6494  0F93                     i1l689:
  6495  0F93  1C54               	btfss	___fladd@b,0
  6496  0F94  2F96               	goto	u239_21
  6497  0F95  2F97               	goto	u239_20
  6498  0F96                     u239_21:
  6499  0F96  2F98               	goto	i1l2115
  6500  0F97                     u239_20:
  6501  0F97  2F90               	goto	i1l2111
  6502  0F98                     i1l2115:
  6503  0F98  0865               	movf	___fladd@aexp,w
  6504  0F99  1903               	btfsc	3,2
  6505  0F9A  2F9C               	goto	u240_21
  6506  0F9B  2F9D               	goto	u240_20
  6507  0F9C                     u240_21:
  6508  0F9C  2FD1               	goto	i1l692
  6509  0F9D                     u240_20:
  6510  0F9D                     i1l2117:
  6511  0F9D  3001               	movlw	1
  6512  0F9E  07D4               	addwf	___fladd@b,f
  6513  0F9F  3000               	movlw	0
  6514  0FA0  1803               	skipnc
  6515  0FA1  3001               	movlw	1
  6516  0FA2  07D5               	addwf	___fladd@b+1,f
  6517  0FA3  3000               	movlw	0
  6518  0FA4  1803               	skipnc
  6519  0FA5  3001               	movlw	1
  6520  0FA6  07D6               	addwf	___fladd@b+2,f
  6521  0FA7  3000               	movlw	0
  6522  0FA8  1803               	skipnc
  6523  0FA9  3001               	movlw	1
  6524  0FAA  07D7               	addwf	___fladd@b+3,f
  6525  0FAB                     i1l2119:
  6526  0FAB  1C57               	btfss	___fladd@b+3,0
  6527  0FAC  2FAE               	goto	u241_21
  6528  0FAD  2FAF               	goto	u241_20
  6529  0FAE                     u241_21:
  6530  0FAE  2FD1               	goto	i1l692
  6531  0FAF                     u241_20:
  6532  0FAF                     i1l2121:
  6533  0FAF  0854               	movf	___fladd@b,w
  6534  0FB0  00DC               	movwf	??___fladd
  6535  0FB1  0855               	movf	___fladd@b+1,w
  6536  0FB2  00DD               	movwf	??___fladd+1
  6537  0FB3  0856               	movf	___fladd@b+2,w
  6538  0FB4  00DE               	movwf	??___fladd+2
  6539  0FB5  0857               	movf	___fladd@b+3,w
  6540  0FB6  00DF               	movwf	??___fladd+3
  6541  0FB7  3001               	movlw	1
  6542  0FB8  00E0               	movwf	??___fladd+4
  6543  0FB9                     u242_25:
  6544  0FB9  0D5F               	rlf	??___fladd+3,w
  6545  0FBA  0CDF               	rrf	??___fladd+3,f
  6546  0FBB  0CDE               	rrf	??___fladd+2,f
  6547  0FBC  0CDD               	rrf	??___fladd+1,f
  6548  0FBD  0CDC               	rrf	??___fladd,f
  6549  0FBE                     u242_20:
  6550  0FBE  0BE0               	decfsz	??___fladd+4,f
  6551  0FBF  2FB9               	goto	u242_25
  6552  0FC0  085F               	movf	??___fladd+3,w
  6553  0FC1  00D7               	movwf	___fladd@b+3
  6554  0FC2  085E               	movf	??___fladd+2,w
  6555  0FC3  00D6               	movwf	___fladd@b+2
  6556  0FC4  085D               	movf	??___fladd+1,w
  6557  0FC5  00D5               	movwf	___fladd@b+1
  6558  0FC6  085C               	movf	??___fladd,w
  6559  0FC7  00D4               	movwf	___fladd@b
  6560  0FC8  0A66               	incf	___fladd@bexp,w
  6561  0FC9  1903               	btfsc	3,2
  6562  0FCA  2FCC               	goto	u243_21
  6563  0FCB  2FCD               	goto	u243_20
  6564  0FCC                     u243_21:
  6565  0FCC  2FD1               	goto	i1l692
  6566  0FCD                     u243_20:
  6567  0FCD                     i1l2123:
  6568  0FCD  3001               	movlw	1
  6569  0FCE  00DC               	movwf	??___fladd
  6570  0FCF  085C               	movf	??___fladd,w
  6571  0FD0  07E6               	addwf	___fladd@bexp,f
  6572  0FD1                     i1l692:
  6573  0FD1  0A66               	incf	___fladd@bexp,w
  6574  0FD2  1903               	btfsc	3,2
  6575  0FD3  2FD5               	goto	u244_21
  6576  0FD4  2FD6               	goto	u244_20
  6577  0FD5                     u244_21:
  6578  0FD5  2FDB               	goto	i1l2127
  6579  0FD6                     u244_20:
  6580  0FD6                     i1l2125:
  6581  0FD6  0866               	movf	___fladd@bexp,w
  6582  0FD7  1D03               	btfss	3,2
  6583  0FD8  2FDA               	goto	u245_21
  6584  0FD9  2FDB               	goto	u245_20
  6585  0FDA                     u245_21:
  6586  0FDA  2FE9               	goto	i1l2133
  6587  0FDB                     u245_20:
  6588  0FDB                     i1l2127:
  6589  0FDB  3000               	movlw	0
  6590  0FDC  00D7               	movwf	___fladd@b+3
  6591  0FDD  3000               	movlw	0
  6592  0FDE  00D6               	movwf	___fladd@b+2
  6593  0FDF  3000               	movlw	0
  6594  0FE0  00D5               	movwf	___fladd@b+1
  6595  0FE1  3000               	movlw	0
  6596  0FE2  00D4               	movwf	___fladd@b
  6597  0FE3                     i1l2129:
  6598  0FE3  0866               	movf	___fladd@bexp,w
  6599  0FE4  1D03               	btfss	3,2
  6600  0FE5  2FE7               	goto	u246_21
  6601  0FE6  2FE8               	goto	u246_20
  6602  0FE7                     u246_21:
  6603  0FE7  2FE9               	goto	i1l2133
  6604  0FE8                     u246_20:
  6605  0FE8                     i1l2131:
  6606  0FE8  01E4               	clrf	___fladd@signs
  6607  0FE9                     i1l2133:
  6608  0FE9  1C66               	btfss	___fladd@bexp,0
  6609  0FEA  2FEC               	goto	u247_21
  6610  0FEB  2FED               	goto	u247_20
  6611  0FEC                     u247_21:
  6612  0FEC  2FEF               	goto	i1l2137
  6613  0FED                     u247_20:
  6614  0FED                     i1l2135:
  6615  0FED  17D6               	bsf	___fladd@b+2,7
  6616  0FEE  2FF3               	goto	i1l700
  6617  0FEF                     i1l2137:
  6618  0FEF  307F               	movlw	127
  6619  0FF0  00DC               	movwf	??___fladd
  6620  0FF1  085C               	movf	??___fladd,w
  6621  0FF2  05D6               	andwf	___fladd@b+2,f
  6622  0FF3                     i1l700:
  6623  0FF3  0866               	movf	___fladd@bexp,w
  6624  0FF4  00DC               	movwf	??___fladd
  6625  0FF5  1003               	clrc
  6626  0FF6  0C5C               	rrf	??___fladd,w
  6627  0FF7  00DD               	movwf	??___fladd+1
  6628  0FF8  085D               	movf	??___fladd+1,w
  6629  0FF9  00D7               	movwf	___fladd@b+3
  6630  0FFA                     i1l2139:
  6631  0FFA  1FE4               	btfss	___fladd@signs,7
  6632  0FFB  2FFD               	goto	u248_21
  6633  0FFC  2FFE               	goto	u248_20
  6634  0FFD                     u248_21:
  6635  0FFD  2FFF               	goto	i1l701
  6636  0FFE                     u248_20:
  6637  0FFE                     i1l2141:
  6638  0FFE  17D7               	bsf	___fladd@b+3,7
  6639  0FFF                     i1l701:
  6640  0FFF                     i1l671:
  6641  0FFF  0008               	return
  6642  1000                     __end_of___fladd:
  6643  007E                     btemp	set	126	;btemp
  6644  007E                     wtemp0	set	126
  6645                           
  6646                           	psect	idloc
  6647                           
  6648                           ;Config register IDLOC0 @ 0x2000
  6649                           ;	unspecified, using default values
  6650  2000                     	org	8192
  6651  2000  3FFF               	dw	16383
  6652                           
  6653                           ;Config register IDLOC1 @ 0x2001
  6654                           ;	unspecified, using default values
  6655  2001                     	org	8193
  6656  2001  3FFF               	dw	16383
  6657                           
  6658                           ;Config register IDLOC2 @ 0x2002
  6659                           ;	unspecified, using default values
  6660  2002                     	org	8194
  6661  2002  3FFF               	dw	16383
  6662                           
  6663                           ;Config register IDLOC3 @ 0x2003
  6664                           ;	unspecified, using default values
  6665  2003                     	org	8195
  6666  2003  3FFF               	dw	16383
  6667                           
  6668                           	psect	config
  6669                           
  6670                           ;Config register CONFIG1 @ 0x2007
  6671                           ;	Oscillator Selection bits
  6672                           ;	FOSC = INTRC_NOCLKOUT, INTOSCIO oscillator: I/O function on RA6/OSC2/CLKOUT pin, I/O f
      +                          unction on RA7/OSC1/CLKIN
  6673                           ;	Watchdog Timer Enable bit
  6674                           ;	WDTE = OFF, WDT disabled and can be enabled by SWDTEN bit of the WDTCON register
  6675                           ;	Power-up Timer Enable bit
  6676                           ;	PWRTE = OFF, PWRT disabled
  6677                           ;	RE3/MCLR pin function select bit
  6678                           ;	MCLRE = OFF, RE3/MCLR pin function is digital input, MCLR internally tied to VDD
  6679                           ;	Code Protection bit
  6680                           ;	CP = OFF, Program memory code protection is disabled
  6681                           ;	Data Code Protection bit
  6682                           ;	CPD = OFF, Data memory code protection is disabled
  6683                           ;	Brown Out Reset Selection bits
  6684                           ;	BOREN = OFF, BOR disabled
  6685                           ;	Internal External Switchover bit
  6686                           ;	IESO = OFF, Internal/External Switchover mode is disabled
  6687                           ;	Fail-Safe Clock Monitor Enabled bit
  6688                           ;	FCMEN = OFF, Fail-Safe Clock Monitor is disabled
  6689                           ;	Low Voltage Programming Enable bit
  6690                           ;	LVP = OFF, RB3 pin has digital I/O, HV on MCLR must be used for programming
  6691                           ;	In-Circuit Debugger Mode bit
  6692                           ;	DEBUG = 0x1, unprogrammed default
  6693  2007                     	org	8199
  6694  2007  20D4               	dw	8404
  6695                           
  6696                           ;Config register CONFIG2 @ 0x2008
  6697                           ;	Brown-out Reset Selection bit
  6698                           ;	BOR4V = BOR40V, Brown-out Reset set to 4.0V
  6699                           ;	Flash Program Memory Self Write Enable bits
  6700                           ;	WRT = OFF, Write protection off
  6701  2008                     	org	8200
  6702  2008  3FFF               	dw	16383

Data Sizes:
    Strings     0
    Constant    0
    Data        13
    BSS         34
    Persistent  0
    Stack       0

Auto Spaces:
    Space          Size  Autos    Used
    COMMON           14     14      14
    BANK0            80     79      80
    BANK1            80     17      63
    BANK3            96      4       4
    BANK2            96      0       0

Pointer List with Targets:

    None.

Critical Paths under _main in COMMON

    None.

Critical Paths under _isr in COMMON

    _map->___xxtofl
    ___fltol->___xxtofl
    ___flmul->___xxtofl
    ___fldiv->___xxtofl
    ___fladd->___xxtofl

Critical Paths under _main in BANK0

    None.

Critical Paths under _isr in BANK0

    _isr->_map
    _map->___fltol
    ___fltol->___fladd
    ___flmul->___fldiv
    ___fladd->___flmul

Critical Paths under _main in BANK1

    None.

Critical Paths under _isr in BANK1

    _isr->_map
    _map->___fltol

Critical Paths under _main in BANK3

    _main->_write_EEPROM
    _setup->_set_ADC

Critical Paths under _isr in BANK3

    None.

Critical Paths under _main in BANK2

    None.

Critical Paths under _isr in BANK2

    None.

Call Graph Tables:

 ---------------------------------------------------------------------------------
 (Depth) Function   	        Calls       Base Space   Used Autos Params    Refs
 ---------------------------------------------------------------------------------
 (0) _main                                                 2     2      0     813
                                              2 BANK3      2     2      0
                        _read_EEPROM
                              _setup
                       _write_EEPROM
 ---------------------------------------------------------------------------------
 (1) _write_EEPROM                                         2     1      1     782
                                              0 BANK3      2     1      1
 ---------------------------------------------------------------------------------
 (1) _setup                                                0     0      0       0
                            _set_ADC
                            _set_PWM
                            _set_SPI
                           _set_UART
 ---------------------------------------------------------------------------------
 (2) _set_UART                                             0     0      0       0
 ---------------------------------------------------------------------------------
 (2) _set_SPI                                              0     0      0       0
 ---------------------------------------------------------------------------------
 (2) _set_PWM                                              0     0      0       0
 ---------------------------------------------------------------------------------
 (2) _set_ADC                                              1     1      0       0
                                              0 BANK3      1     1      0
 ---------------------------------------------------------------------------------
 (1) _read_EEPROM                                          1     1      0      31
                                              0 BANK3      1     1      0
 ---------------------------------------------------------------------------------
 Estimated maximum stack depth 2
 ---------------------------------------------------------------------------------
 (Depth) Function   	        Calls       Base Space   Used Autos Params    Refs
 ---------------------------------------------------------------------------------
 (3) _isr                                                  6     6      0   10685
                                             11 BANK1      6     6      0
                                _map
 ---------------------------------------------------------------------------------
 (4) _map                                                  7     1      6   10685
                                             78 BANK0      1     1      0
                                              5 BANK1      6     0      6
                            ___fladd
                            ___fldiv
                            ___flmul
                            ___fltol
                           ___xxtofl
 ---------------------------------------------------------------------------------
 (5) ___xxtofl                                            14    10      4     626
                                              0 COMMON    14    10      4
 ---------------------------------------------------------------------------------
 (5) ___fltol                                             11     7      4     305
                                             72 BANK0      6     2      4
                                              0 BANK1      5     5      0
                            ___fladd (ARG)
                            ___fldiv (ARG)
                            ___flmul (ARG)
                           ___xxtofl (ARG)
 ---------------------------------------------------------------------------------
 (5) ___flmul                                             26    18      8    2417
                                             26 BANK0     26    18      8
                          __Umul8_16
                            ___fldiv (ARG)
                           ___xxtofl (ARG)
 ---------------------------------------------------------------------------------
 (6) __Umul8_16                                            9     7      2     799
                                              0 COMMON     9     7      2
 ---------------------------------------------------------------------------------
 (5) ___fldiv                                             26    18      8    1273
                                              0 BANK0     26    18      8
                           ___xxtofl (ARG)
 ---------------------------------------------------------------------------------
 (5) ___fladd                                             20    12      8    2262
                                             52 BANK0     20    12      8
                            ___fldiv (ARG)
                            ___flmul (ARG)
                           ___xxtofl (ARG)
 ---------------------------------------------------------------------------------
 Estimated maximum stack depth 6
 ---------------------------------------------------------------------------------

 Call Graph Graphs:

 _main (ROOT)
   _read_EEPROM
   _setup
     _set_ADC
     _set_PWM
     _set_SPI
     _set_UART
   _write_EEPROM

 _isr (ROOT)
   _map
     ___fladd
       ___fldiv (ARG)
         ___xxtofl (ARG)
       ___flmul (ARG)
         __Umul8_16
         ___fldiv (ARG)
         ___xxtofl (ARG)
       ___xxtofl (ARG)
     ___fldiv
     ___flmul
     ___fltol
       ___fladd (ARG)
       ___fldiv (ARG)
       ___flmul (ARG)
       ___xxtofl (ARG)
     ___xxtofl

 Address spaces:
Name               Size   Autos  Total    Cost      Usage
BANK3               60      4       4       9        4.2%
BITBANK3            60      0       0       8        0.0%
SFR3                 0      0       0       4        0.0%
BITSFR3              0      0       0       4        0.0%
BANK2               60      0       0      11        0.0%
BITBANK2            60      0       0      10        0.0%
SFR2                 0      0       0       5        0.0%
BITSFR2              0      0       0       5        0.0%
BANK1               50     11      3F       7       78.8%
BITBANK1            50      0       0       6        0.0%
SFR1                 0      0       0       2        0.0%
BITSFR1              0      0       0       2        0.0%
BANK0               50     4F      50       5      100.0%
BITBANK0            50      0       0       4        0.0%
SFR0                 0      0       0       1        0.0%
BITSFR0              0      0       0       1        0.0%
COMMON               E      E       E       1      100.0%
BITCOMMON            E      0       0       0        0.0%
CODE                 0      0       0       0        0.0%
DATA                 0      0      A1      12        0.0%
ABS                  0      0      A1       3        0.0%
NULL                 0      0       0       0        0.0%
STACK                0      0       0       2        0.0%
EEDATA             100      0       0       0        0.0%


Microchip Technology PIC Macro Assembler V2.36 build 20220127204148 
Symbol Table                                                                                   Wed Jun 01 21:00:56 2022

           ___fldiv@aexp 0039             ___fldiv@bexp 0038                        pc 0002  
           ___fldiv@sign 0031              _SSPSTATbits 0094                       fsr 0004  
    __Umul8_16@word_mpld 0076                      l213 0B22                      l231 0CCB  
                    l216 0B35                      l226 0CAB                      l243 0D6E  
                    l260 0846                      l261 084F                      l270 07E0  
                    l255 17B8                      l272 07E4                      l264 089D  
                    l273 07E9                      l258 0840                      l267 17E5  
                    l276 17FF                      l279 17CB                      _PR2 0092  
                    _map 070A                      _isr 038F                      indf 0000  
           ___flmul@aexp 004C             ___flmul@bexp 004D             ___flmul@sign 0047  
           ___flmul@temp 0052             ___flmul@prod 004E             ___fltol@exp1 006D  
                   l1901 17F2                     l1903 17F5                     l1905 17F6  
                   l2801 0878                     l1851 07C0                     l1907 17F9  
                   l2811 0885                     l2803 087D                     l1861 07D4  
                   l1853 07C4                     l1909 17FC                     l2821 088C  
                   l2813 0888                     l2805 0880                     l2901 0C3B  
                   l1871 07DC                     l1863 07D6                     l1855 07C8  
                   l2831 0899                     l2823 088F                     l2815 0889  
                   l2807 0881                     l2911 0C76                     l2903 0C40  
                   l1873 07DD                     l1865 07D8                     l1857 07CC  
                   l1849 07BC                     l1881 17C0                     l2833 089A  
                   l2825 0892                     l2817 088A                     l2809 0882  
                   l2841 082C                     l2921 0CB3                     l2913 0C83  
                   l2905 0C46                     l2851 17AD                     l2771 17CC  
                   l1875 07DF                     l1867 07DA                     l1859 07D0  
                   l1891 17C8                     l1883 17C2                     l2835 089B  
                   l2827 0895                     l2819 088B                     l2843 0836  
                   l2931 0CE3                     l2923 0CBF                     l2915 0C9B  
                   l2907 0C53                     l2853 17B1                     l2781 17DE  
                   l2773 17D0                     l1869 07DB                     l1885 17C3  
                   l1877 17B9                     l2837 089C                     l2829 0896  
                   l2845 0839                     l2941 0D0D                     l2933 0CED  
                   l2925 0CC5                     l2917 0CA6                     l2909 0C5E  
                   l2861 0B17                     ?_map 00C6                     l2855 17B4  
                   l2775 17D3                     l1887 17C4                     l1879 17BD  
                   l1895 17E6                     l2791 0862                     l2847 083A  
                   l2951 0D34                     l2943 0D13                     l2935 0CF3  
                   l2927 0CD5                     l2919 0CAC                     l2871 0B45  
                   l2863 0B1C                     l2857 17B5                     l2777 17D8  
                   l1889 17C7                     l1897 17ED                     l2793 0868  
                   l2785 0850                     l2849 083F                     l2961 0D69  
                   l2953 0D41                     l2937 0CFD                     l2929 0CDE  
                   l2881 0BC4                     l2945 0D1C                     l2873 0B4D  
                   l2865 0B28                     l2779 17DB                     l1899 17F0  
                   l2795 0869                     l2787 0854                     l2955 0D48  
                   l2963 0D6E                     l2947 0D22                     l2939 0D03  
                   l2891 0BE8                     l2875 0B83                     l2883 0BC9  
                   l2867 0B3B                     l2797 086E                     l2789 0855  
                   l2965 0D71                     l2957 0D55                     l2949 0D2D  
                   l2893 0BF3                     l2885 0BCF                     l2877 0B88  
                   l2869 0B41                     l2799 0873                     l2959 0D5C  
                   l2895 0C0B                     l2887 0BD3                     l2879 0B8E  
                   l2897 0C18                     l2889 0BDB                     l2899 0C30  
                   ?_isr 0070                     u4007 0C06                     u4017 0C1E  
                   u4027 0C36                     u4037 0C59                     u4047 0C71  
                   u1920 07E4                     u1921 07E3                     u4057 0C89  
                   u4067 0CA1                     u4077 17E2                     u3800 0B41  
                   u3801 0B40                     u3810 0B4D                     u3811 0B4C  
                   u3900 0CF3                     u3820 0B8E                     u3901 0CF2  
                   u3821 0B8D                     u3910 0D03                     u3830 0BCF  
                   u3911 0D02                     u3831 0BCE                     u3920 0D13  
                   u3840 0BDB                     u3921 0D12                     u3841 0BDA  
                   u3770 0846                     u3930 0D22                     u3850 0C46  
                   u3771 0845                     u3931 0D21                     u3851 0C45  
                   u3940 0D2D                     u3860 0CB3                     u3780 0B28  
                   u3941 0D2C                     u3861 0CB2                     u3781 0B27  
                   u3950 0D41                     u3870 0CBF                     u3790 0B3B  
                   u3951 0D40                     u3871 0CBE                     u3791 0B3A  
                   u3960 0D55                     u3880 0CC5                     u3961 0D54  
                   u3881 0CC4                     u3970 0D69                     u3890 0CE3  
                   u3971 0D68                     u3891 0CE2                     u3987 0B2C  
                   u3997 0BEE                     _main 0B17                     _modo 00B4  
                   map@x 006E                     btemp 007E                     start 0010  
        ___fldiv@new_exp 0032             ?_read_EEPROM 0070                    ??_map 007E  
                  ??_isr 00CC            ___fltol@sign1 006C          __end_of___fladd 1000  
                  ?_main 0070          __end_of___fldiv 0B17                    _EEADR 010D  
                  _EEDAT 010C          __end_of___flmul 038F          __end_of___fltol 093A  
                  _ANSEL 0188                    i1l207 0645                    i1l252 07BB  
                  i1l180 05E9                    i1l195 060D                    i1l700 0FF3  
                  i1l701 0FFF                    i1l198 0629                    i1l551 0939  
                  i1l800 0709                    i1l561 0939                    i1l730 0A88  
                  i1l714 0996                    i1l811 06D3                    i1l716 0B16  
                  i1l812 06DF                    i1l804 06B7                    i1l662 0E82  
                  i1l558 0924                    i1l671 0FFF                    i1l664 0E59  
                  i1l736 0AFA                    i1l760 02FA                    i1l658 0DDB  
                  i1l738 0B0A                    i1l754 038E                    i1l683 0F71  
                  i1l692 0FD1                    i1l773 0816                    i1l766 0382  
                  i1l679 0F4D                    i1l775 0828                    i1l689 0F93  
                  i1l798 0672                    _RCREG 001A                    _SPBRG 0099  
                  _PORTA 0005                    _PORTB 0006                    _PORTC 0007  
                  _PORTD 0008                    _TRISA 0085                    _TRISC 0087  
                  _TRISD 0088                    _TXREG 0019                    map@x0 00C6  
                  map@x1 00C7          __end_of_set_ADC 17E6                    map@y0 00C8  
                  map@y1 00CA                    _setup 0850          __end_of_set_SPI 17CC  
        __end_of_set_PWM 07EA                    pclath 000A                    status 0003  
                  wtemp0 007E          __initialization 0013             __end_of_main 0D78  
                 ??_main 0192             _write_EEPROM 0829                   _ADRESH 001E  
                 _CCPR1L 0015                   _CCPR2L 001B                   _EECON2 018D  
                 ?_setup 0070                   _ANSELH 0189                   i1l2001 0DF1  
                 i1l2011 0E05                   i1l2003 0DF5                   i1l2101 0F7F  
                 i1l2021 0E19                   i1l2013 0E09                   i1l2005 0DF9  
                 i1l2111 0F90                   i1l2103 0F81                   i1l2031 0E3D  
                 i1l2023 0E1D                   i1l2015 0E0D                   i1l2007 0DFD  
                 i1l2121 0FAF                   i1l2105 0F85                   i1l2041 0E6D  
                 i1l2033 0E5D                   i1l2025 0E21                   i1l2017 0E11  
                 i1l2009 0E01                   i1l2201 09DF                   i1l2131 0FE8  
                 i1l2123 0FCD                   i1l2115 0F98                   i1l2107 0F86  
                 i1l2043 0E76                   i1l2035 0E66                   i1l2019 0E15  
                 i1l2027 0E25                   i1l2211 0A08                   i1l2203 09E7  
                 i1l2141 0FFE                   i1l2133 0FE9                   i1l2125 0FD6  
                 i1l2117 0F9D                   i1l2109 0F8A                   i1l2061 0EBC  
                 i1l2053 0E94                   i1l2037 0E68                   i1l2045 0E7A  
                 i1l2029 0E26                   i1l2221 0A29                   i1l2213 0A0C  
                 i1l2205 09EF                   i1l2301 0054                   i1l2135 0FED  
                 i1l2127 0FDB                   i1l2119 0FAB                   i1l2063 0EBE  
                 i1l2055 0EAB                   i1l2047 0E86                   i1l2071 0ED1  
                 i1l2039 0E6C                   i1l2231 0A4B                   i1l2223 0A37  
                 i1l2215 0A0D                   i1l2207 09F1                   i1l2151 094C  
                 i1l2143 093A                   i1l2311 006C                   i1l2303 005C  
                 i1l2137 0FEF                   i1l2129 0FE3                   i1l2073 0EE7  
                 i1l2081 0F3F                   i1l2065 0EC2                   i1l2057 0EAF  
                 i1l2049 0E8B                   i1l2233 0A54                   i1l2241 0A68  
                 i1l2209 09F6                   i1l2217 0A16                   i1l2225 0A3B  
                 i1l2153 0951                   i1l2161 0961                   i1l2145 0941  
                 i1l2401 032F                   i1l2321 0088                   i1l2313 0071  
                 i1l2305 0061                   i1l2139 0FFA                   i1l2091 0F6C  
                 i1l2083 0F55                   i1l2075 0F25                   i1l2067 0EC3  
                 i1l2059 0EB3                   i1l2243 0A6C                   i1l2235 0A58  
                 i1l2227 0A41                   i1l2219 0A28                   i1l2171 0979  
                 i1l2163 0969                   i1l2155 0956                   i1l2147 0947  
                 i1l2411 0366                   i1l2403 0335                   i1l2331 00AB  
                 i1l2323 008D                   i1l2315 0076                   i1l2307 0067  
                 i1l2093 0F70                   i1l2085 0F5A                   i1l2077 0F2B  
                 i1l2069 0ECC                   i1l2261 0ABD                   i1l2253 0A8D  
                 i1l2245 0A6D                   i1l2237 0A59                   i1l2229 0A49  
                 i1l2173 097E                   i1l2181 098E                   i1l2165 096E  
                 i1l2157 095E                   i1l2149 094B                   i1l2421 0386  
                 i1l2413 0368                   i1l2405 0342                   i1l2341 0139  
                 i1l2333 00B8                   i1l2325 0092                   i1l2317 007E  
                 i1l2309 006B                   u200_25 0915                   i1l2095 0F75  
                 i1l2079 0F30                   i1l2271 0AF1                   i1l2255 0A92  
                 i1l2263 0AC3                   i1l2247 0A71                   i1l2239 0A62  
                 i1l2183 099E                   i1l2191 09B7                   i1l2175 0983  
                 i1l2167 0974                   i1l2159 095F                   i1l2415 0376  
                 i1l2407 034D                   i1l2351 019B                   i1l2343 0155  
                 i1l2335 00D5                   i1l2319 0080                   i1l2431 066A  
                 u201_20 0929                   i1l2097 0F78                   i1l2089 0F63  
                 i1l2273 0AF9                   i1l2265 0AD0                   i1l2257 0AA0  
                 i1l2249 0A85                   i1l2193 09BC                   i1l2185 09AA  
                 i1l2177 098B                   i1l2169 0978                   i1l2417 037A  
                 i1l2409 035C                   i1l2361 022B                   i1l2353 01B8  
                 i1l2345 015E                   i1l2337 00F1                   i1l2329 009B  
                 u201_21 0928                   i1l2441 0695                   i1l2433 067A  
                 i1l2425 0651                   i1l2601 04FC                   i1l2099 0F7A  
                 i1l2275 0B00                   i1l2267 0ADE                   i1l2259 0AA4  
                 i1l2187 09AE                   i1l2179 098C                   i1l2419 037B  
                 i1l2371 02BD                   i1l2363 0258                   i1l2355 01D1  
                 i1l2347 016E                   i1l2339 011D                   i1l2291 003F  
                 i1l2451 06C9                   i1l2443 069C                   i1l2427 0656  
                 i1l2611 0545                   i1l2603 0504                   i1l2277 0B04  
                 i1l2269 0AED                   i1l2197 09C5                   i1l1821 0803  
                 i1l2373 02C6                   i1l2381 02DA                   i1l2365 027E  
                 i1l2357 01EE                   i1l2349 018B                   i1l2293 0040  
                 i1l2285 002E                   i1l2461 06FC                   i1l2453 06CD  
                 i1l2445 06A0                   i1l2437 0683                   i1l2429 065A  
                 i1l2621 0580                   i1l2613 055E                   i1l2605 051E  
                 i1l2279 0B06                   i1l2199 09D7                   i1l1831 0824  
                 i1l1823 0805                   i1l2383 02DE                   i1l2375 02CA  
                 i1l2367 02A6                   i1l2359 021B                   i1l2295 0045  
                 i1l2287 0035                   i1l2463 0700                   i1l2455 06D7  
                 i1l2447 06AE                   i1l2439 0688                   i1l2631 05DA  
                 i1l2623 059A                   i1l2607 0524                   i1l2615 0565  
                 i1l2551 0395                   u210_20 0DE1                   u202_20 092E  
                 u210_21 0DE0                   i1l1825 080C                   i1l2393 02FF  
                 i1l2385 02DF                   i1l2377 02CB                   i1l2369 02AF  
                 i1l2297 004A                   i1l2289 003B                   u202_21 092D  
                 i1l1921 08DD                   i1l1913 089E                   i1l2465 0701  
                 i1l2457 06E1                   i1l2449 06BE                   i1l2641 05FB  
                 i1l2625 05A0                   i1l2617 0572                   i1l2609 053E  
                 i1l2633 05E9                   i1l2561 03C1                   i1l2553 03A3  
                 i1l1827 0810                   i1l2395 0304                   i1l2387 02E3  
                 i1l2379 02D4                   i1l2299 0052                   i1l1923 08DE  
                 i1l1915 08AF                   i1l2459 06F7                   i1l2651 0624  
                 i1l2643 0608                   i1l2627 05BA                   i1l2619 0578  
                 i1l2571 041B                   i1l2563 03DB                   i1l2555 03A8  
                 i1l2635 05EB                   i1l1829 081F                   i1l2397 0312  
                 i1l2389 02F7                   i1l1925 08E6                   i1l2469 070D  
                 i1l2653 062D                   i1l2645 0611                   i1l2661 0644  
                 i1l2637 05EF                   i1l2629 05C1                   i1l2581 0467  
                 i1l2573 0429                   i1l2565 03E1                   i1l2557 03B3  
                 i1l2549 038F                   i1l1951 0D7F                   i1l2399 0316  
                 i1l1943 0911                   i1l1935 08F4                   i1l1927 08E8  
                 i1l1919 08B8                   i1l2655 0635                   i1l2647 0619  
                 i1l2639 05F3                   i1l2591 04B0                   i1l2583 046F  
                 i1l2575 043A                   i1l2567 03FB                   i1l2559 03B9  
                 u211_20 0DE5                   u203_20 0D89                   u211_21 0DE4  
                 i1l1961 0D94                   u203_21 0D88                   i1l1953 0D85  
                 i1l1945 0929                   i1l1929 08EC                   i1l1937 090A  
                 i1l2657 063A                   i1l2649 061E                   i1l2593 04C9  
                 i1l2585 0489                   i1l2569 0402                   i1l2577 0454  
                 i1l1971 0DAC                   i1l1963 0D9C                   i1l1955 0D89  
                 i1l1947 092E                   i1l2659 0640                   i1l2595 04D7  
                 i1l2587 048F                   i1l2579 0461                   i1l1981 0DBE  
                 i1l1973 0DB2                   i1l1965 0D9D                   i1l1957 0D8A  
                 i1l1949 0D78                   i1l2589 04A9                   i1l2597 04E9  
                 i1l1983 0DC3                   i1l1991 0DD3                   i1l1975 0DB3  
                 i1l1959 0D8F                   i1l1967 0D9F                   i1l2599 04F6  
                 u220_20 0E8B                   u212_20 0E3D                   u204_20 0D8F  
                 u220_21 0E8A                   u212_21 0E3C                   i1l1993 0DE1  
                 i1l1985 0DC8                   i1l1977 0DB9                   i1l1969 0DA7  
                 u204_21 0D8E                   u300_21 0298                   u300_22 029F  
                 i1l1995 0DE5                   i1l1987 0DD0                   i1l1979 0DBD  
                 u300_23 02A6                   u212_25 0E39                   i1l1997 0DE9  
                 i1l1989 0DD1                   i1l1999 0DED                   u213_20 0E48  
                 u205_20 0D94                   u221_21 0E9D                   u213_21 0E46  
                 u205_21 0D93                   u221_22 0EA4                   u221_23 0EAB  
                 u301_25 02A8                   u230_20 0F55                   u222_20 0EAF  
                 u214_20 0E49                   u206_20 0DB2                   u310_20 0316  
                 u230_21 0F54                   u222_21 0EAE                   u206_21 0DB1  
                 u310_21 0315                   u302_25 02BF                   u231_20 0F5A  
                 u223_20 0EB3                   u215_20 0E5D                   u207_20 0DBD  
                 u311_20 0325                   u303_20 02CA                   u231_21 0F59  
                 u223_21 0EB2                   u215_21 0E5C                   u207_21 0DBC  
                 u303_21 02C9                   u311_25 0320                   u240_20 0F9D  
                 u224_20 0EC2                   u216_20 0E6C                   u208_20 0DC3  
                 u312_20 0342                   u240_21 0F9C                   u224_21 0EC1  
                 u216_21 0E6B                   u208_21 0DC2                   u312_21 0341  
                 u232_25 0F65                   u312_25 033E                   u304_25 02CD  
                 u320_25 06AF                   u241_20 0FAF                   u233_20 0F70  
                 u209_20 0DC8                   u313_20 035C                   u305_20 02DE  
                 u321_20 06BD                   u241_21 0FAE                   u233_21 0F6F  
                 u209_21 0DC7                   u313_21 035B                   u305_21 02DD  
                 u321_21 06BC                   u225_25 0EC5                   u217_25 0E6F  
                 u313_25 0358                   u242_20 0FBE                   u234_20 0F75  
                 u226_20 0EE7                   u218_20 0E82                   u250_20 0951  
                 u314_20 037A                   u306_20 02E3                   u330_20 0395  
                 u234_21 0F74                   u226_21 0EE6                   u218_21 0E81  
                 u250_21 0950                   u314_21 0379                   u306_21 02E2  
                 u330_21 0394                   u226_23 0EE3                   u242_25 0FB9  
                 u322_25 06C2                   u243_20 0FCD                   u235_20 0F7F  
                 u219_20 0E86                   u251_20 0956                   u307_20 02F7  
                 u323_20 06CD                   u315_20 0656                   u331_20 03A8  
                 u243_21 0FCC                   u235_21 0F7E                   u227_21 0EFE  
                 u219_21 0E85                   u251_21 0955                   u307_21 02F6  
                 u323_21 06CC                   u315_21 0655                   u331_21 03A7  
                 u227_22 0EFF                   u227_23 0F04                   u227_24 0F05  
                 u227_25 0F0A                   u227_26 0F0B                   u244_20 0FD6  
                 u236_20 0F85                   u228_20 0F12                   u260_20 0A0C  
                 u252_20 0978                   u308_20 02FE                   u324_20 06D3  
                 u316_20 065A                   u340_20 04F6                   u332_20 03B3  
                 u244_21 0FD5                   u236_21 0F84                   u228_21 0F13  
                 u260_21 0A0B                   u252_21 0977                   u308_21 02FD  
                 u324_21 06D2                   u316_21 0659                   u340_21 04F5  
                 u332_21 03B2                   u228_22 0F18                   u228_23 0F19  
                 u245_20 0FDB                   u237_20 0F8A                   u229_20 0F30  
                 u253_20 097E                   u309_20 0304                   u325_20 06D7  
                 u317_20 067A                   u341_20 04FC                   u333_20 03B9  
                 u245_21 0FDA                   u237_21 0F89                   u229_21 0F2F  
                 u253_21 097D                   u309_21 0303                   u325_21 06D6  
                 u317_21 0679                   u341_21 04FB                   u333_21 03B8  
                 u261_25 0A0F                   u246_20 0FE8                   u238_20 0F90  
                 u270_20 0A85                   u262_20 0A28                   u254_20 0983  
                 u326_20 06EC                   u350_20 0608                   u342_20 0524  
                 u334_20 03E1                   u246_21 0FE7                   u238_21 0F8F  
                 u270_21 0A84                   u262_21 0A27                   u254_21 0982  
                 u350_21 0607                   u342_21 0523                   u334_21 03E0  
                 u262_25 0A24                   u190_25 0817                   u326_25 06E7  
                 u318_25 068D                   u350_25 0604                   u247_20 0FED  
                 u239_20 0F97                   u271_20 0A8C                   u263_20 0A41  
                 u255_20 099E                   u191_20 0824                   u327_20 06FC  
                 u319_20 069B                   u351_20 0611                   u343_20 0545  
                 u335_20 0402                   u247_21 0FEC                   u239_21 0F96  
                 u271_21 0A8B                   u263_21 0A40                   u255_21 099D  
                 u191_21 0823                   u327_21 06FB                   u319_21 069A  
                 u351_21 0610                   u343_21 0544                   u335_21 0401  
                 u248_20 0FFE                   u272_20 0A92                   u264_20 0A49  
                 u256_20 09BC                   u280_20 004A                   u328_20 0700  
                 u352_20 0619                   u344_20 0572                   u336_20 0461  
                 u248_21 0FFD                   u272_21 0A91                   u264_21 0A48  
                 u256_21 09BB                   u280_21 0049                   u328_21 06FF  
                 u352_21 0618                   u344_21 0571                   u336_21 0460  
                 u273_20 0AA4                   u257_20 09F6                   u249_20 094B  
                 u281_20 006B                   u193_20 08AF                   u353_20 0624  
                 u345_20 0578                   u337_20 0467                   u273_21 0AA3  
                 u257_21 09F5                   u249_21 094A                   u281_21 006A  
                 u193_21 08AE                   u353_21 0623                   u345_21 0577  
                 u337_21 0466                   u265_25 0A4D                   u274_20 0AB3  
                 u266_20 0A58                   u282_20 0071                   u194_20 08D4  
                 u354_20 062D                   u346_20 05A0                   u338_20 048F  
                 u266_21 0A57                   u282_21 0070                   u354_21 062C  
                 u346_21 059F                   u338_21 048E                   u274_25 0AAE  
                 u258_25 09F8                   u290_25 0157                   u194_25 08CF  
                 u275_20 0AD0                   u283_20 0076                   u195_20 08EC  
                 u355_20 0635                   u347_20 05C1                   u339_20 04B0  
                 u275_21 0ACF                   u291_21 017D                   u283_21 0075  
                 u195_21 08EB                   u355_21 0634                   u347_21 05C0  
                 u339_21 04AF                   u291_22 0184                   u291_23 018B  
                 u275_25 0ACC                   u267_25 0A5B                   u259_25 0A01  
                 u276_20 0AED                   u268_20 0A6C                   u284_20 008D  
                 u196_20 08F3                   u356_20 0640                   u348_20 05EF  
                 u276_21 0AEC                   u268_21 0A6B                   u292_21 01AA  
                 u284_21 008C                   u196_21 08F2                   u356_21 063F  
                 u348_21 05EE                   u292_22 01B1                   u292_23 01B8  
                 u276_25 0AE9                   u277_20 0B04                   u269_20 0A71  
                 u189_20 0810                   u285_20 0092                   u349_20 05F3  
                 u277_21 0B03                   u269_21 0A70                   u189_21 080F  
                 u285_21 0091                   u349_21 05F2                   u293_25 01BA  
                 u197_25 08F5                   u278_20 003F                   u198_20 0909  
                 u294_21 01E0                   u286_21 00E3                   u278_21 003E  
                 u198_21 0908                   u294_22 01E7                   u286_22 00EA  
                 u294_23 01EE                   u286_23 00F1                   u279_20 0045  
                 u199_20 0910                   u295_21 020D                   u287_21 00FF  
                 u279_21 0044                   u199_21 090F                   u295_22 0214  
                 u287_22 0106                   u295_23 021B                   u287_23 010D  
                 u296_21 023A                   u288_21 012B                   u296_22 0241  
                 u288_22 0132                   u296_23 0248                   u288_23 0139  
                 u297_20 0264                   u289_21 0147                   u289_22 014E  
                 u289_23 0155                   u297_25 025F                   u298_21 0270  
                 u298_22 0277                   u298_23 027E                   u299_20 028C  
                 u299_25 0287                   _SPBRGH 009A                   _SSPBUF 0013  
       __end_of___xxtofl 070A                ??___fladd 005C                ??___fldiv 0028  
              ??___flmul 0042                ??___fltol 00C1                   _indice 006F  
                 _servo1 00C0                   _servo2 00BF                   _servo3 00BE  
                 _servo4 00BD         __end_of_set_UART 1800                ??_set_ADC 0190  
              ??_set_SPI 00D2                ??_set_PWM 00D2                   saved_w 007E  
           ___xxtofl@arg 007A             ___xxtofl@exp 0079             ___xxtofl@val 0070  
__end_of__initialization 002A               ___fltol@f1 0068           __pcstackCOMMON 0070  
           __pidataBANK1 179D            __end_of_setup 089E       read_EEPROM@address 0190  
         _OPTION_REGbits 0081         write_EEPROM@data 0190                  ??_setup 00D2  
             __pbssBANK0 006F               __pbssBANK1 00A0        __end_of__Umul8_16 0829  
             __pmaintext 0B17               __pintentry 0004                  _CCP1CON 0017  
                _CCP2CON 001D                  _CCPR_S1 00AA                  _CCPR_S2 00A8  
                _CCPR_S3 00DD                  _CCPR_S4 00DB                ?___xxtofl 0070  
              ?_set_UART 0070                  ___fladd 0D78                  ___fldiv 093A  
                ___flmul 002E                  ___fltol 089E                  _flag_r1 00AE  
                _flag_r2 00AC                  _flag_w1 00B2                  _flag_w2 00B0  
                __ptext1 0829                  __ptext2 0850                  __ptext3 17E6  
                __ptext4 17B9                  __ptext5 07BC                  __ptext6 17CC  
                __ptext7 17AA                  __ptext8 038F                  __ptext9 070A  
              _T2CONbits 0012                  _mensaje 00D2               ??___xxtofl 0074  
                _set_ADC 17CC                  _set_SPI 17B9                  _set_PWM 07BC  
                _servo11 00BC                  _servo22 00BB                  _servo33 00BA  
                _servo44 00B9                  clrloop0 1796     end_of_initialization 002A  
    write_EEPROM@address 0191               ??_set_UART 00D2                _RCSTAbits 0018  
              _PORTBbits 0006              ___fladd@grs 0067            ___xxtofl@sign 0078  
              _TRISBbits 0086                _TRISCbits 0087              ___fldiv@grs 0034  
            ___fldiv@rem 002D              ___flmul@grs 0048              _CCP1CONbits 0017  
            _CCP2CONbits 001D                _TXSTAbits 0098              _BAUDCTLbits 0187  
    start_initialization 0013              __end_of_map 07BC              __end_of_isr 0650  
          ??_read_EEPROM 00D2               init_fetch0 07EA                __Umul8_16 0802  
            __pdataBANK1 00D2                ___fladd@a 0058                ___fladd@b 0054  
              ___fldiv@a 0020                ___fldiv@b 0024                ___flmul@a 003E  
              ___flmul@b 003A                ___latbits 0002            __pcstackBANK0 0020  
          __pcstackBANK1 00C1            __pcstackBANK3 0190                 ?___fladd 0054  
               ?___fldiv 0020                 ?___flmul 003A                 ?___fltol 0068  
             ?__Umul8_16 0070      __end_of_read_EEPROM 17B9            ?_write_EEPROM 0190  
               ?_set_ADC 0070                 ?_set_SPI 0070                 ?_set_PWM 0070  
      interrupt_function 0004                 _IOCBbits 0096                clear_ram0 1795  
               _PIE1bits 008C                 _PIR1bits 000C                 _PIR2bits 000D  
              _valor_old 00B8               _ADCON0bits 001F               _ADCON1bits 009F  
         ??_write_EEPROM 00D2                 _WPUBbits 0095              _old_CCPR_S1 00A6  
            _old_CCPR_S2 00A4              _old_CCPR_S3 00A2              _old_CCPR_S4 00A0  
             _EECON1bits 018C              _read_EEPROM 17AA              ??__Umul8_16 0072  
          _flag_terminal 00B6                 ___xxtofl 0650                 __ptext10 0650  
               __ptext11 089E                 __ptext12 002E                 __ptext13 0802  
               __ptext14 093A                 __ptext15 0D78             _val_terminal 00B7  
               _set_UART 17E6               _INTCONbits 000B                 init_ram0 07EE  
               intlevel1 0000     __end_of_write_EEPROM 0850               _OSCCONbits 008F  
 __Umul8_16@multiplicand 0070            ___fladd@signs 0064             ___fladd@aexp 0065  
           ___fladd@bexp 0066     __Umul8_16@multiplier 0078               _SSPCONbits 0014  
      __Umul8_16@product 0074  
